 MFCEdit

 Timestamp is 6836a58c (Wed May 28 14:56:28 2025)

 Preferred load address is 0000000140000000

 Start         Length     Name                   Class
 0001:00000000 000000b0H .text$di                CODE
 0001:000000b0 00013e80H .text$mn                CODE
 0001:00013f30 00000040H .text$mn$00             CODE
 0001:00013f70 00000d40H .text$x                 CODE
 0001:00014cb0 00000087H .text$yd                CODE
 0002:00000000 00001108H .idata$5                DATA
 0002:00001108 00000038H .00cfg                  DATA
 0002:00001140 00000008H .CRT$XCA                DATA
 0002:00001148 00000008H .CRT$XCAA               DATA
 0002:00001150 00000018H .CRT$XCL                DATA
 0002:00001168 00000010H .CRT$XCU                DATA
 0002:00001178 00000008H .CRT$XCZ                DATA
 0002:00001180 00000008H .CRT$XIA                DATA
 0002:00001188 00000008H .CRT$XIAA               DATA
 0002:00001190 00000008H .CRT$XIAC               DATA
 0002:00001198 00000008H .CRT$XIZ                DATA
 0002:000011a0 00000008H .CRT$XLA                DATA
 0002:000011a8 00000008H .CRT$XLZ                DATA
 0002:000011b0 00000008H .CRT$XPA                DATA
 0002:000011b8 00000008H .CRT$XPZ                DATA
 0002:000011c0 00000008H .CRT$XTA                DATA
 0002:000011c8 00000018H .CRT$XTZ                DATA
 0002:000011d0 00000000H .gehcont$y              DATA
 0002:000011d0 00000000H .gfids$y                DATA
 0002:000011e0 000050a0H .rdata                  DATA
 0002:00006280 00000000H .rdata$CastGuardVftablesA DATA
 0002:00006280 00000000H .rdata$CastGuardVftablesC DATA
 0002:00006280 00000030H .rdata$T                DATA
 0002:000062b0 00002134H .rdata$r                DATA
 0002:000083e4 00000094H .rdata$voltmd           DATA
 0002:00008478 000003e8H .rdata$zzzdbg           DATA
 0002:00008860 00000008H .rtc$IAA                DATA
 0002:00008868 00000008H .rtc$IZZ                DATA
 0002:00008870 00000008H .rtc$TAA                DATA
 0002:00008878 00000008H .rtc$TZZ                DATA
 0002:00008880 00000004H .tls                    DATA
 0002:00008884 00000004H .tls$                   DATA
 0002:00008888 00000008H .tls$ZZZ                DATA
 0002:00008890 000020a8H .xdata                  DATA
 0002:0000a938 00000250H .xdata$x                DATA
 0002:0000ab88 00000000H ATL$__a                 DATA
 0002:0000ab88 00000000H ATL$__z                 DATA
 0002:0000ab88 00000000H .edata                  DATA
 0002:0000ab88 00000168H .idata$2                DATA
 0002:0000acf0 00000018H .idata$3                DATA
 0002:0000ad08 00001108H .idata$4                DATA
 0002:0000be10 00001738H .idata$6                DATA
 0003:00000000 000000f0H .data                   DATA
 0003:000000f0 00000200H .data$r                 DATA
 0003:000002f0 00000c50H .data$rs                DATA
 0003:00000f40 00000828H .bss                    DATA
 0004:00000000 00001488H .pdata                  DATA
 0005:00000000 00000920H .rsrc$01                DATA
 0005:00000920 000135c8H .rsrc$02                DATA

  Address         Publics by Value              Rva+Base               Lib:Object

 0000:00000000       __AbsoluteZero             0000000000000000     <absolute>
 0000:00000000       ___safe_se_handler_count   0000000000000000     <absolute>
 0000:00000000       ___safe_se_handler_table   0000000000000000     <absolute>
 0000:00000000       __arm64x_extra_rfe_table   0000000000000000     <absolute>
 0000:00000000       __arm64x_extra_rfe_table_size 0000000000000000     <absolute>
 0000:00000000       __arm64x_native_entrypoint 0000000000000000     <absolute>
 0000:00000000       __arm64x_redirection_metadata 0000000000000000     <absolute>
 0000:00000000       __arm64x_redirection_metadata_count 0000000000000000     <absolute>
 0000:00000000       __dynamic_value_reloc_table 0000000000000000     <absolute>
 0000:00000000       __enclave_config           0000000000000000     <absolute>
 0000:00000000       __guard_check_icall_a64n_fptr 0000000000000000     <absolute>
 0000:00000000       __guard_eh_cont_count      0000000000000000     <absolute>
 0000:00000000       __guard_eh_cont_table      0000000000000000     <absolute>
 0000:00000000       __guard_fids_count         0000000000000000     <absolute>
 0000:00000000       __guard_fids_table         0000000000000000     <absolute>
 0000:00000000       __guard_iat_count          0000000000000000     <absolute>
 0000:00000000       __guard_iat_table          0000000000000000     <absolute>
 0000:00000000       __guard_longjmp_count      0000000000000000     <absolute>
 0000:00000000       __guard_longjmp_table      0000000000000000     <absolute>
 0000:00000000       __hybrid_auxiliary_delayload_iat 0000000000000000     <absolute>
 0000:00000000       __hybrid_auxiliary_delayload_iat_copy 0000000000000000     <absolute>
 0000:00000000       __hybrid_auxiliary_iat     0000000000000000     <absolute>
 0000:00000000       __hybrid_auxiliary_iat_copy 0000000000000000     <absolute>
 0000:00000000       __hybrid_code_map          0000000000000000     <absolute>
 0000:00000000       __hybrid_code_map_count    0000000000000000     <absolute>
 0000:00000000       __hybrid_image_info_bitfield 0000000000000000     <absolute>
 0000:00000000       __x64_code_ranges_to_entry_points 0000000000000000     <absolute>
 0000:00000000       __x64_code_ranges_to_entry_points_count 0000000000000000     <absolute>
 0000:00000100       __guard_flags              0000000000000100     <absolute>
 0000:00000000       __ImageBase                0000000140000000     <linker-defined>
 0001:000000b0       ?CreateObject@CMainFrame@@SAPEAVCObject@@XZ 00000001400010b0 f   MainFrm.obj
 0001:00000120       ?_GetBaseClass@CMainFrame@@KAPEAUCRuntimeClass@@XZ 0000000140001120 f   MainFrm.obj
 0001:00000130       ?GetRuntimeClass@CMainFrame@@UEBAPEAUCRuntimeClass@@XZ 0000000140001130 f   MainFrm.obj
 0001:00000140       ?GetMessageMap@CMainFrame@@MEBAPEBUAFX_MSGMAP@@XZ 0000000140001140 f   MainFrm.obj
 0001:00000150       ??_ECMainFrame@@UEAAPEAXI@Z 0000000140001150 f i * CIL library *:* CIL module *
 0001:00000150       ??_GCMainFrame@@UEAAPEAXI@Z 0000000140001150 f i MainFrm.obj
 0001:000001d0       ?OnCreate@CMainFrame@@IEAAHPEAUtagCREATESTRUCTW@@@Z 00000001400011d0 f   MainFrm.obj
 0001:000002f0       ?PreCreateWindow@CMainFrame@@UEAAHAEAUtagCREATESTRUCTW@@@Z 00000001400012f0 f   MainFrm.obj
 0001:00000310       ?AssertValid@CObject@@UEBAXXZ 0000000140001310 f i MainFrm.obj
 0001:00000310       ?Clear@CVARIANTTool@@UEAAXXZ 0000000140001310 f i MFCEditView.obj
 0001:00000310       ?Clear@IVARIANTApplication@@UEAAXXZ 0000000140001310 f i MFCEditView.obj
 0001:00000310       ?DoDataExchange@CAboutDlg@@MEAAXPEAVCDataExchange@@@Z 0000000140001310 f i MFCEdit.obj
 0001:00000310       ?DoDataExchange@CWnd@@MEAAXPEAVCDataExchange@@@Z 0000000140001310 f i MainFrm.obj
 0001:00000310       ?Dump@CObject@@UEBAXAEAVCDumpContext@@@Z 0000000140001310 f i MainFrm.obj
 0001:00000310       ?InitializeSearchContent@CDocument@@UEAAXXZ 0000000140001310 f i MFCEditDoc.obj
 0001:00000310       ?OnBeforeRichPreviewFontChanged@CDocument@@UEAAXXZ 0000000140001310 f i MFCEditDoc.obj
 0001:00000310       ?OnRichPreviewBackColorChanged@CDocument@@UEAAXXZ 0000000140001310 f i MFCEditDoc.obj
 0001:00000310       ?OnRichPreviewFontChanged@CDocument@@UEAAXXZ 0000000140001310 f i MFCEditDoc.obj
 0001:00000310       ?OnRichPreviewSiteChanged@CDocument@@UEAAXXZ 0000000140001310 f i MFCEditDoc.obj
 0001:00000310       ?OnRichPreviewTextColorChanged@CDocument@@UEAAXXZ 0000000140001310 f i MFCEditDoc.obj
 0001:00000310       ?Serialize@CMFCEditDoc@@UEAAXAEAVCArchive@@@Z 0000000140001310 f i MFCEditDoc.obj
 0001:00000310       ?Serialize@CObject@@UEAAXAEAVCArchive@@@Z 0000000140001310 f i MainFrm.obj
 0001:00000310       ?__empty_global_delete@@YAXPEAX_K@Z 0000000140001310 f i MainFrm.obj
 0001:00000310       ?__global_delete@@YAXPEAX_K@Z 0000000140001310 f i * CIL library *:* CIL module *
 0001:00000310       _guard_check_icall_nop     0000000140001310 f i msvcrt:guard_support.obj
 0001:00000310       _initialize_denormal_control 0000000140001310 f i msvcrt:denormal_control.obj
 0001:00000310       _initialize_invalid_parameter_handler 0000000140001310 f i msvcrt:invalid_parameter_handler.obj
 0001:00000320       ?GetTrackingID@CFrameWnd@@UEAAIXZ 0000000140001320 f i MainFrm.obj
 0001:00000330       ??3CObject@@SAXPEAX@Z      0000000140001330 f i MainFrm.obj
 0001:00000340       ?GetMessageMap@CMFCEditApp@@MEBAPEBUAFX_MSGMAP@@XZ 0000000140001340 f   MFCEdit.obj
 0001:00000350       ??_ECMFCEditApp@@UEAAPEAXI@Z 0000000140001350 f i * CIL library *:* CIL module *
 0001:00000350       ??_GCMFCEditApp@@UEAAPEAXI@Z 0000000140001350 f i MFCEdit.obj
 0001:000003a0       ?InitInstance@CMFCEditApp@@UEAAHXZ 00000001400013a0 f   MFCEdit.obj
 0001:00000540       ?ExitInstance@CMFCEditApp@@UEAAHXZ 0000000140001540 f   MFCEdit.obj
 0001:00000560       ??_ECAboutDlg@@UEAAPEAXI@Z 0000000140001560 f i * CIL library *:* CIL module *
 0001:00000560       ??_GCAboutDlg@@UEAAPEAXI@Z 0000000140001560 f i MFCEdit.obj
 0001:000005e0       ??1CAboutDlg@@UEAA@XZ      00000001400015e0 f i MFCEdit.obj
 0001:00000620       ?GetMessageMap@CAboutDlg@@MEBAPEBUAFX_MSGMAP@@XZ 0000000140001620 f   MFCEdit.obj
 0001:00000630       ?OnAppAbout@CMFCEditApp@@QEAAXXZ 0000000140001630 f   MFCEdit.obj
 0001:000006e0       ?Create@CDialog@@UEAAHIPEAVCWnd@@@Z 00000001400016e0 f i MFCEdit.obj
 0001:000006f0       ?EndModalState@CWnd@@UEAAXXZ 00000001400016f0 f i MFCEdit.obj
 0001:00000700       ?BeginModalState@CWnd@@UEAAXXZ 0000000140001700 f i MFCEdit.obj
 0001:00000710       ?GetApplicationRecoveryPingInterval@CWinApp@@UEAAKXZ 0000000140001710 f i MFCEdit.obj
 0001:00000720       ?GetApplicationRecoveryParameter@CWinApp@@UEAAPEAXXZ 0000000140001720 f i MFCEdit.obj
 0001:00000720       ?GetApplicationRestartFlags@CWinApp@@UEAAKXZ 0000000140001720 f i MFCEdit.obj
 0001:00000720       ?_Get_deleter@_Ref_count_base@std@@UEBAPEAXAEBVtype_info@@@Z 0000000140001720 f i MFCEditView.obj
 0001:00000720       __scrt_exe_initialize_mta  0000000140001720 f i msvcrt:utility_desktop.obj
 0001:00000720       __scrt_initialize_winrt    0000000140001720 f i msvcrt:utility_desktop.obj
 0001:00000720       __scrt_stub_for_initialize_mta 0000000140001720 f i msvcrt:utility_desktop.obj
 0001:00000720       _get_startup_commit_mode   0000000140001720 f i msvcrt:commit_mode.obj
 0001:00000720       _get_startup_new_mode      0000000140001720 f i msvcrt:new_mode.obj
 0001:00000720       _get_startup_thread_locale_mode 0000000140001720 f i msvcrt:thread_locale.obj
 0001:00000720       _matherr                   0000000140001720 f i msvcrt:matherr.obj
 0001:00000730       ?RestoreAutosavedFilesAtRestart@CWinApp@@UEBAHXZ 0000000140001730 f i MFCEdit.obj
 0001:00000740       ?ReopenPreviousFilesAtRestart@CWinApp@@UEBAHXZ 0000000140001740 f i MFCEdit.obj
 0001:00000750       ?SupportsAutosaveAtInterval@CWinApp@@UEBAHXZ 0000000140001750 f i MFCEdit.obj
 0001:00000760       ?SupportsAutosaveAtRestart@CWinApp@@UEBAHXZ 0000000140001760 f i MFCEdit.obj
 0001:00000770       ?SupportsApplicationRecovery@CWinApp@@UEBAHXZ 0000000140001770 f i MFCEdit.obj
 0001:00000780       ?SupportsRestartManager@CWinApp@@UEBAHXZ 0000000140001780 f i MFCEdit.obj
 0001:00000790       ??_ECBrush@@UEAAPEAXI@Z    0000000140001790 f i * CIL library *:* CIL module *
 0001:00000790       ??_GCBrush@@UEAAPEAXI@Z    0000000140001790 f i MFCEdit.obj
 0001:000007f0       ??_ECGdiObject@@UEAAPEAXI@Z 00000001400017f0 f i * CIL library *:* CIL module *
 0001:000007f0       ??_GCGdiObject@@UEAAPEAXI@Z 00000001400017f0 f i MFCEdit.obj
 0001:00000840       ??1CGdiObject@@UEAA@XZ     0000000140001840 f i MFCEdit.obj
 0001:00000890       ?CreateObject@CMFCEditDoc@@SAPEAVCObject@@XZ 0000000140001890 f   MFCEditDoc.obj
 0001:000008e0       ?_GetBaseClass@CMFCEditDoc@@KAPEAUCRuntimeClass@@XZ 00000001400018e0 f   MFCEditDoc.obj
 0001:000008f0       ?GetRuntimeClass@CMFCEditDoc@@UEBAPEAUCRuntimeClass@@XZ 00000001400018f0 f   MFCEditDoc.obj
 0001:00000900       ?GetMessageMap@CMFCEditDoc@@MEBAPEBUAFX_MSGMAP@@XZ 0000000140001900 f   MFCEditDoc.obj
 0001:00000910       ??_ECMFCEditDoc@@UEAAPEAXI@Z 0000000140001910 f i * CIL library *:* CIL module *
 0001:00000910       ??_GCMFCEditDoc@@UEAAPEAXI@Z 0000000140001910 f i MFCEditDoc.obj
 0001:00000970       ?OnNewDocument@CMFCEditDoc@@UEAAHXZ 0000000140001970 f   MFCEditDoc.obj
 0001:00000990       ?SetModifiedFlag@CDocument@@UEAAXH@Z 0000000140001990 f i MFCEditDoc.obj
 0001:000009a0       ?IsModified@CDocument@@UEAAHXZ 00000001400019a0 f i MFCEditDoc.obj
 0001:000009b0       ??_ECDocumentAdapter@CDocument@@UEAAPEAXI@Z 00000001400019b0 f i * CIL library *:* CIL module *
 0001:000009b0       ??_GCDocumentAdapter@CDocument@@UEAAPEAXI@Z 00000001400019b0 f i MFCEditDoc.obj
 0001:00000a10       ??_EIDocument@ATL@@UEAAPEAXI@Z 0000000140001a10 f i * CIL library *:* CIL module *
 0001:00000a10       ??_GIDocument@ATL@@UEAAPEAXI@Z 0000000140001a10 f i MFCEditDoc.obj
 0001:00000a40       ?Release@IDocument@ATL@@UEAAJXZ 0000000140001a40 f i MFCEditDoc.obj
 0001:00000a80       ?LoadFromStream@CDocumentAdapter@CDocument@@UEAAJPEAUIStream@@K@Z 0000000140001a80 f i MFCEditDoc.obj
 0001:00000b00       ?InitializeSearchContent@CDocumentAdapter@CDocument@@UEAAXXZ 0000000140001b00 f i MFCEditDoc.obj
 0001:00000b20       ?BeginReadChunks@CDocumentAdapter@CDocument@@UEAAXXZ 0000000140001b20 f i MFCEditDoc.obj
 0001:00000b40       ?GetThumbnail@CDocumentAdapter@CDocument@@UEAAHIPEAPEAUHBITMAP__@@PEAW4WTS_ALPHATYPE@@@Z 0000000140001b40 f i MFCEditDoc.obj
 0001:00000b60       ?ClearChunkList@CDocumentAdapter@CDocument@@UEAAXXZ 0000000140001b60 f i MFCEditDoc.obj
 0001:00000b80       ?SetChunkValue@CDocumentAdapter@CDocument@@UEAAHPEAUIFilterChunkValue@ATL@@@Z 0000000140001b80 f i MFCEditDoc.obj
 0001:00000ba0       ?ReadNextChunkValue@CDocumentAdapter@CDocument@@UEAAHPEAPEAUIFilterChunkValue@ATL@@@Z 0000000140001ba0 f i MFCEditDoc.obj
 0001:00000bc0       ?RemoveChunk@CDocumentAdapter@CDocument@@UEAAXAEBU_GUID@@K@Z 0000000140001bc0 f i MFCEditDoc.obj
 0001:00000be0       ?FindChunk@CDocumentAdapter@CDocument@@UEAAPEAU__POSITION@@AEBU_GUID@@K@Z 0000000140001be0 f i MFCEditDoc.obj
 0001:00000c00       ?GetContainer@CDocumentAdapter@CDocument@@UEBAPEAXXZ 0000000140001c00 f i MFCEditDoc.obj
 0001:00000c10       ?AddRef@IDocument@ATL@@UEAAJXZ 0000000140001c10 f i MFCEditDoc.obj
 0001:00000c20       ?GetAdapter@CDocument@@UEAAPEAUIDocument@ATL@@XZ 0000000140001c20 f i MFCEditDoc.obj
 0001:00000cb0       ?AddRef@IVARIANTAbstract@@UEAAKXZ 0000000140001cb0 f i MFCEditView.obj
 0001:00000cc0       ?Release@IVARIANTAbstract@@UEAAKXZ 0000000140001cc0 f i MFCEditView.obj
 0001:00000cf0       ??_ECVARIANTTool@@UEAAPEAXI@Z 0000000140001cf0 f i * CIL library *:* CIL module *
 0001:00000cf0       ??_EIVARIANTAbstract@@UEAAPEAXI@Z 0000000140001cf0 f i * CIL library *:* CIL module *
 0001:00000cf0       ??_GCVARIANTTool@@UEAAPEAXI@Z 0000000140001cf0 f i MFCEditView.obj
 0001:00000cf0       ??_GIVARIANTAbstract@@UEAAPEAXI@Z 0000000140001cf0 f i MFCEditView.obj
 0001:00000d20       ??_E_Node_base@std@@UEAAPEAXI@Z 0000000140001d20 f i * CIL library *:* CIL module *
 0001:00000d20       ??_E_Node_endif@std@@UEAAPEAXI@Z 0000000140001d20 f i * CIL library *:* CIL module *
 0001:00000d20       ??_G_Node_base@std@@UEAAPEAXI@Z 0000000140001d20 f i MFCEditView.obj
 0001:00000d20       ??_G_Node_endif@std@@UEAAPEAXI@Z 0000000140001d20 f i MFCEditView.obj
 0001:00000d50       ??_E_Root_node@std@@UEAAPEAXI@Z 0000000140001d50 f i * CIL library *:* CIL module *
 0001:00000d50       ??_G_Root_node@std@@UEAAPEAXI@Z 0000000140001d50 f i MFCEditView.obj
 0001:00000d80       ??_E_Node_back@std@@UEAAPEAXI@Z 0000000140001d80 f i * CIL library *:* CIL module *
 0001:00000d80       ??_E_Node_capture@std@@UEAAPEAXI@Z 0000000140001d80 f i * CIL library *:* CIL module *
 0001:00000d80       ??_E_Node_end_group@std@@UEAAPEAXI@Z 0000000140001d80 f i * CIL library *:* CIL module *
 0001:00000d80       ??_E_Node_end_rep@std@@UEAAPEAXI@Z 0000000140001d80 f i * CIL library *:* CIL module *
 0001:00000d80       ??_G_Node_back@std@@UEAAPEAXI@Z 0000000140001d80 f i MFCEditView.obj
 0001:00000d80       ??_G_Node_capture@std@@UEAAPEAXI@Z 0000000140001d80 f i MFCEditView.obj
 0001:00000d80       ??_G_Node_end_group@std@@UEAAPEAXI@Z 0000000140001d80 f i MFCEditView.obj
 0001:00000d80       ??_G_Node_end_rep@std@@UEAAPEAXI@Z 0000000140001d80 f i MFCEditView.obj
 0001:00000db0       ??_E_Node_assert@std@@UEAAPEAXI@Z 0000000140001db0 f i * CIL library *:* CIL module *
 0001:00000db0       ??_G_Node_assert@std@@UEAAPEAXI@Z 0000000140001db0 f i MFCEditView.obj
 0001:00000e40       ??_E_Node_if@std@@UEAAPEAXI@Z 0000000140001e40 f i * CIL library *:* CIL module *
 0001:00000e40       ??_G_Node_if@std@@UEAAPEAXI@Z 0000000140001e40 f i MFCEditView.obj
 0001:00000f00       ??_E_Node_rep@std@@UEAAPEAXI@Z 0000000140001f00 f i * CIL library *:* CIL module *
 0001:00000f00       ??_G_Node_rep@std@@UEAAPEAXI@Z 0000000140001f00 f i MFCEditView.obj
 0001:00000f30       ?_Calculate_loop_simplicity@std@@YAXPEAV_Node_base@1@0PEAV_Node_rep@1@@Z 0000000140001f30 f i MFCEditView.obj
 0001:00001010       ?GetMessageMap@CSimpleEdit@@MEBAPEBUAFX_MSGMAP@@XZ 0000000140002010 f   MFCEditView.obj
 0001:00001020       ?OnKeyDown@CSimpleEdit@@IEAAXIII@Z 0000000140002020 f   MFCEditView.obj
 0001:000010a0       ?CreateObject@CMFCEditView@@SAPEAVCObject@@XZ 00000001400020a0 f   MFCEditView.obj
 0001:00001210       ?_GetBaseClass@CMFCEditView@@KAPEAUCRuntimeClass@@XZ 0000000140002210 f   MFCEditView.obj
 0001:00001220       ?GetRuntimeClass@CMFCEditView@@UEBAPEAUCRuntimeClass@@XZ 0000000140002220 f   MFCEditView.obj
 0001:00001230       ?GetMessageMap@CMFCEditView@@MEBAPEBUAFX_MSGMAP@@XZ 0000000140002230 f   MFCEditView.obj
 0001:00001240       ??_ECMFCEditView@@UEAAPEAXI@Z 0000000140002240 f i * CIL library *:* CIL module *
 0001:00001240       ??_GCMFCEditView@@UEAAPEAXI@Z 0000000140002240 f i MFCEditView.obj
 0001:000012e0       ??_ECSimpleEdit@@UEAAPEAXI@Z 00000001400022e0 f i * CIL library *:* CIL module *
 0001:000012e0       ??_GCSimpleEdit@@UEAAPEAXI@Z 00000001400022e0 f i MFCEditView.obj
 0001:00001330       ?DoDataExchange@CMFCEditView@@MEAAXPEAVCDataExchange@@@Z 0000000140002330 f   MFCEditView.obj
 0001:00001390       ?PreCreateWindow@CMFCEditView@@UEAAHAEAUtagCREATESTRUCTW@@@Z 0000000140002390 f   MFCEditView.obj
 0001:000013a0       ?PasteTemplate@@YAXAEAVCEdit@@@Z 00000001400023a0 f   MFCEditView.obj
 0001:00001640       ??_D?$basic_stringstream@_WU?$char_traits@_W@std@@V?$allocator@_W@2@@std@@QEAAXXZ 0000000140002640 f i MFCEditView.obj
 0001:000016a0       ?PreTranslateMessage@CMFCEditView@@MEAAHPEAUtagMSG@@@Z 00000001400026a0 f   MFCEditView.obj
 0001:00001900       ?OnInitialUpdate@CMFCEditView@@MEAAXXZ 0000000140002900 f   MFCEditView.obj
 0001:00001c00       ?SetFont@CMFCEditView@@QEAAXH@Z 0000000140002c00 f   MFCEditView.obj
 0001:00001da0       ?TypeId@CVARIANTTool@@UEBAHXZ 0000000140002da0 f i MFCEditView.obj
 0001:00001db0       ?inetGet@CVARIANTTool@@IEAA?AUtagVARIANT@@U2@@Z 0000000140002db0 f i MFCEditView.obj
 0001:000025f0       ?Value@CVARIANTTool@@IEAA?AUtagVARIANT@@U2@0@Z 00000001400035f0 f i MFCEditView.obj
 0001:00003040       ?OpenTextFile@CVARIANTTool@@IEAA?AUtagVARIANT@@U2@@Z 0000000140004040 f i MFCEditView.obj
 0001:00003490       ?QueryInterface@CVARIANTTool@@UEAAJAEBU_GUID@@PEAPEAX@Z 0000000140004490 f i MFCEditView.obj
 0001:00003490       ?QueryInterface@IVARIANTApplication@@UEAAJAEBU_GUID@@PEAPEAX@Z 0000000140004490 f i MFCEditView.obj
 0001:000034d0       ?Invoke@CVARIANTTool@@UEAA?AUtagVARIANT@@PEB_WPEAU2@H@Z 00000001400044d0 f i MFCEditView.obj
 0001:00003860       ??1?$CComPtr@UIXMLHTTPRequest@@@ATL@@QEAA@XZ 0000000140004860 f i MFCEditView.obj
 0001:00003880       ??1?$queue@V?$shared_ptr@Ust@?1??Value@CVARIANTTool@@IEAA?AUtagVARIANT@@U4@0@Z@@std@@V?$deque@V?$shared_ptr@Ust@?1??Value@CVARIANTTool@@IEAA?AUtagVARIANT@@U4@0@Z@@std@@V?$allocator@V?$shared_ptr@Ust@?1??Value@CVARIANTTool@@IEAA?AUtagVARIANT@@U4@0@Z@@std@@@2@@2@@std@@QEAA@XZ 0000000140004880 f i MFCEditView.obj
 0001:00003890       ??_D?$basic_stringstream@DU?$char_traits@D@std@@V?$allocator@D@2@@std@@QEAAXXZ 0000000140004890 f i MFCEditView.obj
 0001:000038f0       ?TypeId@IVARIANTApplication@@UEBAHXZ 00000001400048f0 f i MFCEditView.obj
 0001:00003900       ?Test@IVARIANTApplication@@QEAA?AUtagVARIANT@@U2@@Z 0000000140004900 f i MFCEditView.obj
 0001:00003cf0       ?Invoke@IVARIANTApplication@@UEAA?AUtagVARIANT@@PEB_WPEAU2@H@Z 0000000140004cf0 f i MFCEditView.obj
 0001:00004010       ??_EIVARIANTApplication@@UEAAPEAXI@Z 0000000140005010 f i * CIL library *:* CIL module *
 0001:00004010       ??_GIVARIANTApplication@@UEAAPEAXI@Z 0000000140005010 f i MFCEditView.obj
 0001:00004040       ?OnBnClickedBtnRun@CMFCEditView@@QEAAXXZ 0000000140005040 f   MFCEditView.obj
 0001:000045c0       ?OnBnClickedBtnSave@CMFCEditView@@QEAAXXZ 00000001400055c0 f   MFCEditView.obj
 0001:000046a0       ?OnSelchangeCombo1@CMFCEditView@@QEAAXXZ 00000001400056a0 f   MFCEditView.obj
 0001:00004930       ?OnBnClickedButton2@CMFCEditView@@QEAAXXZ 0000000140005930 f   MFCEditView.obj
 0001:00004960       ?OnBnClickedBtnClear@CMFCEditView@@QEAAXXZ 0000000140005960 f   MFCEditView.obj
 0001:000049f0       ?OnDestroy@CMFCEditView@@QEAAXXZ 00000001400059f0 f   MFCEditView.obj
 0001:00004b30       ?OnSelchangeCmbFont@CMFCEditView@@QEAAXXZ 0000000140005b30 f   MFCEditView.obj
 0001:00004c90       ?OnKillfocusEdInput@CMFCEditView@@QEAAXXZ 0000000140005c90 f   MFCEditView.obj
 0001:00004cc0       ?OnSetfocusEdInput@CMFCEditView@@QEAAXXZ 0000000140005cc0 f   MFCEditView.obj
 0001:00004d70       ?WriteUtf8File@@YA_NAEBV?$CStringT@_WV?$StrTraitMFC_DLL@_WV?$ChTraitsCRT@_W@ATL@@@@@ATL@@0@Z 0000000140005d70 f   MFCEditView.obj
 0001:00004f90       ?Split@@YA?AV?$vector@V?$basic_string@_WU?$char_traits@_W@std@@V?$allocator@_W@2@@std@@V?$allocator@V?$basic_string@_WU?$char_traits@_W@std@@V?$allocator@_W@2@@std@@@2@@std@@V?$basic_string@_WU?$char_traits@_W@std@@V?$allocator@_W@2@@2@0@Z 0000000140005f90 f   MFCEditView.obj
 0001:000054a0       ??1?$regex_token_iterator@V?$_String_const_iterator@V?$_String_val@U?$_Simple_types@_W@std@@@std@@@std@@_WV?$regex_traits@_W@2@@std@@QEAA@XZ 00000001400064a0 f i MFCEditView.obj
 0001:00005520       ??1?$match_results@V?$_String_const_iterator@V?$_String_val@U?$_Simple_types@_W@std@@@std@@@std@@V?$allocator@V?$sub_match@V?$_String_const_iterator@V?$_String_val@U?$_Simple_types@_W@std@@@std@@@std@@@std@@@2@@std@@QEAA@XZ 0000000140006520 f i MFCEditView.obj
 0001:00005530       ??1?$regex_iterator@V?$_String_const_iterator@V?$_String_val@U?$_Simple_types@_W@std@@@std@@@std@@_WV?$regex_traits@_W@2@@std@@QEAA@XZ 0000000140006530 f i MFCEditView.obj
 0001:00005540       ?getUnixTime@@YA_JH@Z      0000000140006540 f   MFCEditView.obj
 0001:000055d0       ?inetStockData_YahooFinanceUri@@YA?AV?$basic_string@_WU?$char_traits@_W@std@@V?$allocator@_W@2@@std@@V12@H@Z 00000001400065d0 f   MFCEditView.obj
 0001:000058a0       ??0?$regex_token_iterator@V?$_String_const_iterator@V?$_String_val@U?$_Simple_types@_W@std@@@std@@@std@@_WV?$regex_traits@_W@2@@std@@QEAA@V?$_String_const_iterator@V?$_String_val@U?$_Simple_types@_W@std@@@std@@@1@0AEBV?$basic_regex@_WV?$regex_traits@_W@std@@@1@HW4match_flag_type@regex_constants@1@@Z 00000001400068a0 f i MFCEditView.obj
 0001:00005a60       ??1?$basic_regex@_WV?$regex_traits@_W@std@@@std@@QEAA@XZ 0000000140006a60 f i MFCEditView.obj
 0001:00005b00       ??1?$vector@DV?$allocator@D@std@@@std@@QEAA@XZ 0000000140006b00 f i MFCEditView.obj
 0001:00005b60       ??1?$vector@V_variant_t@@V?$allocator@V_variant_t@@@std@@@std@@QEAA@XZ 0000000140006b60 f i MFCEditView.obj
 0001:00005c20       ??1?$vector@_WV?$allocator@_W@std@@@std@@QEAA@XZ 0000000140006c20 f i MFCEditView.obj
 0001:00005c80       ?seekpos@?$basic_stringbuf@DU?$char_traits@D@std@@V?$allocator@D@2@@std@@MEAA?AV?$fpos@U_Mbstatet@@@2@V32@H@Z 0000000140006c80 f i MFCEditView.obj
 0001:00005db0       ?seekoff@?$basic_stringbuf@DU?$char_traits@D@std@@V?$allocator@D@2@@std@@MEAA?AV?$fpos@U_Mbstatet@@@2@_JHH@Z 0000000140006db0 f i MFCEditView.obj
 0001:00005f40       ?underflow@?$basic_stringbuf@DU?$char_traits@D@std@@V?$allocator@D@2@@std@@MEAAHXZ 0000000140006f40 f i MFCEditView.obj
 0001:00005fc0       ?pbackfail@?$basic_stringbuf@DU?$char_traits@D@std@@V?$allocator@D@2@@std@@MEAAHH@Z 0000000140006fc0 f i MFCEditView.obj
 0001:00006020       ?overflow@?$basic_stringbuf@DU?$char_traits@D@std@@V?$allocator@D@2@@std@@MEAAHH@Z 0000000140007020 f i MFCEditView.obj
 0001:00006220       ??1?$basic_stringbuf@DU?$char_traits@D@std@@V?$allocator@D@2@@std@@UEAA@XZ 0000000140007220 f i MFCEditView.obj
 0001:000062e0       ??1?$deque@V?$shared_ptr@Ust@?1??Value@CVARIANTTool@@IEAA?AUtagVARIANT@@U4@0@Z@@std@@V?$allocator@V?$shared_ptr@Ust@?1??Value@CVARIANTTool@@IEAA?AUtagVARIANT@@U4@0@Z@@std@@@2@@std@@QEAA@XZ 00000001400072e0 f i MFCEditView.obj
 0001:00006400       ??1?$shared_ptr@Ust@?1??Value@CVARIANTTool@@IEAA?AUtagVARIANT@@U4@0@Z@@std@@QEAA@XZ 0000000140007400 f i MFCEditView.obj
 0001:00006450       ??1?$vector@V?$basic_string@_WU?$char_traits@_W@std@@V?$allocator@_W@2@@std@@V?$allocator@V?$basic_string@_WU?$char_traits@_W@std@@V?$allocator@_W@2@@std@@@2@@std@@QEAA@XZ 0000000140007450 f i MFCEditView.obj
 0001:000064c0       ?seekpos@?$basic_stringbuf@_WU?$char_traits@_W@std@@V?$allocator@_W@2@@std@@MEAA?AV?$fpos@U_Mbstatet@@@2@V32@H@Z 00000001400074c0 f i MFCEditView.obj
 0001:00006600       ?seekoff@?$basic_stringbuf@_WU?$char_traits@_W@std@@V?$allocator@_W@2@@std@@MEAA?AV?$fpos@U_Mbstatet@@@2@_JHH@Z 0000000140007600 f i MFCEditView.obj
 0001:000067c0       ?underflow@?$basic_stringbuf@_WU?$char_traits@_W@std@@V?$allocator@_W@2@@std@@MEAAGXZ 00000001400077c0 f i MFCEditView.obj
 0001:00006840       ?pbackfail@?$basic_stringbuf@_WU?$char_traits@_W@std@@V?$allocator@_W@2@@std@@MEAAGG@Z 0000000140007840 f i MFCEditView.obj
 0001:000068a0       ?overflow@?$basic_stringbuf@_WU?$char_traits@_W@std@@V?$allocator@_W@2@@std@@MEAAGG@Z 00000001400078a0 f i MFCEditView.obj
 0001:00006ae0       ??1?$basic_stringbuf@_WU?$char_traits@_W@std@@V?$allocator@_W@2@@std@@UEAA@XZ 0000000140007ae0 f i MFCEditView.obj
 0001:00006bb0       ?do_hash@?$collate@_W@std@@MEBAJPEB_W0@Z 0000000140007bb0 f i MFCEditView.obj
 0001:00006c00       ?do_transform@?$collate@_W@std@@MEBA?AV?$basic_string@_WU?$char_traits@_W@std@@V?$allocator@_W@2@@2@PEB_W0@Z 0000000140007c00 f i MFCEditView.obj
 0001:00006db0       ?do_compare@?$collate@_W@std@@MEBAHPEB_W000@Z 0000000140007db0 f i MFCEditView.obj
 0001:00006e00       ??0?$basic_string@_WU?$char_traits@_W@std@@V?$allocator@_W@2@@std@@QEAA@AEBV01@@Z 0000000140007e00 f i MFCEditView.obj
 0001:00006f30       ??1?$regex_traits@_W@std@@QEAA@XZ 0000000140007f30 f i MFCEditView.obj
 0001:00006f70       ??_E?$basic_stringbuf@DU?$char_traits@D@std@@V?$allocator@D@2@@std@@UEAAPEAXI@Z 0000000140007f70 f i * CIL library *:* CIL module *
 0001:00006f70       ??_G?$basic_stringbuf@DU?$char_traits@D@std@@V?$allocator@D@2@@std@@UEAAPEAXI@Z 0000000140007f70 f i MFCEditView.obj
 0001:00006fb0       ??_E?$basic_stringstream@DU?$char_traits@D@std@@V?$allocator@D@2@@std@@UEAAPEAXI@Z 0000000140007fb0 f i * CIL library *:* CIL module *
 0001:00006fb0       ??_G?$basic_stringstream@DU?$char_traits@D@std@@V?$allocator@D@2@@std@@UEAAPEAXI@Z 0000000140007fb0 f i MFCEditView.obj
 0001:00007050       ??_E?$basic_stringbuf@_WU?$char_traits@_W@std@@V?$allocator@_W@2@@std@@UEAAPEAXI@Z 0000000140008050 f i * CIL library *:* CIL module *
 0001:00007050       ??_G?$basic_stringbuf@_WU?$char_traits@_W@std@@V?$allocator@_W@2@@std@@UEAAPEAXI@Z 0000000140008050 f i MFCEditView.obj
 0001:00007090       ??_E?$basic_stringstream@_WU?$char_traits@_W@std@@V?$allocator@_W@2@@std@@UEAAPEAXI@Z 0000000140008090 f i * CIL library *:* CIL module *
 0001:00007090       ??_G?$basic_stringstream@_WU?$char_traits@_W@std@@V?$allocator@_W@2@@std@@UEAAPEAXI@Z 0000000140008090 f i MFCEditView.obj
 0001:00007130       ??_E?$collate@_W@std@@MEAAPEAXI@Z 0000000140008130 f i * CIL library *:* CIL module *
 0001:00007130       ??_G?$collate@_W@std@@MEAAPEAXI@Z 0000000140008130 f i MFCEditView.obj
 0001:00007180       ??1sentry@?$basic_ostream@_WU?$char_traits@_W@std@@@std@@QEAA@XZ 0000000140008180 f i MFCEditView.obj
 0001:000071c0       ?_Tidy@?$vector@V?$sub_match@V?$_String_const_iterator@V?$_String_val@U?$_Simple_types@_W@std@@@std@@@std@@@std@@V?$allocator@V?$sub_match@V?$_String_const_iterator@V?$_String_val@U?$_Simple_types@_W@std@@@std@@@std@@@std@@@2@@std@@AEAAXXZ 00000001400081c0 f i MFCEditView.obj
 0001:00007240       ??E?$regex_token_iterator@V?$_String_const_iterator@V?$_String_val@U?$_Simple_types@_W@std@@@std@@@std@@_WV?$regex_traits@_W@2@@std@@QEAAAEAV01@XZ 0000000140008240 f i MFCEditView.obj
 0001:00007530       ??8?$regex_token_iterator@V?$_String_const_iterator@V?$_String_val@U?$_Simple_types@_W@std@@@std@@@std@@_WV?$regex_traits@_W@2@@std@@QEBA_NAEBV01@@Z 0000000140008530 f i MFCEditView.obj
 0001:000076f0       ??0?$regex_token_iterator@V?$_String_const_iterator@V?$_String_val@U?$_Simple_types@_W@std@@@std@@@std@@_WV?$regex_traits@_W@2@@std@@QEAA@AEBV01@@Z 00000001400086f0 f i MFCEditView.obj
 0001:00007840       ?_Tidy@?$basic_regex@_WV?$regex_traits@_W@std@@@std@@AEAAXXZ 0000000140008840 f i MFCEditView.obj
 0001:000078c0       ??0?$regex_iterator@V?$_String_const_iterator@V?$_String_val@U?$_Simple_types@_W@std@@@std@@@std@@_WV?$regex_traits@_W@2@@std@@QEAA@AEBV01@@Z 00000001400088c0 f i MFCEditView.obj
 0001:00007a60       ??1_Sentry_base@?$basic_ostream@DU?$char_traits@D@std@@@std@@QEAA@XZ 0000000140008a60 f i MFCEditView.obj
 0001:00007a60       ??1_Sentry_base@?$basic_ostream@_WU?$char_traits@_W@std@@@std@@QEAA@XZ 0000000140008a60 f i MFCEditView.obj
 0001:00007a90       ?assign@?$basic_string@DU?$char_traits@D@std@@V?$allocator@D@2@@std@@QEAAAEAV12@QEBD_K@Z 0000000140008a90 f i MFCEditView.obj
 0001:00007bf0       ??$?6_WU?$char_traits@_W@std@@@std@@YAAEAV?$basic_ostream@_WU?$char_traits@_W@std@@@0@AEAV10@PEB_W@Z 0000000140008bf0 f i MFCEditView.obj
 0001:00007dd0       ??$?6_WU?$char_traits@_W@std@@@std@@YAAEAV?$basic_ostream@_WU?$char_traits@_W@std@@@0@AEAV10@_W@Z 0000000140008dd0 f i MFCEditView.obj
 0001:00007fa0       ??$?6U?$char_traits@D@std@@@std@@YAAEAV?$basic_ostream@DU?$char_traits@D@std@@@0@AEAV10@PEBD@Z 0000000140008fa0 f i MFCEditView.obj
 0001:00008180       ??$?0U?$char_traits@_W@std@@V?$allocator@_W@1@@?$basic_regex@_WV?$regex_traits@_W@std@@@std@@QEAA@AEBV?$basic_string@_WU?$char_traits@_W@std@@V?$allocator@_W@2@@1@W4syntax_option_type@regex_constants@1@@Z 0000000140009180 f i MFCEditView.obj
 0001:00008420       ??$_Regex_search2@V?$_String_const_iterator@V?$_String_val@U?$_Simple_types@_W@std@@@std@@@std@@V?$allocator@V?$sub_match@V?$_String_const_iterator@V?$_String_val@U?$_Simple_types@_W@std@@@std@@@std@@@std@@@2@_WV?$regex_traits@_W@2@V12@@std@@YA_NV?$_String_const_iterator@V?$_String_val@U?$_Simple_types@_W@std@@@std@@@0@0PEAV?$match_results@V?$_String_const_iterator@V?$_String_val@U?$_Simple_types@_W@std@@@std@@@std@@V?$allocator@V?$sub_match@V?$_String_const_iterator@V?$_String_val@U?$_Simple_types@_W@std@@@std@@@std@@@std@@@2@@0@AEBV?$basic_regex@_WV?$regex_traits@_W@std@@@0@W4match_flag_type@regex_constants@0@0@Z 0000000140009420 f i MFCEditView.obj
 0001:00008660       ??$_Destroy_range@V?$allocator@V?$basic_string@_WU?$char_traits@_W@std@@V?$allocator@_W@2@@std@@@std@@@std@@YAXPEAV?$basic_string@_WU?$char_traits@_W@std@@V?$allocator@_W@2@@0@QEAV10@AEAV?$allocator@V?$basic_string@_WU?$char_traits@_W@std@@V?$allocator@_W@2@@std@@@0@@Z 0000000140009660 f i MFCEditView.obj
 0001:000086f0       ??$_Reallocate_grow_by@V<lambda_a3050a43f3157934f354774ab3dd2e02>@@_K_W@?$basic_string@_WU?$char_traits@_W@std@@V?$allocator@_W@2@@std@@AEAAAEAV01@_KV<lambda_a3050a43f3157934f354774ab3dd2e02>@@_K_W@Z 00000001400096f0 f i MFCEditView.obj
 0001:000088a0       ??$_Reallocate_for@V<lambda_3fa8b2c8193a0f3144fc4b1b8f243931>@@PEB_W@?$basic_string@_WU?$char_traits@_W@std@@V?$allocator@_W@2@@std@@AEAAAEAV01@_KV<lambda_3fa8b2c8193a0f3144fc4b1b8f243931>@@PEB_W@Z 00000001400098a0 f i MFCEditView.obj
 0001:00008a00       ??1?$_Matcher@V?$_String_const_iterator@V?$_String_val@U?$_Simple_types@_W@std@@@std@@@std@@_WV?$regex_traits@_W@2@V12@@std@@QEAA@XZ 0000000140009a00 f i MFCEditView.obj
 0001:00008a80       ??1?$_Tgt_state_t@V?$_String_const_iterator@V?$_String_val@U?$_Simple_types@_W@std@@@std@@@std@@@std@@QEAA@XZ 0000000140009a80 f i MFCEditView.obj
 0001:00008b30       ??1?$_Bt_state_t@V?$_String_const_iterator@V?$_String_val@U?$_Simple_types@_W@std@@@std@@@std@@@std@@QEAA@XZ 0000000140009b30 f i MFCEditView.obj
 0001:00008b90       ??0?$_Matcher@V?$_String_const_iterator@V?$_String_val@U?$_Simple_types@_W@std@@@std@@@std@@_WV?$regex_traits@_W@2@V12@@std@@QEAA@V?$_String_const_iterator@V?$_String_val@U?$_Simple_types@_W@std@@@std@@@1@0AEBV?$regex_traits@_W@1@PEAV_Root_node@1@IW4syntax_option_type@regex_constants@1@W4match_flag_type@61@@Z 0000000140009b90 f i MFCEditView.obj
 0001:00008ce0       ??1sentry@?$basic_ostream@DU?$char_traits@D@std@@@std@@QEAA@XZ 0000000140009ce0 f i MFCEditView.obj
 0001:00008d20       ?_Delete_this@?$_Ref_count_obj2@Ust@?1??Value@CVARIANTTool@@IEAA?AUtagVARIANT@@U4@0@Z@@std@@EEAAXXZ 0000000140009d20 f i MFCEditView.obj
 0001:00008d40       ?_Destroy@?$_Ref_count_obj2@Ust@?1??Value@CVARIANTTool@@IEAA?AUtagVARIANT@@U4@0@Z@@std@@EEAAXXZ 0000000140009d40 f i MFCEditView.obj
 0001:00008db0       ?_Growmap@?$deque@V?$shared_ptr@Ust@?1??Value@CVARIANTTool@@IEAA?AUtagVARIANT@@U4@0@Z@@std@@V?$allocator@V?$shared_ptr@Ust@?1??Value@CVARIANTTool@@IEAA?AUtagVARIANT@@U4@0@Z@@std@@@2@@std@@AEAAX_K@Z 0000000140009db0 f i MFCEditView.obj
 0001:00008fa0       ?_Buy_nonzero@?$vector@HV?$allocator@H@std@@@std@@AEAAX_K@Z 0000000140009fa0 f i MFCEditView.obj
 0001:00009040       ??1?$vector@U_Loop_vals_t@std@@V?$allocator@U_Loop_vals_t@std@@@2@@std@@QEAA@XZ 000000014000a040 f i MFCEditView.obj
 0001:000090a0       ??1?$vector@_NV?$allocator@_N@std@@@std@@QEAA@XZ 000000014000a0a0 f i MFCEditView.obj
 0001:00009100       ??_E?$_Ref_count_obj2@Ust@?1??Value@CVARIANTTool@@IEAA?AUtagVARIANT@@U4@0@Z@@std@@UEAAPEAXI@Z 000000014000a100 f i * CIL library *:* CIL module *
 0001:00009100       ??_G?$_Ref_count_obj2@Ust@?1??Value@CVARIANTTool@@IEAA?AUtagVARIANT@@U4@0@Z@@std@@UEAAPEAXI@Z 000000014000a100 f i MFCEditView.obj
 0001:00009130       ?_Xlength@?$vector@DV?$allocator@D@std@@@std@@CAXXZ 000000014000a130 f i MFCEditView.obj
 0001:00009130       ?_Xlength@?$vector@HV?$allocator@H@std@@@std@@CAXXZ 000000014000a130 f i MFCEditView.obj
 0001:00009130       ?_Xlength@?$vector@IV?$allocator@I@std@@@std@@CAXXZ 000000014000a130 f i MFCEditView.obj
 0001:00009130       ?_Xlength@?$vector@U_Grp_t@?$_Tgt_state_t@V?$_String_const_iterator@V?$_String_val@U?$_Simple_types@_W@std@@@std@@@std@@@std@@V?$allocator@U_Grp_t@?$_Tgt_state_t@V?$_String_const_iterator@V?$_String_val@U?$_Simple_types@_W@std@@@std@@@std@@@std@@@3@@std@@CAXXZ 000000014000a130 f i MFCEditView.obj
 0001:00009130       ?_Xlength@?$vector@U_Loop_vals_t@std@@V?$allocator@U_Loop_vals_t@std@@@2@@std@@CAXXZ 000000014000a130 f i MFCEditView.obj
 0001:00009130       ?_Xlength@?$vector@V?$basic_string@_WU?$char_traits@_W@std@@V?$allocator@_W@2@@std@@V?$allocator@V?$basic_string@_WU?$char_traits@_W@std@@V?$allocator@_W@2@@std@@@2@@std@@CAXXZ 000000014000a130 f i MFCEditView.obj
 0001:00009130       ?_Xlength@?$vector@V?$sub_match@V?$_String_const_iterator@V?$_String_val@U?$_Simple_types@_W@std@@@std@@@std@@@std@@V?$allocator@V?$sub_match@V?$_String_const_iterator@V?$_String_val@U?$_Simple_types@_W@std@@@std@@@std@@@std@@@2@@std@@CAXXZ 000000014000a130 f i MFCEditView.obj
 0001:00009130       ?_Xlength@?$vector@V_variant_t@@V?$allocator@V_variant_t@@@std@@@std@@CAXXZ 000000014000a130 f i MFCEditView.obj
 0001:00009130       ?_Xlength@?$vector@_WV?$allocator@_W@std@@@std@@CAXXZ 000000014000a130 f i MFCEditView.obj
 0001:00009150       ?_Xlen@?$deque@V?$shared_ptr@Ust@?1??Value@CVARIANTTool@@IEAA?AUtagVARIANT@@U4@0@Z@@std@@V?$allocator@V?$shared_ptr@Ust@?1??Value@CVARIANTTool@@IEAA?AUtagVARIANT@@U4@0@Z@@std@@@2@@std@@CAXXZ 000000014000a150 f i MFCEditView.obj
 0001:00009170       ??$_Insert_string@_WU?$char_traits@_W@std@@_K@std@@YAAEAV?$basic_ostream@_WU?$char_traits@_W@std@@@0@AEAV10@QEB_W_K@Z 000000014000a170 f i MFCEditView.obj
 0001:00009340       ??$_Emplace_reallocate@AEBV_variant_t@@@?$vector@V_variant_t@@V?$allocator@V_variant_t@@@std@@@std@@AEAAPEAV_variant_t@@QEAV2@AEBV2@@Z 000000014000a340 f i MFCEditView.obj
 0001:000096b0       ??$_Emplace_reallocate@V?$basic_string@_WU?$char_traits@_W@std@@V?$allocator@_W@2@@std@@@?$vector@V?$basic_string@_WU?$char_traits@_W@std@@V?$allocator@_W@2@@std@@V?$allocator@V?$basic_string@_WU?$char_traits@_W@std@@V?$allocator@_W@2@@std@@@2@@std@@AEAAPEAV?$basic_string@_WU?$char_traits@_W@std@@V?$allocator@_W@2@@1@QEAV21@$$QEAV21@@Z 000000014000a6b0 f i MFCEditView.obj
 0001:00009990       ?_Skip@?$_Matcher@V?$_String_const_iterator@V?$_String_val@U?$_Simple_types@_W@std@@@std@@@std@@_WV?$regex_traits@_W@2@V12@@std@@QEAA?AV?$_String_const_iterator@V?$_String_val@U?$_Simple_types@_W@std@@@std@@@2@V32@0PEAV_Node_base@2@@Z 000000014000a990 f i MFCEditView.obj
 0001:00009d40       ??$_Match@V?$allocator@V?$sub_match@V?$_String_const_iterator@V?$_String_val@U?$_Simple_types@_W@std@@@std@@@std@@@std@@@std@@@?$_Matcher@V?$_String_const_iterator@V?$_String_val@U?$_Simple_types@_W@std@@@std@@@std@@_WV?$regex_traits@_W@2@V12@@std@@QEAA_NPEAV?$match_results@V?$_String_const_iterator@V?$_String_val@U?$_Simple_types@_W@std@@@std@@@std@@V?$allocator@V?$sub_match@V?$_String_const_iterator@V?$_String_val@U?$_Simple_types@_W@std@@@std@@@std@@@std@@@2@@1@_N@Z 000000014000ad40 f i MFCEditView.obj
 0001:00009f60       ??$use_facet@V?$collate@_W@std@@@std@@YAAEBV?$collate@_W@0@AEBVlocale@0@@Z 000000014000af60 f i MFCEditView.obj
 0001:0000a160       ??1?$_Parser@PEB_W_WV?$regex_traits@_W@std@@@std@@QEAA@XZ 000000014000b160 f i MFCEditView.obj
 0001:0000a1c0       ??1_Reallocation_guard@?$vector@V_variant_t@@V?$allocator@V_variant_t@@@std@@@std@@QEAA@XZ 000000014000b1c0 f i MFCEditView.obj
 0001:0000a250       ?_Resize@?$match_results@V?$_String_const_iterator@V?$_String_val@U?$_Simple_types@_W@std@@@std@@@std@@V?$allocator@V?$sub_match@V?$_String_const_iterator@V?$_String_val@U?$_Simple_types@_W@std@@@std@@@std@@@std@@@2@@std@@QEAAXI@Z 000000014000b250 f i MFCEditView.obj
 0001:0000a310       ?resize@?$vector@_NV?$allocator@_N@std@@@std@@QEAAX_K_N@Z 000000014000b310 f i MFCEditView.obj
 0001:0000a4b0       ?translate@?$_Regex_traits@_W@std@@QEBA_W_W@Z 000000014000b4b0 f i MFCEditView.obj
 0001:0000a560       ??_E?$_Node_class@_WV?$regex_traits@_W@std@@@std@@UEAAPEAXI@Z 000000014000b560 f i * CIL library *:* CIL module *
 0001:0000a560       ??_G?$_Node_class@_WV?$regex_traits@_W@std@@@std@@UEAAPEAXI@Z 000000014000b560 f i MFCEditView.obj
 0001:0000a670       ?erase@?$vector@_NV?$allocator@_N@std@@@std@@QEAA?AV?$_Vb_iterator@U?$_Wrap_alloc@V?$allocator@I@std@@@std@@@2@V?$_Vb_const_iterator@U?$_Wrap_alloc@V?$allocator@I@std@@@std@@@2@0@Z 000000014000b670 f i MFCEditView.obj
 0001:0000a8e0       ?_Insert_x@?$vector@_NV?$allocator@_N@std@@@std@@QEAA_KV?$_Vb_const_iterator@U?$_Wrap_alloc@V?$allocator@I@std@@@std@@@2@_K@Z 000000014000b8e0 f i MFCEditView.obj
 0001:0000ab60       ?_Xlen@?$vector@_NV?$allocator@_N@std@@@std@@SAXXZ 000000014000bb60 f i MFCEditView.obj
 0001:0000ab80       ?_Match_pat@?$_Matcher@V?$_String_const_iterator@V?$_String_val@U?$_Simple_types@_W@std@@@std@@@std@@_WV?$regex_traits@_W@2@V12@@std@@AEAA_NPEAV_Node_base@2@@Z 000000014000bb80 f i MFCEditView.obj
 0001:0000b340       ?_Compile@?$_Parser@PEB_W_WV?$regex_traits@_W@std@@@std@@QEAAPEAV_Root_node@2@XZ 000000014000c340 f i MFCEditView.obj
 0001:0000b550       ??$_Compare@V?$_String_const_iterator@V?$_String_val@U?$_Simple_types@_W@std@@@std@@@std@@PEB_WV?$regex_traits@_W@2@@std@@YA?AV?$_String_const_iterator@V?$_String_val@U?$_Simple_types@_W@std@@@std@@@0@V10@0PEB_W1AEBV?$regex_traits@_W@0@W4syntax_option_type@regex_constants@0@@Z 000000014000c550 f i MFCEditView.obj
 0001:0000b6e0       ??$_Lookup_equiv@_WV?$regex_traits@_W@std@@@std@@YA_NGPEBU?$_Sequence@_W@0@AEBV?$regex_traits@_W@0@@Z 000000014000c6e0 f i MFCEditView.obj
 0001:0000baa0       ??$_Resize_reallocate@U_Value_init_tag@std@@@?$vector@U_Loop_vals_t@std@@V?$allocator@U_Loop_vals_t@std@@@2@@std@@AEAAX_KAEBU_Value_init_tag@1@@Z 000000014000caa0 f i MFCEditView.obj
 0001:0000bc10       ??$fill_n@V?$_Vb_iterator@U?$_Wrap_alloc@V?$allocator@I@std@@@std@@@std@@_K_N@std@@YA?AV?$_Vb_iterator@U?$_Wrap_alloc@V?$allocator@I@std@@@std@@@0@V10@_KAEB_N@Z 000000014000cc10 f i MFCEditView.obj
 0001:0000bd60       ??0?$_Bt_state_t@V?$_String_const_iterator@V?$_String_val@U?$_Simple_types@_W@std@@@std@@@std@@@std@@QEAA@AEBV01@@Z 000000014000cd60 f i MFCEditView.obj
 0001:0000be10       ??1?$_Uninitialized_backout_al@V?$allocator@V_variant_t@@@std@@@std@@QEAA@XZ 000000014000ce10 f i MFCEditView.obj
 0001:0000be50       ??1?$_Tidy_guard@V?$_Builder@PEB_W_WV?$regex_traits@_W@std@@@std@@@std@@QEAA@XZ 000000014000ce50 f i MFCEditView.obj
 0001:0000beb0       ?_Do_if@?$_Matcher@V?$_String_const_iterator@V?$_String_val@U?$_Simple_types@_W@std@@@std@@@std@@_WV?$regex_traits@_W@2@V12@@std@@AEAA_NPEAV_Node_if@2@@Z 000000014000ceb0 f i MFCEditView.obj
 0001:0000c260       ?_Do_rep@?$_Matcher@V?$_String_const_iterator@V?$_String_val@U?$_Simple_types@_W@std@@@std@@@std@@_WV?$regex_traits@_W@2@V12@@std@@AEAA_NPEAV_Node_rep@2@_NH@Z 000000014000d260 f i MFCEditView.obj
 0001:0000c520       ?_Do_class@?$_Matcher@V?$_String_const_iterator@V?$_String_val@U?$_Simple_types@_W@std@@@std@@@std@@_WV?$regex_traits@_W@2@V12@@std@@AEAA_NPEAV_Node_base@2@@Z 000000014000d520 f i MFCEditView.obj
 0001:0000c780       ?_Error@?$_Parser@PEB_W_WV?$regex_traits@_W@std@@@std@@AEAAXW4error_type@regex_constants@2@@Z 000000014000d780 f i MFCEditView.obj
 0001:0000c790       ?_Trans@?$_Parser@PEB_W_WV?$regex_traits@_W@std@@@std@@AEAAXXZ 000000014000d790 f i MFCEditView.obj
 0001:0000ca70       ?_Disjunction@?$_Parser@PEB_W_WV?$regex_traits@_W@std@@@std@@AEAAXXZ 000000014000da70 f i MFCEditView.obj
 0001:0000ccc0       ?_End_group@?$_Builder@PEB_W_WV?$regex_traits@_W@std@@@std@@QEAAXPEAV_Node_base@2@@Z 000000014000dcc0 f i MFCEditView.obj
 0001:0000cd70       ??$_Compare@V?$_String_const_iterator@V?$_String_val@U?$_Simple_types@_W@std@@@std@@@std@@V12@V?$regex_traits@_W@2@@std@@YA?AV?$_String_const_iterator@V?$_String_val@U?$_Simple_types@_W@std@@@std@@@0@V10@000AEBV?$regex_traits@_W@0@W4syntax_option_type@regex_constants@0@@Z 000000014000dd70 f i MFCEditView.obj
 0001:0000cf30       ??$transform_primary@V?$_String_iterator@V?$_String_val@U?$_Simple_types@_W@std@@@std@@@std@@@?$_Regex_traits@_W@std@@QEBA?AV?$basic_string@_WU?$char_traits@_W@std@@V?$allocator@_W@2@@1@V?$_String_iterator@V?$_String_val@U?$_Simple_types@_W@std@@@std@@@1@0@Z 000000014000df30 f i MFCEditView.obj
 0001:0000d140       ??$_Resize_reallocate@U_Value_init_tag@std@@@?$vector@U_Grp_t@?$_Tgt_state_t@V?$_String_const_iterator@V?$_String_val@U?$_Simple_types@_W@std@@@std@@@std@@@std@@V?$allocator@U_Grp_t@?$_Tgt_state_t@V?$_String_const_iterator@V?$_String_val@U?$_Simple_types@_W@std@@@std@@@std@@@std@@@3@@std@@AEAAX_KAEBU_Value_init_tag@1@@Z 000000014000e140 f i MFCEditView.obj
 0001:0000d2d0       ??$_Resize_reallocate@U_Value_init_tag@std@@@?$vector@V?$sub_match@V?$_String_const_iterator@V?$_String_val@U?$_Simple_types@_W@std@@@std@@@std@@@std@@V?$allocator@V?$sub_match@V?$_String_const_iterator@V?$_String_val@U?$_Simple_types@_W@std@@@std@@@std@@@std@@@2@@std@@AEAAX_KAEBU_Value_init_tag@1@@Z 000000014000e2d0 f i MFCEditView.obj
 0001:0000d4b0       ??$_Resize_reallocate@I@?$vector@IV?$allocator@I@std@@@std@@AEAAX_KAEBI@Z 000000014000e4b0 f i MFCEditView.obj
 0001:0000d640       ??$_Assign_counted_range@PEAU_Grp_t@?$_Tgt_state_t@V?$_String_const_iterator@V?$_String_val@U?$_Simple_types@_W@std@@@std@@@std@@@std@@@?$vector@U_Grp_t@?$_Tgt_state_t@V?$_String_const_iterator@V?$_String_val@U?$_Simple_types@_W@std@@@std@@@std@@@std@@V?$allocator@U_Grp_t@?$_Tgt_state_t@V?$_String_const_iterator@V?$_String_val@U?$_Simple_types@_W@std@@@std@@@std@@@std@@@3@@std@@AEAAXPEAU_Grp_t@?$_Tgt_state_t@V?$_String_const_iterator@V?$_String_val@U?$_Simple_types@_W@std@@@std@@@std@@@1@_K@Z 000000014000e640 f i MFCEditView.obj
 0001:0000d790       ??$_Assign_counted_range@PEAI@?$vector@IV?$allocator@I@std@@@std@@AEAAXPEAI_K@Z 000000014000e790 f i MFCEditView.obj
 0001:0000d8d0       ??0?$_Tgt_state_t@V?$_String_const_iterator@V?$_String_val@U?$_Simple_types@_W@std@@@std@@@std@@@std@@QEAA@AEBV01@@Z 000000014000e8d0 f i MFCEditView.obj
 0001:0000d9c0       ?_Buy_raw@?$vector@U_Grp_t@?$_Tgt_state_t@V?$_String_const_iterator@V?$_String_val@U?$_Simple_types@_W@std@@@std@@@std@@@std@@V?$allocator@U_Grp_t@?$_Tgt_state_t@V?$_String_const_iterator@V?$_String_val@U?$_Simple_types@_W@std@@@std@@@std@@@std@@@3@@std@@AEAAX_K@Z 000000014000e9c0 f i MFCEditView.obj
 0001:0000da50       ?_Buy_raw@?$vector@IV?$allocator@I@std@@@std@@AEAAX_K@Z 000000014000ea50 f i MFCEditView.obj
 0001:0000dae0       ?_Do_rep0@?$_Matcher@V?$_String_const_iterator@V?$_String_val@U?$_Simple_types@_W@std@@@std@@@std@@_WV?$regex_traits@_W@2@V12@@std@@AEAA_NPEAV_Node_rep@2@_N@Z 000000014000eae0 f i MFCEditView.obj
 0001:0000df10       ?_Alternative@?$_Parser@PEB_W_WV?$regex_traits@_W@std@@@std@@AEAA_NXZ 000000014000ef10 f i MFCEditView.obj
 0001:0000e590       ?_New_node@?$_Builder@PEB_W_WV?$regex_traits@_W@std@@@std@@AEAAPEAV_Node_base@2@W4_Node_type@2@@Z 000000014000f590 f i MFCEditView.obj
 0001:0000e620       ??$_Copy_vbool@V?$_Vb_iterator@U?$_Wrap_alloc@V?$allocator@I@std@@@std@@@std@@V12@@std@@YA?AV?$_Vb_iterator@U?$_Wrap_alloc@V?$allocator@I@std@@@std@@@0@V10@00@Z 000000014000f620 f i MFCEditView.obj
 0001:0000ea90       ?_CharacterClass@?$_Parser@PEB_W_WV?$regex_traits@_W@std@@@std@@AEAAXXZ 000000014000fa90 f i MFCEditView.obj
 0001:0000ec30       ?_AtomEscape@?$_Parser@PEB_W_WV?$regex_traits@_W@std@@@std@@AEAAXXZ 000000014000fc30 f i MFCEditView.obj
 0001:0000edb0       ?_Wrapped_disjunction@?$_Parser@PEB_W_WV?$regex_traits@_W@std@@@std@@AEAA_NXZ 000000014000fdb0 f i MFCEditView.obj
 0001:0000ef80       ?_Quantifier@?$_Parser@PEB_W_WV?$regex_traits@_W@std@@@std@@AEAAXXZ 000000014000ff80 f i MFCEditView.obj
 0001:0000f210       ?_Add_char@?$_Builder@PEB_W_WV?$regex_traits@_W@std@@@std@@QEAAX_W@Z 0000000140010210 f i MFCEditView.obj
 0001:0000f330       ?_DecimalDigits@?$_Parser@PEB_W_WV?$regex_traits@_W@std@@@std@@AEAA_NW4error_type@regex_constants@2@@Z 0000000140010330 f i MFCEditView.obj
 0001:0000f440       ?_CharacterClassEscape@?$_Parser@PEB_W_WV?$regex_traits@_W@std@@@std@@AEAA_N_N@Z 0000000140010440 f i MFCEditView.obj
 0001:0000f550       ?_ClassRanges@?$_Parser@PEB_W_WV?$regex_traits@_W@std@@@std@@AEAAXXZ 0000000140010550 f i MFCEditView.obj
 0001:0000f820       ?_CharacterEscape@?$_Parser@PEB_W_WV?$regex_traits@_W@std@@@std@@AEAA_NXZ 0000000140010820 f i MFCEditView.obj
 0001:0000fe40       ?_Do_capture_group@?$_Parser@PEB_W_WV?$regex_traits@_W@std@@@std@@AEAAXXZ 0000000140010e40 f i MFCEditView.obj
 0001:0000ffc0       ?_Do_assert_group@?$_Parser@PEB_W_WV?$regex_traits@_W@std@@@std@@AEAAX_N@Z 0000000140010fc0 f i MFCEditView.obj
 0001:000100d0       ?_Add_class@?$_Builder@PEB_W_WV?$regex_traits@_W@std@@@std@@QEAAXXZ 00000001400110d0 f i MFCEditView.obj
 0001:00010170       ?_Add_rep@?$_Builder@PEB_W_WV?$regex_traits@_W@std@@@std@@QEAAXHH_N@Z 0000000140011170 f i MFCEditView.obj
 0001:00010490       ??_E?$_Node_str@_W@std@@UEAAPEAXI@Z 0000000140011490 f i * CIL library *:* CIL module *
 0001:00010490       ??_G?$_Node_str@_W@std@@UEAAPEAXI@Z 0000000140011490 f i MFCEditView.obj
 0001:000104e0       ?_HexDigits@?$_Parser@PEB_W_WV?$regex_traits@_W@std@@@std@@AEAAXH@Z 00000001400114e0 f i MFCEditView.obj
 0001:00010600       ?_ClassAtom@?$_Parser@PEB_W_WV?$regex_traits@_W@std@@@std@@AEAA?AW4_Prs_ret@2@XZ 0000000140011600 f i MFCEditView.obj
 0001:000109f0       ?_Add_range@?$_Builder@PEB_W_WV?$regex_traits@_W@std@@@std@@QEAAX_W0@Z 00000001400119f0 f i MFCEditView.obj
 0001:00010ba0       ?_Add_named_class@?$_Builder@PEB_W_WV?$regex_traits@_W@std@@@std@@QEAAXF_N@Z 0000000140011ba0 f i MFCEditView.obj
 0001:00010c80       ?_Add_char_to_array@?$_Builder@PEB_W_WV?$regex_traits@_W@std@@@std@@AEAAX_W@Z 0000000140011c80 f i MFCEditView.obj
 0001:00010d40       ??$lookup_classname@PEB_W@?$_Regex_traits@_W@std@@QEBAFPEB_W0_N@Z 0000000140011d40 f i MFCEditView.obj
 0001:00010eb0       ??1?$unique_ptr@V_Facet_base@std@@U?$default_delete@V_Facet_base@std@@@2@@std@@QEAA@XZ 0000000140011eb0 f i MFCEditView.obj
 0001:00010eb0       ??1?$unique_ptr@V_Node_assert@std@@U?$default_delete@V_Node_assert@std@@@2@@std@@QEAA@XZ 0000000140011eb0 f i MFCEditView.obj
 0001:00010ed0       ?_Do_ex_class@?$_Parser@PEB_W_WV?$regex_traits@_W@std@@@std@@AEAAXW4_Meta_type@2@@Z 0000000140011ed0 f i MFCEditView.obj
 0001:00011130       ?_Add_equiv@?$_Builder@PEB_W_WV?$regex_traits@_W@std@@@std@@QEAAXPEB_W0_J@Z 0000000140012130 f i MFCEditView.obj
 0001:00011330       ?_Char_to_elts@?$_Builder@PEB_W_WV?$regex_traits@_W@std@@@std@@AEAAXPEB_W0_JPEAPEAU?$_Sequence@_W@2@@Z 0000000140012330 f i MFCEditView.obj
 0001:00011420       ??$transform_primary@PEA_W@?$_Regex_traits@_W@std@@QEBA?AV?$basic_string@_WU?$char_traits@_W@std@@V?$allocator@_W@2@@1@PEA_W0@Z 0000000140012420 f i MFCEditView.obj
 0001:00011420       ??$transform_primary@PEB_W@?$_Regex_traits@_W@std@@QEBA?AV?$basic_string@_WU?$char_traits@_W@std@@V?$allocator@_W@2@@1@PEB_W0@Z 0000000140012420 f i MFCEditView.obj
 0001:00011614       ??_E?$basic_stringstream@_WU?$char_traits@_W@std@@V?$allocator@_W@2@@std@@$4PPPPPPPM@A@EAAPEAXI@Z 0000000140012614 f i MFCEditView.obj
 0001:00011620       ??_E?$basic_stringstream@DU?$char_traits@D@std@@V?$allocator@D@2@@std@@$4PPPPPPPM@A@EAAPEAXI@Z 0000000140012620 f i MFCEditView.obj
 0001:00011630       ?accHitTest@CFormView@@UEAAJJJPEAUtagVARIANT@@@Z 0000000140012630 f i MFCEditView.obj
 0001:00011640       ?accLocation@CFormView@@UEAAJPEAJ000UtagVARIANT@@@Z 0000000140012640 f i MFCEditView.obj
 0001:00011690       ?get_accName@CFormView@@UEAAJUtagVARIANT@@PEAPEA_W@Z 0000000140012690 f i MFCEditView.obj
 0001:000116c0       ?get_accChild@CFormView@@UEAAJUtagVARIANT@@PEAPEAUIDispatch@@@Z 00000001400126c0 f i MFCEditView.obj
 0001:000116f0       ?get_accChildCount@CFormView@@UEAAJPEAJ@Z 00000001400126f0 f i MFCEditView.obj
 0001:00011710       ?name@locale@std@@QEBA?AV?$basic_string@DU?$char_traits@D@std@@V?$allocator@D@2@@2@XZ 0000000140012710 f i MFCEditView.obj
 0001:00011940       ??$_Get_index@$0A@@id@locale@std@@QEAA_KXZ 0000000140012940 f i MFCEditView.obj
 0001:000119c0       ??0bad_cast@std@@QEAA@XZ   00000001400129c0 f i MFCEditView.obj
 0001:000119f0       ??1bad_array_new_length@std@@UEAA@XZ 00000001400129f0 f i MFCEditView.obj
 0001:000119f0       ??1bad_cast@std@@UEAA@XZ   00000001400129f0 f i MFCEditView.obj
 0001:00011a10       ??_Ebad_alloc@std@@UEAAPEAXI@Z 0000000140012a10 f i * CIL library *:* CIL module *
 0001:00011a10       ??_Ebad_array_new_length@std@@UEAAPEAXI@Z 0000000140012a10 f i * CIL library *:* CIL module *
 0001:00011a10       ??_Ebad_cast@std@@UEAAPEAXI@Z 0000000140012a10 f i * CIL library *:* CIL module *
 0001:00011a10       ??_Eexception@std@@UEAAPEAXI@Z 0000000140012a10 f i * CIL library *:* CIL module *
 0001:00011a10       ??_Gbad_alloc@std@@UEAAPEAXI@Z 0000000140012a10 f i MFCEditView.obj
 0001:00011a10       ??_Gbad_array_new_length@std@@UEAAPEAXI@Z 0000000140012a10 f i MFCEditView.obj
 0001:00011a10       ??_Gbad_cast@std@@UEAAPEAXI@Z 0000000140012a10 f i MFCEditView.obj
 0001:00011a10       ??_Gexception@std@@UEAAPEAXI@Z 0000000140012a10 f i MFCEditView.obj
 0001:00011a60       ??0bad_cast@std@@QEAA@AEBV01@@Z 0000000140012a60 f i MFCEditView.obj
 0001:00011aa0       ?_Throw_bad_cast@std@@YAXXZ 0000000140012aa0 f i MFCEditView.obj
 0001:00011ac0       ??1locale@std@@QEAA@XZ     0000000140012ac0 f i MFCEditView.obj
 0001:00011b00       ??HATL@@YA?AV?$CStringT@_WV?$StrTraitMFC_DLL@_WV?$ChTraitsCRT@_W@ATL@@@@@0@PEB_WAEBV10@@Z 0000000140012b00 f i MFCEditView.obj
 0001:00011b70       ??1CWaitCursor@@QEAA@XZ    0000000140012b70 f i MFCEditView.obj
 0001:00011bc0       ??1?$basic_string@DU?$char_traits@D@std@@V?$allocator@D@2@@std@@QEAA@XZ 0000000140012bc0 f i MFCEditView.obj
 0001:00011c20       ??4?$basic_string@_WU?$char_traits@_W@std@@V?$allocator@_W@2@@std@@QEAAAEAV01@$$QEAV01@@Z 0000000140012c20 f i MFCEditView.obj
 0001:00011cc0       ??1_variant_t@@QEAA@XZ     0000000140012cc0 f i MFCEditView.obj
 0001:00011cd0       ?_Free@_bstr_t@@AEAAXXZ    0000000140012cd0 f i MFCEditView.obj
 0001:00011d40       ??1_bstr_t@@QEAA@XZ        0000000140012d40 f i MFCEditView.obj
 0001:00011d50       ??1CFont@@UEAA@XZ          0000000140012d50 f i MFCEditView.obj
 0001:00011d60       ??_ECFont@@UEAAPEAXI@Z     0000000140012d60 f i * CIL library *:* CIL module *
 0001:00011d60       ??_GCFont@@UEAAPEAXI@Z     0000000140012d60 f i MFCEditView.obj
 0001:00011dc0       ??HATL@@YA?AV?$CStringT@_WV?$StrTraitMFC_DLL@_WV?$ChTraitsCRT@_W@ATL@@@@@0@AEBV10@PEB_W@Z 0000000140012dc0 f i MFCEditView.obj
 0001:00011e30       ??1?$basic_string@_WU?$char_traits@_W@std@@V?$allocator@_W@2@@std@@QEAA@XZ 0000000140012e30 f i MFCEditView.obj
 0001:00011ea0       ?_Xlen_string@std@@YAXXZ   0000000140012ea0 f i MFCEditView.obj
 0001:00011ec0       ??0bad_array_new_length@std@@QEAA@XZ 0000000140012ec0 f i MFCEditView.obj
 0001:00011ef0       ??0bad_array_new_length@std@@QEAA@AEBV01@@Z 0000000140012ef0 f i MFCEditView.obj
 0001:00011f30       ??0bad_alloc@std@@QEAA@AEBV01@@Z 0000000140012f30 f i MFCEditView.obj
 0001:00011f70       ??0exception@std@@QEAA@AEBV01@@Z 0000000140012f70 f i MFCEditView.obj
 0001:00011fb0       ?_Throw_bad_array_new_length@std@@YAXXZ 0000000140012fb0 f i MFCEditView.obj
 0001:00011fd0       ??$_Construct@$00PEB_W@?$basic_string@_WU?$char_traits@_W@std@@V?$allocator@_W@2@@std@@AEAAXQEB_W_K@Z 0000000140012fd0 f i MFCEditView.obj
 0001:00012100       ??0?$basic_string@_WU?$char_traits@_W@std@@V?$allocator@_W@2@@std@@QEAA@QEB_W@Z 0000000140013100 f i MFCEditView.obj
 0001:00012140       ??_ECComboBox@@UEAAPEAXI@Z 0000000140013140 f i * CIL library *:* CIL module *
 0001:00012140       ??_GCComboBox@@UEAAPEAXI@Z 0000000140013140 f i MFCEditView.obj
 0001:00012190       ?what@exception@std@@UEBAPEBDXZ 0000000140013190 f i MFCEditView.obj
 0001:000121b0       ?_AtlInitializeCriticalSectionEx@ATL@@YAHPEAU_RTL_CRITICAL_SECTION@@KK@Z 00000001400131b0 f i pch.obj
 0001:000121b7       ??3@YAXPEAX@Z              00000001400131b7 f   mfc140u:mfc140u.dll
 0001:000121bd       ?GetThisMessageMap@CFrameWnd@@KAPEBUAFX_MSGMAP@@XZ 00000001400131bd f   mfc140u:mfc140u.dll
 0001:000121c3       ?OnCmdMsg@CFrameWnd@@UEAAHIHPEAXPEAUAFX_CMDHANDLERINFO@@@Z 00000001400131c3 f   mfc140u:mfc140u.dll
 0001:000121c9       ?OnFinalRelease@CWnd@@UEAAXXZ 00000001400131c9 f   mfc140u:mfc140u.dll
 0001:000121cf       ?IsInvokeAllowed@CCmdTarget@@UEAAHJ@Z 00000001400131cf f   mfc140u:mfc140u.dll
 0001:000121d5       ?GetDispatchIID@CCmdTarget@@UEAAHPEAU_GUID@@@Z 00000001400131d5 f   mfc140u:mfc140u.dll
 0001:000121db       ?GetTypeInfoCount@CCmdTarget@@UEAAIXZ 00000001400131db f   mfc140u:mfc140u.dll
 0001:000121e1       ?GetTypeLibCache@CCmdTarget@@UEAAPEAVCTypeLibCache@@XZ 00000001400131e1 f   mfc140u:mfc140u.dll
 0001:000121e7       ?GetTypeLib@CCmdTarget@@UEAAJKPEAPEAUITypeLib@@@Z 00000001400131e7 f   mfc140u:mfc140u.dll
 0001:000121ed       ?GetCommandMap@CCmdTarget@@MEBAPEBUAFX_OLECMDMAP@@XZ 00000001400131ed f   mfc140u:mfc140u.dll
 0001:000121f3       ?GetDispatchMap@CCmdTarget@@MEBAPEBUAFX_DISPMAP@@XZ 00000001400131f3 f   mfc140u:mfc140u.dll
 0001:000121f9       ?GetConnectionMap@CCmdTarget@@MEBAPEBUAFX_CONNECTIONMAP@@XZ 00000001400131f9 f   mfc140u:mfc140u.dll
 0001:000121ff       ?GetInterfaceMap@CWnd@@MEBAPEBUAFX_INTERFACEMAP@@XZ 00000001400131ff f   mfc140u:mfc140u.dll
 0001:00012205       ?GetEventSinkMap@CCmdTarget@@MEBAPEBUAFX_EVENTSINKMAP@@XZ 0000000140013205 f   mfc140u:mfc140u.dll
 0001:0001220b       ?OnCreateAggregates@CCmdTarget@@UEAAHXZ 000000014001320b f   mfc140u:mfc140u.dll
 0001:00012211       ?GetInterfaceHook@CCmdTarget@@UEAAPEAUIUnknown@@PEBX@Z 0000000140013211 f   mfc140u:mfc140u.dll
 0001:00012217       ?GetExtraConnectionPoints@CCmdTarget@@MEAAHPEAVCPtrArray@@@Z 0000000140013217 f   mfc140u:mfc140u.dll
 0001:0001221d       ?GetConnectionHook@CCmdTarget@@MEAAPEAUIConnectionPoint@@AEBU_GUID@@@Z 000000014001321d f   mfc140u:mfc140u.dll
 0001:00012223       ?PreSubclassWindow@CWnd@@UEAAXXZ 0000000140013223 f   mfc140u:mfc140u.dll
 0001:00012229       ?Create@CWnd@@UEAAHPEB_W0KAEBUtagRECT@@PEAV1@IPEAUCCreateContext@@@Z 0000000140013229 f   mfc140u:mfc140u.dll
 0001:0001222f       ?CreateEx@CWnd@@UEAAHKPEB_W0KAEBUtagRECT@@PEAV1@IPEAX@Z 000000014001322f f   mfc140u:mfc140u.dll
 0001:00012235       ?CreateEx@CWnd@@UEAAHKPEB_W0KHHHHPEAUHWND__@@PEAUHMENU__@@PEAX@Z 0000000140013235 f   mfc140u:mfc140u.dll
 0001:0001223b       ?DestroyWindow@CWnd@@UEAAHXZ 000000014001323b f   mfc140u:mfc140u.dll
 0001:00012241       ?CalcWindowRect@CWnd@@UEAAXPEAUtagRECT@@I@Z 0000000140013241 f   mfc140u:mfc140u.dll
 0001:00012247       ?GetMenu@CFrameWnd@@UEBAPEAVCMenu@@XZ 0000000140013247 f   mfc140u:mfc140u.dll
 0001:0001224d       ?SetMenu@CFrameWnd@@UEAAHPEAVCMenu@@@Z 000000014001324d f   mfc140u:mfc140u.dll
 0001:00012253       ?OnToolHitTest@CWnd@@UEBA_JVCPoint@@PEAUtagTOOLINFOW@@@Z 0000000140013253 f   mfc140u:mfc140u.dll
 0001:00012259       ?GetScrollBarCtrl@CWnd@@UEBAPEAVCScrollBar@@H@Z 0000000140013259 f   mfc140u:mfc140u.dll
 0001:0001225f       ?WinHelpW@CWnd@@UEAAX_KI@Z 000000014001325f f   mfc140u:mfc140u.dll
 0001:00012265       ?HtmlHelpW@CWnd@@UEAAX_KI@Z 0000000140013265 f   mfc140u:mfc140u.dll
 0001:0001226b       ?WinHelpInternal@CWnd@@UEAAX_KI@Z 000000014001326b f   mfc140u:mfc140u.dll
 0001:00012271       ?ContinueModal@CWnd@@UEAAHXZ 0000000140013271 f   mfc140u:mfc140u.dll
 0001:00012277       ?EndModalLoop@CWnd@@UEAAXH@Z 0000000140013277 f   mfc140u:mfc140u.dll
 0001:0001227d       ?OnDrawIconicThumbnailOrLivePreview@CWnd@@UEAAXAEAVCDC@@VCRect@@VCSize@@HAEAH@Z 000000014001327d f   mfc140u:mfc140u.dll
 0001:00012283       ?EnsureStdObj@CWnd@@UEAAJXZ 0000000140013283 f   mfc140u:mfc140u.dll
 0001:00012289       ?get_accParent@CWnd@@UEAAJPEAPEAUIDispatch@@@Z 0000000140013289 f   mfc140u:mfc140u.dll
 0001:0001228f       ?get_accChildCount@CWnd@@UEAAJPEAJ@Z 000000014001328f f   mfc140u:mfc140u.dll
 0001:00012295       ?get_accChild@CWnd@@UEAAJUtagVARIANT@@PEAPEAUIDispatch@@@Z 0000000140013295 f   mfc140u:mfc140u.dll
 0001:0001229b       ?get_accName@CWnd@@UEAAJUtagVARIANT@@PEAPEA_W@Z 000000014001329b f   mfc140u:mfc140u.dll
 0001:000122a1       ?get_accValue@CWnd@@UEAAJUtagVARIANT@@PEAPEA_W@Z 00000001400132a1 f   mfc140u:mfc140u.dll
 0001:000122a7       ?get_accDescription@CWnd@@UEAAJUtagVARIANT@@PEAPEA_W@Z 00000001400132a7 f   mfc140u:mfc140u.dll
 0001:000122ad       ?get_accRole@CWnd@@UEAAJUtagVARIANT@@PEAU2@@Z 00000001400132ad f   mfc140u:mfc140u.dll
 0001:000122b3       ?get_accState@CWnd@@UEAAJUtagVARIANT@@PEAU2@@Z 00000001400132b3 f   mfc140u:mfc140u.dll
 0001:000122b9       ?get_accHelp@CWnd@@UEAAJUtagVARIANT@@PEAPEA_W@Z 00000001400132b9 f   mfc140u:mfc140u.dll
 0001:000122bf       ?get_accHelpTopic@CWnd@@UEAAJPEAPEA_WUtagVARIANT@@PEAJ@Z 00000001400132bf f   mfc140u:mfc140u.dll
 0001:000122c5       ?get_accKeyboardShortcut@CWnd@@UEAAJUtagVARIANT@@PEAPEA_W@Z 00000001400132c5 f   mfc140u:mfc140u.dll
 0001:000122cb       ?get_accFocus@CWnd@@UEAAJPEAUtagVARIANT@@@Z 00000001400132cb f   mfc140u:mfc140u.dll
 0001:000122d1       ?get_accSelection@CWnd@@UEAAJPEAUtagVARIANT@@@Z 00000001400132d1 f   mfc140u:mfc140u.dll
 0001:000122d7       ?get_accDefaultAction@CWnd@@UEAAJUtagVARIANT@@PEAPEA_W@Z 00000001400132d7 f   mfc140u:mfc140u.dll
 0001:000122dd       ?accSelect@CWnd@@UEAAJJUtagVARIANT@@@Z 00000001400132dd f   mfc140u:mfc140u.dll
 0001:000122e3       ?accLocation@CWnd@@UEAAJPEAJ000UtagVARIANT@@@Z 00000001400132e3 f   mfc140u:mfc140u.dll
 0001:000122e9       ?accNavigate@CWnd@@UEAAJJUtagVARIANT@@PEAU2@@Z 00000001400132e9 f   mfc140u:mfc140u.dll
 0001:000122ef       ?accHitTest@CWnd@@UEAAJJJPEAUtagVARIANT@@@Z 00000001400132ef f   mfc140u:mfc140u.dll
 0001:000122f5       ?accDoDefaultAction@CWnd@@UEAAJUtagVARIANT@@@Z 00000001400132f5 f   mfc140u:mfc140u.dll
 0001:000122fb       ?put_accName@CWnd@@UEAAJUtagVARIANT@@PEA_W@Z 00000001400132fb f   mfc140u:mfc140u.dll
 0001:00012301       ?put_accValue@CWnd@@UEAAJUtagVARIANT@@PEA_W@Z 0000000140013301 f   mfc140u:mfc140u.dll
 0001:00012307       ?SetProxy@CWnd@@UEAAJPEAUIAccessibleProxy@@@Z 0000000140013307 f   mfc140u:mfc140u.dll
 0001:0001230d       ?CreateAccessibleProxy@CWnd@@UEAAJ_K_JPEA_J@Z 000000014001330d f   mfc140u:mfc140u.dll
 0001:00012313       ?OnCommand@CFrameWnd@@MEAAH_K_J@Z 0000000140013313 f   mfc140u:mfc140u.dll
 0001:00012319       ?OnNotify@CWnd@@MEAAH_K_JPEA_J@Z 0000000140013319 f   mfc140u:mfc140u.dll
 0001:0001231f       ?GetSuperWndProcAddr@CWnd@@MEAAPEAP6A_JPEAUHWND__@@I_K_J@ZXZ 000000014001331f f   mfc140u:mfc140u.dll
 0001:00012325       ?BeginModalState@CFrameWnd@@UEAAXXZ 0000000140013325 f   mfc140u:mfc140u.dll
 0001:0001232b       ?EndModalState@CFrameWnd@@UEAAXXZ 000000014001332b f   mfc140u:mfc140u.dll
 0001:00012331       ?PreTranslateMessage@CFrameWnd@@UEAAHPEAUtagMSG@@@Z 0000000140013331 f   mfc140u:mfc140u.dll
 0001:00012337       ?OnAmbientProperty@CWnd@@UEAAHPEAVCOleControlSite@@JPEAUtagVARIANT@@@Z 0000000140013337 f   mfc140u:mfc140u.dll
 0001:0001233d       ?WindowProc@CWnd@@MEAA_JI_K_J@Z 000000014001333d f   mfc140u:mfc140u.dll
 0001:00012343       ?OnWndMsg@CWnd@@MEAAHI_K_JPEA_J@Z 0000000140013343 f   mfc140u:mfc140u.dll
 0001:00012349       ?DefWindowProcW@CWnd@@MEAA_JI_K_J@Z 0000000140013349 f   mfc140u:mfc140u.dll
 0001:0001234f       ?PostNcDestroy@CFrameWnd@@MEAAXXZ 000000014001334f f   mfc140u:mfc140u.dll
 0001:00012355       ?OnChildNotify@CWnd@@MEAAHI_K_JPEA_J@Z 0000000140013355 f   mfc140u:mfc140u.dll
 0001:0001235b       ?OnTouchInputs@CWnd@@MEAAHIPEAUtagTOUCHINPUT@@@Z 000000014001335b f   mfc140u:mfc140u.dll
 0001:00012361       ?OnTouchInput@CWnd@@MEAAHVCPoint@@HHPEAUtagTOUCHINPUT@@@Z 0000000140013361 f   mfc140u:mfc140u.dll
 0001:00012367       ?GetGestureStatus@CWnd@@MEAAKVCPoint@@@Z 0000000140013367 f   mfc140u:mfc140u.dll
 0001:0001236d       ?OnGestureZoom@CWnd@@MEAAHVCPoint@@J@Z 000000014001336d f   mfc140u:mfc140u.dll
 0001:00012373       ?OnGesturePan@CWnd@@MEAAHVCPoint@@0@Z 0000000140013373 f   mfc140u:mfc140u.dll
 0001:00012379       ?OnGestureRotate@CWnd@@MEAAHVCPoint@@N@Z 0000000140013379 f   mfc140u:mfc140u.dll
 0001:0001237f       ?OnGestureTwoFingerTap@CWnd@@MEAAHVCPoint@@@Z 000000014001337f f   mfc140u:mfc140u.dll
 0001:00012385       ?OnGesturePressAndTap@CWnd@@MEAAHVCPoint@@J@Z 0000000140013385 f   mfc140u:mfc140u.dll
 0001:0001238b       ?ResizeDynamicLayout@CWnd@@MEAAXXZ 000000014001338b f   mfc140u:mfc140u.dll
 0001:00012391       ?CheckAutoCenter@CWnd@@UEAAHXZ 0000000140013391 f   mfc140u:mfc140u.dll
 0001:00012397       ?IsFrameWnd@CFrameWnd@@UEBAHXZ 0000000140013397 f   mfc140u:mfc140u.dll
 0001:0001239d       ?CreateControlContainer@CWnd@@MEAAHPEAPEAVCOleControlContainer@@@Z 000000014001339d f   mfc140u:mfc140u.dll
 0001:000123a3       ?CreateControlSite@CWnd@@MEAAHPEAVCOleControlContainer@@PEAPEAVCOleControlSite@@IAEBU_GUID@@@Z 00000001400133a3 f   mfc140u:mfc140u.dll
 0001:000123a9       ?SetOccDialogInfo@CWnd@@MEAAHPEAU_AFX_OCC_DIALOG_INFO@@@Z 00000001400133a9 f   mfc140u:mfc140u.dll
 0001:000123af       ?GetOccDialogInfo@CWnd@@MEAAPEAU_AFX_OCC_DIALOG_INFO@@XZ 00000001400133af f   mfc140u:mfc140u.dll
 0001:000123b5       ?Create@CFrameWnd@@UEAAHPEB_W0KAEBUtagRECT@@PEAVCWnd@@0KPEAUCCreateContext@@@Z 00000001400133b5 f   mfc140u:mfc140u.dll
 0001:000123bb       ?LoadFrame@CFrameWnd@@UEAAHIKPEAVCWnd@@PEAUCCreateContext@@@Z 00000001400133bb f   mfc140u:mfc140u.dll
 0001:000123c1       ?GetActiveDocument@CFrameWnd@@UEAAPEAVCDocument@@XZ 00000001400133c1 f   mfc140u:mfc140u.dll
 0001:000123c7       ?GetActiveFrame@CFrameWnd@@UEAAPEAV1@XZ 00000001400133c7 f   mfc140u:mfc140u.dll
 0001:000123cd       ?GetMessageString@CFrameWnd@@UEBAXIAEAV?$CStringT@_WV?$StrTraitMFC_DLL@_WV?$ChTraitsCRT@_W@ATL@@@@@ATL@@@Z 00000001400133cd f   mfc140u:mfc140u.dll
 0001:000123d3       ?RecalcLayout@CFrameWnd@@UEAAXH@Z 00000001400133d3 f   mfc140u:mfc140u.dll
 0001:000123d9       ?ActivateFrame@CFrameWnd@@UEAAXH@Z 00000001400133d9 f   mfc140u:mfc140u.dll
 0001:000123df       ?SetMenuBarVisibility@CFrameWnd@@UEAAXK@Z 00000001400133df f   mfc140u:mfc140u.dll
 0001:000123e5       ?GetMenuBarVisibility@CFrameWnd@@UEBAKXZ 00000001400133e5 f   mfc140u:mfc140u.dll
 0001:000123eb       ?SetMenuBarState@CFrameWnd@@UEAAHK@Z 00000001400133eb f   mfc140u:mfc140u.dll
 0001:000123f1       ?GetMenuBarState@CFrameWnd@@UEBAKXZ 00000001400133f1 f   mfc140u:mfc140u.dll
 0001:000123f7       ?OnSetPreviewMode@CFrameWnd@@UEAAXHPEAUCPrintPreviewState@@@Z 00000001400133f7 f   mfc140u:mfc140u.dll
 0001:000123fd       ?GetMessageBar@CFrameWnd@@UEAAPEAVCWnd@@XZ 00000001400133fd f   mfc140u:mfc140u.dll
 0001:00012403       ?NegotiateBorderSpace@CFrameWnd@@UEAAHIPEAUtagRECT@@@Z 0000000140013403 f   mfc140u:mfc140u.dll
 0001:00012409       ?OnCreateClient@CFrameWnd@@MEAAHPEAUtagCREATESTRUCTW@@PEAUCCreateContext@@@Z 0000000140013409 f   mfc140u:mfc140u.dll
 0001:0001240f       ?OnUpdateFrameTitle@CFrameWnd@@UEAAXH@Z 000000014001340f f   mfc140u:mfc140u.dll
 0001:00012415       ?OnUpdateFrameMenu@CFrameWnd@@UEAAXPEAUHMENU__@@@Z 0000000140013415 f   mfc140u:mfc140u.dll
 0001:0001241b       ?GetDefaultAccelerator@CFrameWnd@@UEAAPEAUHACCEL__@@XZ 000000014001341b f   mfc140u:mfc140u.dll
 0001:00012421       ?DelayUpdateFrameMenu@CFrameWnd@@UEAAXPEAUHMENU__@@@Z 0000000140013421 f   mfc140u:mfc140u.dll
 0001:00012427       ?ExitHelpMode@CFrameWnd@@UEAAXXZ 0000000140013427 f   mfc140u:mfc140u.dll
 0001:0001242d       ?OnShowMenuBar@CFrameWnd@@MEAAXXZ 000000014001342d f   mfc140u:mfc140u.dll
 0001:00012433       ?OnHideMenuBar@CFrameWnd@@MEAAXXZ 0000000140013433 f   mfc140u:mfc140u.dll
 0001:00012439       ?OnFileNew@CWinApp@@IEAAXXZ 0000000140013439 f   mfc140u:mfc140u.dll
 0001:0001243f       ?OnFileOpen@CWinApp@@IEAAXXZ 000000014001343f f   mfc140u:mfc140u.dll
 0001:00012445       ?OnFilePrintSetup@CWinApp@@IEAAXXZ 0000000140013445 f   mfc140u:mfc140u.dll
 0001:0001244b       ?GetThisMessageMap@CWinApp@@KAPEBUAFX_MSGMAP@@XZ 000000014001344b f   mfc140u:mfc140u.dll
 0001:00012451       ??1CCommandLineInfo@@UEAA@XZ 0000000140013451 f   mfc140u:mfc140u.dll
 0001:00012457       ??1?$CStringT@_WV?$StrTraitMFC_DLL@_WV?$ChTraitsCRT@_W@ATL@@@@@ATL@@QEAA@XZ 0000000140013457 f   mfc140u:mfc140u.dll
 0001:0001245d       ?GetRuntimeClass@CGdiObject@@UEBAPEAUCRuntimeClass@@XZ 000000014001345d f   mfc140u:mfc140u.dll
 0001:00012463       ?GetRuntimeClass@CBrush@@UEBAPEAUCRuntimeClass@@XZ 0000000140013463 f   mfc140u:mfc140u.dll
 0001:00012469       ?GetThisMessageMap@CDialogEx@@KAPEBUAFX_MSGMAP@@XZ 0000000140013469 f   mfc140u:mfc140u.dll
 0001:0001246f       ?DoModal@CDialog@@UEAA_JXZ 000000014001346f f   mfc140u:mfc140u.dll
 0001:00012475       ?GetRuntimeClass@CWinApp@@UEBAPEAUCRuntimeClass@@XZ 0000000140013475 f   mfc140u:mfc140u.dll
 0001:0001247b       ?OnCmdMsg@CCmdTarget@@UEAAHIHPEAXPEAUAFX_CMDHANDLERINFO@@@Z 000000014001347b f   mfc140u:mfc140u.dll
 0001:00012481       ?OnFinalRelease@CCmdTarget@@UEAAXXZ 0000000140013481 f   mfc140u:mfc140u.dll
 0001:00012487       ?GetInterfaceMap@CCmdTarget@@MEBAPEBUAFX_INTERFACEMAP@@XZ 0000000140013487 f   mfc140u:mfc140u.dll
 0001:0001248d       ?Run@CWinApp@@UEAAHXZ      000000014001348d f   mfc140u:mfc140u.dll
 0001:00012493       ?PreTranslateMessage@CWinThread@@UEAAHPEAUtagMSG@@@Z 0000000140013493 f   mfc140u:mfc140u.dll
 0001:00012499       ?PumpMessage@CWinThread@@UEAAHXZ 0000000140013499 f   mfc140u:mfc140u.dll
 0001:0001249f       ?OnIdle@CWinApp@@UEAAHJ@Z  000000014001349f f   mfc140u:mfc140u.dll
 0001:000124a5       ?IsIdleMessage@CWinThread@@UEAAHPEAUtagMSG@@@Z 00000001400134a5 f   mfc140u:mfc140u.dll
 0001:000124ab       ?ProcessWndProcException@CWinApp@@UEAA_JPEAVCException@@PEBUtagMSG@@@Z 00000001400134ab f   mfc140u:mfc140u.dll
 0001:000124b1       ?ProcessMessageFilter@CWinThread@@UEAAHHPEAUtagMSG@@@Z 00000001400134b1 f   mfc140u:mfc140u.dll
 0001:000124b7       ?GetMainWnd@CWinThread@@UEAAPEAVCWnd@@XZ 00000001400134b7 f   mfc140u:mfc140u.dll
 0001:000124bd       ?Delete@CWinThread@@UEAAXXZ 00000001400134bd f   mfc140u:mfc140u.dll
 0001:000124c3       ?GetProfileIntW@CWinApp@@UEAAIPEB_W0H@Z 00000001400134c3 f   mfc140u:mfc140u.dll
 0001:000124c9       ?WriteProfileInt@CWinApp@@UEAAHPEB_W0H@Z 00000001400134c9 f   mfc140u:mfc140u.dll
 0001:000124cf       ?GetProfileStringW@CWinApp@@UEAA?AV?$CStringT@_WV?$StrTraitMFC_DLL@_WV?$ChTraitsCRT@_W@ATL@@@@@ATL@@PEB_W00@Z 00000001400134cf f   mfc140u:mfc140u.dll
 0001:000124d5       ?WriteProfileStringW@CWinApp@@UEAAHPEB_W00@Z 00000001400134d5 f   mfc140u:mfc140u.dll
 0001:000124db       ?GetProfileBinary@CWinApp@@UEAAHPEB_W0PEAPEAEPEAI@Z 00000001400134db f   mfc140u:mfc140u.dll
 0001:000124e1       ?WriteProfileBinary@CWinApp@@UEAAHPEB_W0PEAEI@Z 00000001400134e1 f   mfc140u:mfc140u.dll
 0001:000124e7       ?InitLibId@CWinApp@@UEAAXXZ 00000001400134e7 f   mfc140u:mfc140u.dll
 0001:000124ed       ?Register@CWinApp@@UEAAHXZ 00000001400134ed f   mfc140u:mfc140u.dll
 0001:000124f3       ?Unregister@CWinApp@@UEAAHXZ 00000001400134f3 f   mfc140u:mfc140u.dll
 0001:000124f9       ?OpenDocumentFile@CWinApp@@UEAAPEAVCDocument@@PEB_WH@Z 00000001400134f9 f   mfc140u:mfc140u.dll
 0001:000124ff       ?OpenDocumentFile@CWinApp@@UEAAPEAVCDocument@@PEB_W@Z 00000001400134ff f   mfc140u:mfc140u.dll
 0001:00012505       ?AddToRecentFileList@CWinApp@@UEAAXPEB_W@Z 0000000140013505 f   mfc140u:mfc140u.dll
 0001:0001250b       ?InitApplication@CWinApp@@UEAAHXZ 000000014001350b f   mfc140u:mfc140u.dll
 0001:00012511       ?SaveAllModified@CWinApp@@UEAAHXZ 0000000140013511 f   mfc140u:mfc140u.dll
 0001:00012517       ?DoMessageBox@CWinApp@@UEAAHPEB_WII@Z 0000000140013517 f   mfc140u:mfc140u.dll
 0001:0001251d       ?DoWaitCursor@CWinApp@@UEAAXH@Z 000000014001351d f   mfc140u:mfc140u.dll
 0001:00012523       ?OnDDECommand@CWinApp@@UEAAHPEA_W@Z 0000000140013523 f   mfc140u:mfc140u.dll
 0001:00012529       ?WinHelpW@CWinApp@@UEAAX_KI@Z 0000000140013529 f   mfc140u:mfc140u.dll
 0001:0001252f       ?HtmlHelpW@CWinApp@@UEAAX_KI@Z 000000014001352f f   mfc140u:mfc140u.dll
 0001:00012535       ?WinHelpInternal@CWinApp@@UEAAX_KI@Z 0000000140013535 f   mfc140u:mfc140u.dll
 0001:0001253b       ?RegisterWithRestartManager@CWinApp@@UEAAJPEB_WKP6AKPEAX@Z1KK@Z 000000014001353b f   mfc140u:mfc140u.dll
 0001:00012541       ?RegisterWithRestartManager@CWinApp@@UEAAJHAEBV?$CStringT@_WV?$StrTraitMFC_DLL@_WV?$ChTraitsCRT@_W@ATL@@@@@ATL@@@Z 0000000140013541 f   mfc140u:mfc140u.dll
 0001:00012547       ?ApplicationRecoveryCallback@CWinApp@@UEAAKPEAX@Z 0000000140013547 f   mfc140u:mfc140u.dll
 0001:0001254d       ?GetDataRecoveryHandler@CWinApp@@UEAAPEAVCDataRecoveryHandler@@XZ 000000014001354d f   mfc140u:mfc140u.dll
 0001:00012553       ?IsTaskbarInteractionEnabled@CWinApp@@UEAAHXZ 0000000140013553 f   mfc140u:mfc140u.dll
 0001:00012559       ?RestartInstance@CWinApp@@UEAAHXZ 0000000140013559 f   mfc140u:mfc140u.dll
 0001:0001255f       ?LoadAppLangResourceDLL@CWinApp@@UEAAPEAUHINSTANCE__@@XZ 000000014001355f f   mfc140u:mfc140u.dll
 0001:00012565       ?LoadSysPolicies@CWinApp@@UEAAHXZ 0000000140013565 f   mfc140u:mfc140u.dll
 0001:0001256b       ?GetRuntimeClass@CDialogEx@@UEBAPEAUCRuntimeClass@@XZ 000000014001356b f   mfc140u:mfc140u.dll
 0001:00012571       ?OnCmdMsg@CDialog@@UEAAHIHPEAXPEAUAFX_CMDHANDLERINFO@@@Z 0000000140013571 f   mfc140u:mfc140u.dll
 0001:00012577       ?PreCreateWindow@CWnd@@UEAAHAEAUtagCREATESTRUCTW@@@Z 0000000140013577 f   mfc140u:mfc140u.dll
 0001:0001257d       ?GetMenu@CWnd@@UEBAPEAVCMenu@@XZ 000000014001357d f   mfc140u:mfc140u.dll
 0001:00012583       ?SetMenu@CWnd@@UEAAHPEAVCMenu@@@Z 0000000140013583 f   mfc140u:mfc140u.dll
 0001:00012589       ?OnCommand@CDialogEx@@MEAAH_K_J@Z 0000000140013589 f   mfc140u:mfc140u.dll
 0001:0001258f       ?PreTranslateMessage@CDialogEx@@UEAAHPEAUtagMSG@@@Z 000000014001358f f   mfc140u:mfc140u.dll
 0001:00012595       ?PostNcDestroy@CWnd@@MEAAXXZ 0000000140013595 f   mfc140u:mfc140u.dll
 0001:0001259b       ?CheckAutoCenter@CDialog@@UEAAHXZ 000000014001359b f   mfc140u:mfc140u.dll
 0001:000125a1       ?IsFrameWnd@CWnd@@UEBAHXZ  00000001400135a1 f   mfc140u:mfc140u.dll
 0001:000125a7       ?SetOccDialogInfo@CDialog@@MEAAHPEAU_AFX_OCC_DIALOG_INFO@@@Z 00000001400135a7 f   mfc140u:mfc140u.dll
 0001:000125ad       ?GetOccDialogInfo@CDialog@@MEAAPEAU_AFX_OCC_DIALOG_INFO@@XZ 00000001400135ad f   mfc140u:mfc140u.dll
 0001:000125b3       ?Create@CDialog@@UEAAHPEB_WPEAVCWnd@@@Z 00000001400135b3 f   mfc140u:mfc140u.dll
 0001:000125b9       ?CreateIndirect@CDialog@@UEAAHPEAXPEAVCWnd@@@Z 00000001400135b9 f   mfc140u:mfc140u.dll
 0001:000125bf       ?CreateIndirect@CDialog@@UEAAHPEBUDLGTEMPLATE@@PEAVCWnd@@PEAX@Z 00000001400135bf f   mfc140u:mfc140u.dll
 0001:000125c5       ?OnInitDialog@CDialog@@UEAAHXZ 00000001400135c5 f   mfc140u:mfc140u.dll
 0001:000125cb       ?OnSetFont@CDialog@@UEAAXPEAVCFont@@@Z 00000001400135cb f   mfc140u:mfc140u.dll
 0001:000125d1       ?OnOK@CDialog@@MEAAXXZ     00000001400135d1 f   mfc140u:mfc140u.dll
 0001:000125d7       ?OnCancel@CDialog@@MEAAXXZ 00000001400135d7 f   mfc140u:mfc140u.dll
 0001:000125dd       ?PreInitDialog@CDialog@@MEAAXXZ 00000001400135dd f   mfc140u:mfc140u.dll
 0001:000125e3       ?GetThisMessageMap@CDocument@@KAPEBUAFX_MSGMAP@@XZ 00000001400135e3 f   mfc140u:mfc140u.dll
 0001:000125e9       ?OnCmdMsg@CDocument@@UEAAHIHPEAXPEAUAFX_CMDHANDLERINFO@@@Z 00000001400135e9 f   mfc140u:mfc140u.dll
 0001:000125ef       ?OnFinalRelease@CDocument@@UEAAXXZ 00000001400135ef f   mfc140u:mfc140u.dll
 0001:000125f5       ?GetInterfaceMap@CDocument@@MEBAPEBUAFX_INTERFACEMAP@@XZ 00000001400135f5 f   mfc140u:mfc140u.dll
 0001:000125fb       ?FindChunk@CDocument@@UEAAPEAU__POSITION@@AEBU_GUID@@K@Z 00000001400135fb f   mfc140u:mfc140u.dll
 0001:00012601       ?RemoveChunk@CDocument@@UEAAXAEBU_GUID@@K@Z 0000000140013601 f   mfc140u:mfc140u.dll
 0001:00012607       ?ReadNextChunkValue@CDocument@@UEAAHPEAPEAUIFilterChunkValue@ATL@@@Z 0000000140013607 f   mfc140u:mfc140u.dll
 0001:0001260d       ?SetChunkValue@CDocument@@UEAAHPEAUIFilterChunkValue@ATL@@@Z 000000014001360d f   mfc140u:mfc140u.dll
 0001:00012613       ?ClearChunkList@CDocument@@UEAAXXZ 0000000140013613 f   mfc140u:mfc140u.dll
 0001:00012619       ?GetThumbnail@CDocument@@UEAAHIPEAPEAUHBITMAP__@@PEAW4WTS_ALPHATYPE@@@Z 0000000140013619 f   mfc140u:mfc140u.dll
 0001:0001261f       ?BeginReadChunks@CDocument@@UEAAXXZ 000000014001361f f   mfc140u:mfc140u.dll
 0001:00012625       ?LoadDocumentFromStream@CDocument@@UEAAJPEAUIStream@@K@Z 0000000140013625 f   mfc140u:mfc140u.dll
 0001:0001262b       ?SetTitle@CDocument@@UEAAXPEB_W@Z 000000014001362b f   mfc140u:mfc140u.dll
 0001:00012631       ?SetPathName@CDocument@@UEAAXPEB_WH@Z 0000000140013631 f   mfc140u:mfc140u.dll
 0001:00012637       ?ClearPathName@CDocument@@UEAAXXZ 0000000140013637 f   mfc140u:mfc140u.dll
 0001:0001263d       ?GetFirstViewPosition@CDocument@@UEBAPEAU__POSITION@@XZ 000000014001363d f   mfc140u:mfc140u.dll
 0001:00012643       ?GetNextView@CDocument@@UEBAPEAVCView@@AEAPEAU__POSITION@@@Z 0000000140013643 f   mfc140u:mfc140u.dll
 0001:00012649       ?OnChangedViewList@CDocument@@UEAAXXZ 0000000140013649 f   mfc140u:mfc140u.dll
 0001:0001264f       ?DeleteContents@CDocument@@UEAAXXZ 000000014001364f f   mfc140u:mfc140u.dll
 0001:00012655       ?OnOpenDocument@CDocument@@UEAAHPEB_W@Z 0000000140013655 f   mfc140u:mfc140u.dll
 0001:0001265b       ?OnSaveDocument@CDocument@@UEAAHPEB_W@Z 000000014001365b f   mfc140u:mfc140u.dll
 0001:00012661       ?OnCloseDocument@CDocument@@UEAAXXZ 0000000140013661 f   mfc140u:mfc140u.dll
 0001:00012667       ?ReportSaveLoadException@CDocument@@UEAAXPEB_WPEAVCException@@HI@Z 0000000140013667 f   mfc140u:mfc140u.dll
 0001:0001266d       ?GetFile@CDocument@@UEAAPEAVCFile@@PEB_WIPEAVCFileException@@@Z 000000014001366d f   mfc140u:mfc140u.dll
 0001:00012673       ?ReleaseFile@CDocument@@UEAAXPEAVCFile@@H@Z 0000000140013673 f   mfc140u:mfc140u.dll
 0001:00012679       ?OnRichPreviewUnload@CDocument@@UEAAXXZ 0000000140013679 f   mfc140u:mfc140u.dll
 0001:0001267f       ?OnDocumentEvent@CDocument@@UEAAXW4DocumentEvent@1@@Z 000000014001367f f   mfc140u:mfc140u.dll
 0001:00012685       ?CanCloseFrame@CDocument@@UEAAHPEAVCFrameWnd@@@Z 0000000140013685 f   mfc140u:mfc140u.dll
 0001:0001268b       ?SaveModified@CDocument@@UEAAHXZ 000000014001368b f   mfc140u:mfc140u.dll
 0001:00012691       ?PreCloseFrame@CDocument@@UEAAXPEAVCFrameWnd@@@Z 0000000140013691 f   mfc140u:mfc140u.dll
 0001:00012697       ?DoSave@CDocument@@UEAAHPEB_WH@Z 0000000140013697 f   mfc140u:mfc140u.dll
 0001:0001269d       ?DoFileSave@CDocument@@UEAAHXZ 000000014001369d f   mfc140u:mfc140u.dll
 0001:000126a3       ?UpdateFrameCounts@CDocument@@UEAAXXZ 00000001400136a3 f   mfc140u:mfc140u.dll
 0001:000126a9       ?GetDefaultMenu@CDocument@@UEAAPEAUHMENU__@@XZ 00000001400136a9 f   mfc140u:mfc140u.dll
 0001:000126af       ?GetDefaultAccelerator@CDocument@@UEAAPEAUHACCEL__@@XZ 00000001400136af f   mfc140u:mfc140u.dll
 0001:000126b5       ?OnIdle@CDocument@@UEAAXXZ 00000001400136b5 f   mfc140u:mfc140u.dll
 0001:000126bb       ?OnLoadDocumentFromStream@CDocument@@UEAAJPEAUIStream@@K@Z 00000001400136bb f   mfc140u:mfc140u.dll
 0001:000126c1       ?OnPreviewHandlerQueryFocus@CDocument@@UEAAJPEAPEAUHWND__@@@Z 00000001400136c1 f   mfc140u:mfc140u.dll
 0001:000126c7       ?OnPreviewHandlerTranslateAccelerator@CDocument@@UEAAJPEAUtagMSG@@@Z 00000001400136c7 f   mfc140u:mfc140u.dll
 0001:000126cd       ?OnCreatePreviewFrame@CDocument@@UEAAHXZ 00000001400136cd f   mfc140u:mfc140u.dll
 0001:000126d3       ?OnUnloadHandler@CDocument@@UEAAXXZ 00000001400136d3 f   mfc140u:mfc140u.dll
 0001:000126d9       ?OnDrawThumbnail@CDocument@@UEAAXAEAVCDC@@PEAUtagRECT@@@Z 00000001400136d9 f   mfc140u:mfc140u.dll
 0001:000126df       ?GetThisMessageMap@CWnd@@KAPEBUAFX_MSGMAP@@XZ 00000001400136df f   mfc140u:mfc140u.dll
 0001:000126e5       ?OnFilePrint@CView@@IEAAXXZ 00000001400136e5 f   mfc140u:mfc140u.dll
 0001:000126eb       ?OnFilePrintPreview@CView@@IEAAXXZ 00000001400136eb f   mfc140u:mfc140u.dll
 0001:000126f1       ?GetThisMessageMap@CFormView@@KAPEBUAFX_MSGMAP@@XZ 00000001400136f1 f   mfc140u:mfc140u.dll
 0001:000126f7       ?DeleteItem@CComboBox@@UEAAXPEAUtagDELETEITEMSTRUCT@@@Z 00000001400136f7 f   mfc140u:mfc140u.dll
 0001:000126fd       ?CompareItem@CComboBox@@UEAAHPEAUtagCOMPAREITEMSTRUCT@@@Z 00000001400136fd f   mfc140u:mfc140u.dll
 0001:00012703       ?MeasureItem@CComboBox@@UEAAXPEAUtagMEASUREITEMSTRUCT@@@Z 0000000140013703 f   mfc140u:mfc140u.dll
 0001:00012709       ?DrawItem@CComboBox@@UEAAXPEAUtagDRAWITEMSTRUCT@@@Z 0000000140013709 f   mfc140u:mfc140u.dll
 0001:0001270f       ?Create@CComboBox@@UEAAHKAEBUtagRECT@@PEAVCWnd@@I@Z 000000014001370f f   mfc140u:mfc140u.dll
 0001:00012715       ?OnChildNotify@CComboBox@@MEAAHI_K_JPEA_J@Z 0000000140013715 f   mfc140u:mfc140u.dll
 0001:0001271b       ?PreTranslateMessage@CWnd@@UEAAHPEAUtagMSG@@@Z 000000014001371b f   mfc140u:mfc140u.dll
 0001:00012721       ?OnCommand@CWnd@@MEAAH_K_J@Z 0000000140013721 f   mfc140u:mfc140u.dll
 0001:00012727       ?GetMessageMap@CWnd@@MEBAPEBUAFX_MSGMAP@@XZ 0000000140013727 f   mfc140u:mfc140u.dll
 0001:0001272d       ?GetRuntimeClass@CComboBox@@UEBAPEAUCRuntimeClass@@XZ 000000014001372d f   mfc140u:mfc140u.dll
 0001:00012733       ?GetRuntimeClass@CEdit@@UEBAPEAUCRuntimeClass@@XZ 0000000140013733 f   mfc140u:mfc140u.dll
 0001:00012739       ??1CFile@@UEAA@XZ          0000000140013739 f   mfc140u:mfc140u.dll
 0001:0001273f       ?GetRuntimeClass@CFont@@UEBAPEAUCRuntimeClass@@XZ 000000014001373f f   mfc140u:mfc140u.dll
 0001:00012745       ?AfxGetModuleState@@YAPEAVAFX_MODULE_STATE@@XZ 0000000140013745 f   mfc140u:mfc140u.dll
 0001:0001274b       ??1CStdioFile@@UEAA@XZ     000000014001374b f   mfc140u:mfc140u.dll
 0001:00012751       ?OnCmdMsg@CView@@UEAAHIHPEAXPEAUAFX_CMDHANDLERINFO@@@Z 0000000140013751 f   mfc140u:mfc140u.dll
 0001:00012757       ?Create@CFormView@@MEAAHPEB_W0KAEBUtagRECT@@PEAVCWnd@@IPEAUCCreateContext@@@Z 0000000140013757 f   mfc140u:mfc140u.dll
 0001:0001275d       ?CalcWindowRect@CScrollView@@UEAAXPEAUtagRECT@@I@Z 000000014001375d f   mfc140u:mfc140u.dll
 0001:00012763       ?GetScrollBarCtrl@CView@@UEBAPEAVCScrollBar@@H@Z 0000000140013763 f   mfc140u:mfc140u.dll
 0001:00012769       ?PostNcDestroy@CView@@MEAAXXZ 0000000140013769 f   mfc140u:mfc140u.dll
 0001:0001276f       ?SetOccDialogInfo@CFormView@@MEAAHPEAU_AFX_OCC_DIALOG_INFO@@@Z 000000014001376f f   mfc140u:mfc140u.dll
 0001:00012775       ?GetOccDialogInfo@CFormView@@MEAAPEAU_AFX_OCC_DIALOG_INFO@@XZ 0000000140013775 f   mfc140u:mfc140u.dll
 0001:0001277b       ?IsSelected@CView@@UEBAHPEBVCObject@@@Z 000000014001377b f   mfc140u:mfc140u.dll
 0001:00012781       ?OnScroll@CScrollView@@UEAAHIIH@Z 0000000140013781 f   mfc140u:mfc140u.dll
 0001:00012787       ?OnScrollBy@CScrollView@@UEAAHVCSize@@H@Z 0000000140013787 f   mfc140u:mfc140u.dll
 0001:0001278d       ?OnDragEnter@CView@@UEAAKPEAVCOleDataObject@@KVCPoint@@@Z 000000014001378d f   mfc140u:mfc140u.dll
 0001:00012793       ?OnDragOver@CView@@UEAAKPEAVCOleDataObject@@KVCPoint@@@Z 0000000140013793 f   mfc140u:mfc140u.dll
 0001:00012799       ?OnDragLeave@CView@@UEAAXXZ 0000000140013799 f   mfc140u:mfc140u.dll
 0001:0001279f       ?OnDrop@CView@@UEAAHPEAVCOleDataObject@@KVCPoint@@@Z 000000014001379f f   mfc140u:mfc140u.dll
 0001:000127a5       ?OnDropEx@CView@@UEAAKPEAVCOleDataObject@@KKVCPoint@@@Z 00000001400137a5 f   mfc140u:mfc140u.dll
 0001:000127ab       ?OnDragScroll@CView@@UEAAKKVCPoint@@@Z 00000001400137ab f   mfc140u:mfc140u.dll
 0001:000127b1       ?OnPrepareDC@CScrollView@@UEAAXPEAVCDC@@PEAUCPrintInfo@@@Z 00000001400137b1 f   mfc140u:mfc140u.dll
 0001:000127b7       ?OnActivateView@CFormView@@MEAAXHPEAVCView@@0@Z 00000001400137b7 f   mfc140u:mfc140u.dll
 0001:000127bd       ?OnActivateFrame@CFormView@@MEAAXIPEAVCFrameWnd@@@Z 00000001400137bd f   mfc140u:mfc140u.dll
 0001:000127c3       ?OnUpdate@CView@@MEAAXPEAV1@_JPEAVCObject@@@Z 00000001400137c3 f   mfc140u:mfc140u.dll
 0001:000127c9       ?OnDraw@CFormView@@MEAAXPEAVCDC@@@Z 00000001400137c9 f   mfc140u:mfc140u.dll
 0001:000127cf       ?OnPreparePrinting@CView@@MEAAHPEAUCPrintInfo@@@Z 00000001400137cf f   mfc140u:mfc140u.dll
 0001:000127d5       ?OnBeginPrinting@CView@@MEAAXPEAVCDC@@PEAUCPrintInfo@@@Z 00000001400137d5 f   mfc140u:mfc140u.dll
 0001:000127db       ?OnPrint@CView@@MEAAXPEAVCDC@@PEAUCPrintInfo@@@Z 00000001400137db f   mfc140u:mfc140u.dll
 0001:000127e1       ?OnEndPrinting@CView@@MEAAXPEAVCDC@@PEAUCPrintInfo@@@Z 00000001400137e1 f   mfc140u:mfc140u.dll
 0001:000127e7       ?OnEndPrintPreview@CView@@MEAAXPEAVCDC@@PEAUCPrintInfo@@UtagPOINT@@PEAVCPreviewView@@@Z 00000001400137e7 f   mfc140u:mfc140u.dll
 0001:000127ed       ?GetWheelScrollDistance@CScrollView@@UEAA?AVCSize@@V2@HH@Z 00000001400137ed f   mfc140u:mfc140u.dll
 0001:00012a4c       wWinMainCRTStartup         0000000140013a4c f   msvcrt:exe_wwinmain.obj
 0001:00012a70       __security_check_cookie    0000000140013a70 f   msvcrt:amdsecgs.obj
 0001:00012a90       ??_Etype_info@@UEAAPEAXI@Z 0000000140013a90 f i msvcrt:std_type_info_static.obj
 0001:00012a90       ??_Gtype_info@@UEAAPEAXI@Z 0000000140013a90 f i msvcrt:std_type_info_static.obj
 0001:00012abc       __scrt_acquire_startup_lock 0000000140013abc f   msvcrt:utility.obj
 0001:00012af8       __scrt_initialize_crt      0000000140013af8 f   msvcrt:utility.obj
 0001:00012b34       __scrt_initialize_onexit_tables 0000000140013b34 f   msvcrt:utility.obj
 0001:00012bc0       __scrt_is_nonwritable_in_current_image 0000000140013bc0 f   msvcrt:utility.obj
 0001:00012c58       __scrt_release_startup_lock 0000000140013c58 f   msvcrt:utility.obj
 0001:00012c7c       __scrt_uninitialize_crt    0000000140013c7c f   msvcrt:utility.obj
 0001:00012ca8       _onexit                    0000000140013ca8 f   msvcrt:utility.obj
 0001:00012ce4       atexit                     0000000140013ce4 f   msvcrt:utility.obj
 0001:00012cfc       ??3@YAXPEAX_K@Z            0000000140013cfc f   msvcrt:delete_scalar_size.obj
 0001:00012d04       __GSHandlerCheck_SEH       0000000140013d04 f   msvcrt:gshandlerseh.obj
 0001:00012d8c       __security_init_cookie     0000000140013d8c f   msvcrt:gs_support.obj
 0001:00012e38       _get_startup_argv_mode     0000000140013e38 f   msvcrt:argv_mode.obj
 0001:00012e40       _get_startup_file_mode     0000000140013e40 f   msvcrt:file_mode.obj
 0001:00012e48       ?__scrt_initialize_type_info@@YAXXZ 0000000140013e48 f   msvcrt:tncleanup.obj
 0001:00012e58       __acrt_initialize          0000000140013e58 f   msvcrt:ucrt_stubs.obj
 0001:00012e58       __acrt_uninitialize        0000000140013e58 f   msvcrt:ucrt_stubs.obj
 0001:00012e58       __scrt_stub_for_acrt_initialize 0000000140013e58 f   msvcrt:ucrt_stubs.obj
 0001:00012e58       __scrt_stub_for_acrt_uninitialize 0000000140013e58 f   msvcrt:ucrt_stubs.obj
 0001:00012e58       __vcrt_initialize          0000000140013e58 f   msvcrt:ucrt_stubs.obj
 0001:00012e58       __vcrt_uninitialize        0000000140013e58 f   msvcrt:ucrt_stubs.obj
 0001:00012e58       _should_initialize_environment 0000000140013e58 f   msvcrt:env_mode.obj
 0001:00012e5c       __local_stdio_printf_options 0000000140013e5c f i msvcrt:default_local_stdio_options.obj
 0001:00012e64       __local_stdio_scanf_options 0000000140013e64 f i msvcrt:default_local_stdio_options.obj
 0001:00012e6c       __scrt_initialize_default_local_stdio_options 0000000140013e6c f   msvcrt:default_local_stdio_options.obj
 0001:00012e88       __scrt_is_user_matherr_present 0000000140013e88 f   msvcrt:matherr_detection.obj
 0001:00012e94       __scrt_get_dyn_tls_init_callback 0000000140013e94 f   msvcrt:dyn_tls_init.obj
 0001:00012e9c       __scrt_get_dyn_tls_dtor_callback 0000000140013e9c f   msvcrt:dyn_tls_dtor.obj
 0001:00012ea4       __crt_debugger_hook        0000000140013ea4 f   msvcrt:utility_desktop.obj
 0001:00012eac       __scrt_fastfail            0000000140013eac f   msvcrt:utility_desktop.obj
 0001:00012ff4       __scrt_get_show_window_mode 0000000140013ff4 f   msvcrt:utility_desktop.obj
 0001:00013030       __scrt_initialize_mta      0000000140014030 f   msvcrt:utility_desktop.obj
 0001:00013038       __scrt_is_managed_app      0000000140014038 f   msvcrt:utility_desktop.obj
 0001:0001308c       __scrt_set_unhandled_exception_filter 000000014001408c f   msvcrt:utility_desktop.obj
 0001:0001309c       __scrt_unhandled_exception_filter 000000014001409c f   msvcrt:utility_desktop.obj
 0001:000130f8       _RTC_Initialize            00000001400140f8 f   msvcrt:initsect.obj
 0001:00013134       _RTC_Terminate             0000000140014134 f   msvcrt:initsect.obj
 0001:00013170       __raise_securityfailure    0000000140014170 f   msvcrt:gs_report.obj
 0001:000131a4       __report_gsfailure         00000001400141a4 f   msvcrt:gs_report.obj
 0001:000132ec       __isa_available_init       00000001400142ec f   msvcrt:cpu_disp.obj
 0001:000135b8       __scrt_is_ucrt_dll_in_use  00000001400145b8 f   msvcrt:ucrt_detection.obj
 0001:000135c4       __GSHandlerCheck           00000001400145c4 f   msvcrt:gshandler.obj
 0001:000135e4       __GSHandlerCheckCommon     00000001400145e4 f   msvcrt:gshandler.obj
 0001:00013640       ??0CAtlBaseModule@ATL@@QEAA@XZ 0000000140014640 f   atls:atlbase.obj
 0001:000136e8       ??1CAtlBaseModule@ATL@@QEAA@XZ 00000001400146e8 f   atls:atlbase.obj
 0001:00013720       ?_com_issue_error@@YAXJ@Z  0000000140014720 f   comsuppw:comsupp.obj
 0001:00013730       ?ConvertStringToBSTR@_com_util@@YAPEA_WPEBD@Z 0000000140014730 f   comsuppw:comutil.obj
 0001:000138d0       ??0_com_error@@QEAA@AEBV0@@Z 00000001400148d0 f i comsuppw:comraise.obj
 0001:00013920       ??0_com_error@@QEAA@JPEAUIErrorInfo@@_N@Z 0000000140014920 f i comsuppw:comraise.obj
 0001:00013970       ??1_com_error@@UEAA@XZ     0000000140014970 f i comsuppw:comraise.obj
 0001:000139c0       ??_E_com_error@@UEAAPEAXI@Z 00000001400149c0 f i comsuppw:comraise.obj
 0001:000139c0       ??_G_com_error@@UEAAPEAXI@Z 00000001400149c0 f i comsuppw:comraise.obj
 0001:00013a20       ?_com_raise_error@@YAXJPEAUIErrorInfo@@@Z 0000000140014a20 f   comsuppw:comraise.obj
 0001:00013a48       ??1facet@locale@std@@MEAA@XZ 0000000140014a48 f   msvcprt:MSVCP140.dll
 0001:00013a4e       ?_Decref@facet@locale@std@@UEAAPEAV_Facet_base@3@XZ 0000000140014a4e f   msvcprt:MSVCP140.dll
 0001:00013a54       ?_Incref@facet@locale@std@@UEAAXXZ 0000000140014a54 f   msvcprt:MSVCP140.dll
 0001:00013a5c       ?_Facet_Register@std@@YAXPEAV_Facet_base@1@@Z 0000000140014a5c f   msvcprt:locale0_implib.obj
 0001:00013a99       ??1_Lockit@std@@QEAA@XZ    0000000140014a99 f   msvcprt:MSVCP140.dll
 0001:00013a9f       ?uflow@?$basic_streambuf@_WU?$char_traits@_W@std@@@std@@MEAAGXZ 0000000140014a9f f   msvcprt:MSVCP140.dll
 0001:00013aa5       ?uflow@?$basic_streambuf@DU?$char_traits@D@std@@@std@@MEAAHXZ 0000000140014aa5 f   msvcprt:MSVCP140.dll
 0001:00013aab       ?_Xbad_alloc@std@@YAXXZ    0000000140014aab f   msvcprt:MSVCP140.dll
 0001:00013ab1       ?_Unlock@?$basic_streambuf@_WU?$char_traits@_W@std@@@std@@UEAAXXZ 0000000140014ab1 f   msvcprt:MSVCP140.dll
 0001:00013ab7       ?_Lock@?$basic_streambuf@_WU?$char_traits@_W@std@@@std@@UEAAXXZ 0000000140014ab7 f   msvcprt:MSVCP140.dll
 0001:00013abd       ?sync@?$basic_streambuf@_WU?$char_traits@_W@std@@@std@@MEAAHXZ 0000000140014abd f   msvcprt:MSVCP140.dll
 0001:00013cd0       __std_find_trivial_2       0000000140014cd0 f   msvcprt:vector_algorithms.obj
 0001:00013ce0       __std_find_trivial_4       0000000140014ce0 f   msvcprt:vector_algorithms.obj
 0001:00013ce5       ?xsputn@?$basic_streambuf@_WU?$char_traits@_W@std@@@std@@MEAA_JPEB_W_J@Z 0000000140014ce5 f   msvcprt:MSVCP140.dll
 0001:00013ceb       ?xsputn@?$basic_streambuf@DU?$char_traits@D@std@@@std@@MEAA_JPEBD_J@Z 0000000140014ceb f   msvcprt:MSVCP140.dll
 0001:00013cf1       ?_Unlock@?$basic_streambuf@DU?$char_traits@D@std@@@std@@UEAAXXZ 0000000140014cf1 f   msvcprt:MSVCP140.dll
 0001:00013cf7       ?_Lock@?$basic_streambuf@DU?$char_traits@D@std@@@std@@UEAAXXZ 0000000140014cf7 f   msvcprt:MSVCP140.dll
 0001:00013cfd       ?sync@?$basic_streambuf@DU?$char_traits@D@std@@@std@@MEAAHXZ 0000000140014cfd f   msvcprt:MSVCP140.dll
 0001:00013d03       ?showmanyc@?$basic_streambuf@DU?$char_traits@D@std@@@std@@MEAA_JXZ 0000000140014d03 f   msvcprt:MSVCP140.dll
 0001:00013d09       ?xsgetn@?$basic_streambuf@DU?$char_traits@D@std@@@std@@MEAA_JPEAD_J@Z 0000000140014d09 f   msvcprt:MSVCP140.dll
 0001:00013d0f       ?setbuf@?$basic_streambuf@DU?$char_traits@D@std@@@std@@MEAAPEAV12@PEAD_J@Z 0000000140014d0f f   msvcprt:MSVCP140.dll
 0001:00013d15       ?imbue@?$basic_streambuf@DU?$char_traits@D@std@@@std@@MEAAXAEBVlocale@2@@Z 0000000140014d15 f   msvcprt:MSVCP140.dll
 0001:00013d1b       ?showmanyc@?$basic_streambuf@_WU?$char_traits@_W@std@@@std@@MEAA_JXZ 0000000140014d1b f   msvcprt:MSVCP140.dll
 0001:00013d21       ?xsgetn@?$basic_streambuf@_WU?$char_traits@_W@std@@@std@@MEAA_JPEA_W_J@Z 0000000140014d21 f   msvcprt:MSVCP140.dll
 0001:00013d27       ?setbuf@?$basic_streambuf@_WU?$char_traits@_W@std@@@std@@MEAAPEAV12@PEA_W_J@Z 0000000140014d27 f   msvcprt:MSVCP140.dll
 0001:00013d2d       ?imbue@?$basic_streambuf@_WU?$char_traits@_W@std@@@std@@MEAAXAEBVlocale@2@@Z 0000000140014d2d f   msvcprt:MSVCP140.dll
 0001:00013d33       __CxxFrameHandler4         0000000140014d33 f   vcruntime:VCRUNTIME140_1.dll
 0001:00013d39       __std_terminate            0000000140014d39 f   vcruntime:VCRUNTIME140.dll
 0001:00013d3f       _purecall                  0000000140014d3f f   vcruntime:VCRUNTIME140.dll
 0001:00013d45       memset                     0000000140014d45 f   vcruntime:VCRUNTIME140.dll
 0001:00013d4b       __C_specific_handler       0000000140014d4b f   vcruntime:VCRUNTIME140.dll
 0001:00013d51       __current_exception        0000000140014d51 f   vcruntime:VCRUNTIME140.dll
 0001:00013d57       __current_exception_context 0000000140014d57 f   vcruntime:VCRUNTIME140.dll
 0001:00013d5d       memmove                    0000000140014d5d f   vcruntime:VCRUNTIME140.dll
 0001:00013d63       _CxxThrowException         0000000140014d63 f   vcruntime:VCRUNTIME140.dll
 0001:00013d69       memcmp                     0000000140014d69 f   vcruntime:VCRUNTIME140.dll
 0001:00013d6f       memcpy                     0000000140014d6f f   vcruntime:VCRUNTIME140.dll
 0001:00013d75       free                       0000000140014d75 f   ucrt:api-ms-win-crt-heap-l1-1-0.dll
 0001:00013d7b       _seh_filter_exe            0000000140014d7b f   ucrt:api-ms-win-crt-runtime-l1-1-0.dll
 0001:00013d81       _set_app_type              0000000140014d81 f   ucrt:api-ms-win-crt-runtime-l1-1-0.dll
 0001:00013d87       __setusermatherr           0000000140014d87 f   ucrt:api-ms-win-crt-math-l1-1-0.dll
 0001:00013d8d       _configure_wide_argv       0000000140014d8d f   ucrt:api-ms-win-crt-runtime-l1-1-0.dll
 0001:00013d93       _initialize_wide_environment 0000000140014d93 f   ucrt:api-ms-win-crt-runtime-l1-1-0.dll
 0001:00013d99       _get_wide_winmain_command_line 0000000140014d99 f   ucrt:api-ms-win-crt-runtime-l1-1-0.dll
 0001:00013d9f       _initterm                  0000000140014d9f f   ucrt:api-ms-win-crt-runtime-l1-1-0.dll
 0001:00013da5       _initterm_e                0000000140014da5 f   ucrt:api-ms-win-crt-runtime-l1-1-0.dll
 0001:00013dab       exit                       0000000140014dab f   ucrt:api-ms-win-crt-runtime-l1-1-0.dll
 0001:00013db1       _exit                      0000000140014db1 f   ucrt:api-ms-win-crt-runtime-l1-1-0.dll
 0001:00013db7       _set_fmode                 0000000140014db7 f   ucrt:api-ms-win-crt-stdio-l1-1-0.dll
 0001:00013dbd       _cexit                     0000000140014dbd f   ucrt:api-ms-win-crt-runtime-l1-1-0.dll
 0001:00013dc3       _c_exit                    0000000140014dc3 f   ucrt:api-ms-win-crt-runtime-l1-1-0.dll
 0001:00013dc9       _register_thread_local_exe_atexit_callback 0000000140014dc9 f   ucrt:api-ms-win-crt-runtime-l1-1-0.dll
 0001:00013dcf       _configthreadlocale        0000000140014dcf f   ucrt:api-ms-win-crt-locale-l1-1-0.dll
 0001:00013dd5       _set_new_mode              0000000140014dd5 f   ucrt:api-ms-win-crt-heap-l1-1-0.dll
 0001:00013ddb       __p__commode               0000000140014ddb f   ucrt:api-ms-win-crt-stdio-l1-1-0.dll
 0001:00013de1       _initialize_onexit_table   0000000140014de1 f   ucrt:api-ms-win-crt-runtime-l1-1-0.dll
 0001:00013de7       _register_onexit_function  0000000140014de7 f   ucrt:api-ms-win-crt-runtime-l1-1-0.dll
 0001:00013ded       _crt_atexit                0000000140014ded f   ucrt:api-ms-win-crt-runtime-l1-1-0.dll
 0001:00013df3       terminate                  0000000140014df3 f   ucrt:api-ms-win-crt-runtime-l1-1-0.dll
 0001:00013df9       malloc                     0000000140014df9 f   ucrt:api-ms-win-crt-heap-l1-1-0.dll
 0001:00013e00       ?AfxInitialize@@YAHHK@Z    0000000140014e00 f   mfcs140u:appmodul.obj
 0001:00013e2c       wWinMain                   0000000140014e2c f   mfcs140u:appmodul.obj
 0001:00013e50       __chkstk                   0000000140014e50 f   msvcrt:chkstk.obj
 0001:00013e50       _alloca_probe              0000000140014e50 f   msvcrt:chkstk.obj
 0001:00013e9e       ?AfxWinMain@@YAHPEAUHINSTANCE__@@0PEA_WH@Z 0000000140014e9e f   mfc140u:mfc140u.dll
 0001:00013ea4       __GSHandlerCheck_EH4       0000000140014ea4 f   msvcrt:gshandlereh4.obj
 0001:00013f23       __RTDynamicCast            0000000140014f23 f   vcruntime:VCRUNTIME140.dll
 0001:00013f40       _guard_dispatch_icall_nop  0000000140014f40 f   msvcrt:guard_dispatch.obj
 0001:00013f60       _guard_xfg_dispatch_icall_nop 0000000140014f60 f   msvcrt:guard_xfg_dispatch.obj
 0002:00000000       __imp_InitCommonControlsEx 0000000140016000     comctl32:COMCTL32.dll
 0002:00000008       \177COMCTL32_NULL_THUNK_DATA 0000000140016008     comctl32:COMCTL32.dll
 0002:00000010       __imp_CreateFontIndirectW  0000000140016010     gdi32:GDI32.dll
 0002:00000018       __imp_GetObjectW           0000000140016018     gdi32:GDI32.dll
 0002:00000020       \177GDI32_NULL_THUNK_DATA  0000000140016020     gdi32:GDI32.dll
 0002:00000028       __imp_lstrcpyW             0000000140016028     kernel32:KERNEL32.dll
 0002:00000030       __imp_WideCharToMultiByte  0000000140016030     kernel32:KERNEL32.dll
 0002:00000038       __imp_GetSystemTime        0000000140016038     kernel32:KERNEL32.dll
 0002:00000040       __imp_SystemTimeToFileTime 0000000140016040     kernel32:KERNEL32.dll
 0002:00000048       __imp_InitializeCriticalSectionEx 0000000140016048     kernel32:KERNEL32.dll
 0002:00000050       __imp_GetLastError         0000000140016050     kernel32:KERNEL32.dll
 0002:00000058       __imp_GetSystemTimeAsFileTime 0000000140016058     kernel32:KERNEL32.dll
 0002:00000060       __imp_InitializeSListHead  0000000140016060     kernel32:KERNEL32.dll
 0002:00000068       __imp_RtlCaptureContext    0000000140016068     kernel32:KERNEL32.dll
 0002:00000070       __imp_RtlLookupFunctionEntry 0000000140016070     kernel32:KERNEL32.dll
 0002:00000078       __imp_MultiByteToWideChar  0000000140016078     kernel32:KERNEL32.dll
 0002:00000080       __imp_IsDebuggerPresent    0000000140016080     kernel32:KERNEL32.dll
 0002:00000088       __imp_UnhandledExceptionFilter 0000000140016088     kernel32:KERNEL32.dll
 0002:00000090       __imp_SetUnhandledExceptionFilter 0000000140016090     kernel32:KERNEL32.dll
 0002:00000098       __imp_GetStartupInfoW      0000000140016098     kernel32:KERNEL32.dll
 0002:000000a0       __imp_IsProcessorFeaturePresent 00000001400160a0     kernel32:KERNEL32.dll
 0002:000000a8       __imp_GetModuleHandleW     00000001400160a8     kernel32:KERNEL32.dll
 0002:000000b0       __imp_GetCurrentProcess    00000001400160b0     kernel32:KERNEL32.dll
 0002:000000b8       __imp_TerminateProcess     00000001400160b8     kernel32:KERNEL32.dll
 0002:000000c0       __imp_GetCurrentProcessId  00000001400160c0     kernel32:KERNEL32.dll
 0002:000000c8       __imp_QueryPerformanceCounter 00000001400160c8     kernel32:KERNEL32.dll
 0002:000000d0       __imp_FindNextFileW        00000001400160d0     kernel32:KERNEL32.dll
 0002:000000d8       __imp_OutputDebugStringW   00000001400160d8     kernel32:KERNEL32.dll
 0002:000000e0       __imp_LocalFree            00000001400160e0     kernel32:KERNEL32.dll
 0002:000000e8       __imp_RtlVirtualUnwind     00000001400160e8     kernel32:KERNEL32.dll
 0002:000000f0       __imp_FindFirstFileW       00000001400160f0     kernel32:KERNEL32.dll
 0002:000000f8       __imp_DeleteCriticalSection 00000001400160f8     kernel32:KERNEL32.dll
 0002:00000100       __imp_GetCurrentThreadId   0000000140016100     kernel32:KERNEL32.dll
 0002:00000108       \177KERNEL32_NULL_THUNK_DATA 0000000140016108     kernel32:KERNEL32.dll
 0002:00000110       __imp_MNSCParse            0000000140016110     MNSC:MNSC.dll
 0002:00000118       __imp_MNSCInitilize        0000000140016118     MNSC:MNSC.dll
 0002:00000120       __imp_MNSCCreateMap        0000000140016120     MNSC:MNSC.dll
 0002:00000128       __imp_MNSCCall             0000000140016128     MNSC:MNSC.dll
 0002:00000130       __imp_MNSCClose            0000000140016130     MNSC:MNSC.dll
 0002:00000138       \177MNSC_NULL_THUNK_DATA   0000000140016138     MNSC:MNSC.dll
 0002:00000140       __imp_?imbue@?$basic_streambuf@DU?$char_traits@D@std@@@std@@MEAAXAEBVlocale@2@@Z 0000000140016140     msvcprt:MSVCP140.dll
 0002:00000148       __imp_?setbuf@?$basic_streambuf@DU?$char_traits@D@std@@@std@@MEAAPEAV12@PEAD_J@Z 0000000140016148     msvcprt:MSVCP140.dll
 0002:00000150       __imp_?xsgetn@?$basic_streambuf@DU?$char_traits@D@std@@@std@@MEAA_JPEAD_J@Z 0000000140016150     msvcprt:MSVCP140.dll
 0002:00000158       __imp_?showmanyc@?$basic_streambuf@DU?$char_traits@D@std@@@std@@MEAA_JXZ 0000000140016158     msvcprt:MSVCP140.dll
 0002:00000160       __imp_?tolower@?$ctype@_W@std@@QEBAPEB_WPEA_WPEB_W@Z 0000000140016160     msvcprt:MSVCP140.dll
 0002:00000168       __imp_?_Xregex_error@std@@YAXW4error_type@regex_constants@1@@Z 0000000140016168     msvcprt:MSVCP140.dll
 0002:00000170       __imp_?_Getcoll@_Locinfo@std@@QEBA?AU_Collvec@@XZ 0000000140016170     msvcprt:MSVCP140.dll
 0002:00000178       __imp_?id@?$collate@_W@std@@2V0locale@2@A 0000000140016178     msvcprt:MSVCP140.dll
 0002:00000180       __imp_?sync@?$basic_streambuf@DU?$char_traits@D@std@@@std@@MEAAHXZ 0000000140016180     msvcprt:MSVCP140.dll
 0002:00000188       __imp_?_Lock@?$basic_streambuf@DU?$char_traits@D@std@@@std@@UEAAXXZ 0000000140016188     msvcprt:MSVCP140.dll
 0002:00000190       __imp_?_Unlock@?$basic_streambuf@DU?$char_traits@D@std@@@std@@UEAAXXZ 0000000140016190     msvcprt:MSVCP140.dll
 0002:00000198       __imp_?xsputn@?$basic_streambuf@DU?$char_traits@D@std@@@std@@MEAA_JPEBD_J@Z 0000000140016198     msvcprt:MSVCP140.dll
 0002:000001a0       __imp_?xsputn@?$basic_streambuf@_WU?$char_traits@_W@std@@@std@@MEAA_JPEB_W_J@Z 00000001400161a0     msvcprt:MSVCP140.dll
 0002:000001a8       __imp_?sync@?$basic_streambuf@_WU?$char_traits@_W@std@@@std@@MEAAHXZ 00000001400161a8     msvcprt:MSVCP140.dll
 0002:000001b0       __imp_?_Lock@?$basic_streambuf@_WU?$char_traits@_W@std@@@std@@UEAAXXZ 00000001400161b0     msvcprt:MSVCP140.dll
 0002:000001b8       __imp_?_Unlock@?$basic_streambuf@_WU?$char_traits@_W@std@@@std@@UEAAXXZ 00000001400161b8     msvcprt:MSVCP140.dll
 0002:000001c0       __imp_?sputn@?$basic_streambuf@DU?$char_traits@D@std@@@std@@QEAA_JPEBD_J@Z 00000001400161c0     msvcprt:MSVCP140.dll
 0002:000001c8       __imp_?sputc@?$basic_streambuf@DU?$char_traits@D@std@@@std@@QEAAHD@Z 00000001400161c8     msvcprt:MSVCP140.dll
 0002:000001d0       __imp_?sputc@?$basic_streambuf@_WU?$char_traits@_W@std@@@std@@QEAAG_W@Z 00000001400161d0     msvcprt:MSVCP140.dll
 0002:000001d8       __imp_?good@ios_base@std@@QEBA_NXZ 00000001400161d8     msvcprt:MSVCP140.dll
 0002:000001e0       __imp_?uncaught_exception@std@@YA_NXZ 00000001400161e0     msvcprt:MSVCP140.dll
 0002:000001e8       __imp_?uflow@?$basic_streambuf@DU?$char_traits@D@std@@@std@@MEAAHXZ 00000001400161e8     msvcprt:MSVCP140.dll
 0002:000001f0       __imp_?_Init@locale@std@@CAPEAV_Locimp@12@_N@Z 00000001400161f0     msvcprt:MSVCP140.dll
 0002:000001f8       __imp_?uflow@?$basic_streambuf@_WU?$char_traits@_W@std@@@std@@MEAAGXZ 00000001400161f8     msvcprt:MSVCP140.dll
 0002:00000200       __imp_?tolower@?$ctype@_W@std@@QEBA_W_W@Z 0000000140016200     msvcprt:MSVCP140.dll
 0002:00000208       __imp_?_Id_cnt@id@locale@std@@0HA 0000000140016208     msvcprt:MSVCP140.dll
 0002:00000210       __imp_?id@?$ctype@_W@std@@2V0locale@2@A 0000000140016210     msvcprt:MSVCP140.dll
 0002:00000218       __imp_?_Getgloballocale@locale@std@@CAPEAV_Locimp@12@XZ 0000000140016218     msvcprt:MSVCP140.dll
 0002:00000220       __imp_??0_Lockit@std@@QEAA@H@Z 0000000140016220     msvcprt:MSVCP140.dll
 0002:00000228       __imp_??0_Locinfo@std@@QEAA@PEBD@Z 0000000140016228     msvcprt:MSVCP140.dll
 0002:00000230       __imp_??1_Lockit@std@@QEAA@XZ 0000000140016230     msvcprt:MSVCP140.dll
 0002:00000238       __imp_??1_Locinfo@std@@QEAA@XZ 0000000140016238     msvcprt:MSVCP140.dll
 0002:00000240       __imp_?is@?$ctype@_W@std@@QEBA_NF_W@Z 0000000140016240     msvcprt:MSVCP140.dll
 0002:00000248       __imp_?_Getcat@?$ctype@_W@std@@SA_KPEAPEBVfacet@locale@2@PEBV42@@Z 0000000140016248     msvcprt:MSVCP140.dll
 0002:00000250       __imp_?_Incref@facet@locale@std@@UEAAXXZ 0000000140016250     msvcprt:MSVCP140.dll
 0002:00000258       __imp__Wcscoll             0000000140016258     msvcprt:MSVCP140.dll
 0002:00000260       __imp__Wcsxfrm             0000000140016260     msvcprt:MSVCP140.dll
 0002:00000268       __imp_??1?$basic_iostream@_WU?$char_traits@_W@std@@@std@@UEAA@XZ 0000000140016268     msvcprt:MSVCP140.dll
 0002:00000270       __imp_??1?$basic_streambuf@_WU?$char_traits@_W@std@@@std@@UEAA@XZ 0000000140016270     msvcprt:MSVCP140.dll
 0002:00000278       __imp_?showmanyc@?$basic_streambuf@_WU?$char_traits@_W@std@@@std@@MEAA_JXZ 0000000140016278     msvcprt:MSVCP140.dll
 0002:00000280       __imp_??1?$basic_iostream@DU?$char_traits@D@std@@@std@@UEAA@XZ 0000000140016280     msvcprt:MSVCP140.dll
 0002:00000288       __imp_?_Decref@facet@locale@std@@UEAAPEAV_Facet_base@3@XZ 0000000140016288     msvcprt:MSVCP140.dll
 0002:00000290       __imp_??1?$basic_streambuf@DU?$char_traits@D@std@@@std@@UEAA@XZ 0000000140016290     msvcprt:MSVCP140.dll
 0002:00000298       __imp_?wcout@std@@3V?$basic_ostream@_WU?$char_traits@_W@std@@@1@A 0000000140016298     msvcprt:MSVCP140.dll
 0002:000002a0       __imp_??1?$basic_ios@DU?$char_traits@D@std@@@std@@UEAA@XZ 00000001400162a0     msvcprt:MSVCP140.dll
 0002:000002a8       __imp_??1?$basic_ios@_WU?$char_traits@_W@std@@@std@@UEAA@XZ 00000001400162a8     msvcprt:MSVCP140.dll
 0002:000002b0       __imp_?_Xlength_error@std@@YAXPEBD@Z 00000001400162b0     msvcprt:MSVCP140.dll
 0002:000002b8       __imp_??1facet@locale@std@@MEAA@XZ 00000001400162b8     msvcprt:MSVCP140.dll
 0002:000002c0       __imp_??0facet@locale@std@@IEAA@_K@Z 00000001400162c0     msvcprt:MSVCP140.dll
 0002:000002c8       __imp_?sputn@?$basic_streambuf@_WU?$char_traits@_W@std@@@std@@QEAA_JPEB_W_J@Z 00000001400162c8     msvcprt:MSVCP140.dll
 0002:000002d0       __imp_?setstate@?$basic_ios@DU?$char_traits@D@std@@@std@@QEAAXH_N@Z 00000001400162d0     msvcprt:MSVCP140.dll
 0002:000002d8       __imp_??0?$basic_streambuf@DU?$char_traits@D@std@@@std@@IEAA@XZ 00000001400162d8     msvcprt:MSVCP140.dll
 0002:000002e0       __imp_??0?$basic_streambuf@_WU?$char_traits@_W@std@@@std@@IEAA@XZ 00000001400162e0     msvcprt:MSVCP140.dll
 0002:000002e8       __imp_?_Osfx@?$basic_ostream@_WU?$char_traits@_W@std@@@std@@QEAAXXZ 00000001400162e8     msvcprt:MSVCP140.dll
 0002:000002f0       __imp_?flush@?$basic_ostream@_WU?$char_traits@_W@std@@@std@@QEAAAEAV12@XZ 00000001400162f0     msvcprt:MSVCP140.dll
 0002:000002f8       __imp_??0?$basic_ios@DU?$char_traits@D@std@@@std@@IEAA@XZ 00000001400162f8     msvcprt:MSVCP140.dll
 0002:00000300       __imp_?setstate@?$basic_ios@_WU?$char_traits@_W@std@@@std@@QEAAXH_N@Z 0000000140016300     msvcprt:MSVCP140.dll
 0002:00000308       __imp_?xsgetn@?$basic_streambuf@_WU?$char_traits@_W@std@@@std@@MEAA_JPEA_W_J@Z 0000000140016308     msvcprt:MSVCP140.dll
 0002:00000310       __imp_??0?$basic_ios@_WU?$char_traits@_W@std@@@std@@IEAA@XZ 0000000140016310     msvcprt:MSVCP140.dll
 0002:00000318       __imp_??0?$basic_iostream@DU?$char_traits@D@std@@@std@@QEAA@PEAV?$basic_streambuf@DU?$char_traits@D@std@@@1@@Z 0000000140016318     msvcprt:MSVCP140.dll
 0002:00000320       __imp_??0?$basic_iostream@_WU?$char_traits@_W@std@@@std@@QEAA@PEAV?$basic_streambuf@_WU?$char_traits@_W@std@@@1@@Z 0000000140016320     msvcprt:MSVCP140.dll
 0002:00000328       __imp_?rdbuf@?$basic_ios@_WU?$char_traits@_W@std@@@std@@QEAAPEAV?$basic_streambuf@_WU?$char_traits@_W@std@@@2@PEAV32@@Z 0000000140016328     msvcprt:MSVCP140.dll
 0002:00000330       __imp_??6?$basic_ostream@_WU?$char_traits@_W@std@@@std@@QEAAAEAV01@_J@Z 0000000140016330     msvcprt:MSVCP140.dll
 0002:00000338       __imp_?setbuf@?$basic_streambuf@_WU?$char_traits@_W@std@@@std@@MEAAPEAV12@PEA_W_J@Z 0000000140016338     msvcprt:MSVCP140.dll
 0002:00000340       __imp_?imbue@?$basic_streambuf@_WU?$char_traits@_W@std@@@std@@MEAAXAEBVlocale@2@@Z 0000000140016340     msvcprt:MSVCP140.dll
 0002:00000348       __imp_?_Osfx@?$basic_ostream@DU?$char_traits@D@std@@@std@@QEAAXXZ 0000000140016348     msvcprt:MSVCP140.dll
 0002:00000350       __imp_?flush@?$basic_ostream@DU?$char_traits@D@std@@@std@@QEAAAEAV12@XZ 0000000140016350     msvcprt:MSVCP140.dll
 0002:00000358       __imp_?_Xbad_alloc@std@@YAXXZ 0000000140016358     msvcprt:MSVCP140.dll
 0002:00000360       \177MSVCP140_NULL_THUNK_DATA 0000000140016360     msvcprt:MSVCP140.dll
 0002:00000368       __imp_SysFreeString        0000000140016368     oleaut32:OLEAUT32.dll
 0002:00000370       __imp_VariantCopy          0000000140016370     oleaut32:OLEAUT32.dll
 0002:00000378       __imp_SysAllocStringByteLen 0000000140016378     oleaut32:OLEAUT32.dll
 0002:00000380       __imp_SysStringByteLen     0000000140016380     oleaut32:OLEAUT32.dll
 0002:00000388       __imp_SysAllocString       0000000140016388     oleaut32:OLEAUT32.dll
 0002:00000390       __imp_VariantClear         0000000140016390     oleaut32:OLEAUT32.dll
 0002:00000398       __imp_VariantInit          0000000140016398     oleaut32:OLEAUT32.dll
 0002:000003a0       \177OLEAUT32_NULL_THUNK_DATA 00000001400163a0     oleaut32:OLEAUT32.dll
 0002:000003a8       __imp_SetWindowTextW       00000001400163a8     user32:USER32.dll
 0002:000003b0       __imp_GetDlgItem           00000001400163b0     user32:USER32.dll
 0002:000003b8       __imp_GetKeyState          00000001400163b8     user32:USER32.dll
 0002:000003c0       __imp_SendMessageW         00000001400163c0     user32:USER32.dll
 0002:000003c8       __imp_EnableWindow         00000001400163c8     user32:USER32.dll
 0002:000003d0       __imp_UpdateWindow         00000001400163d0     user32:USER32.dll
 0002:000003d8       \177USER32_NULL_THUNK_DATA 00000001400163d8     user32:USER32.dll
 0002:000003e0       __imp__purecall            00000001400163e0     vcruntime:VCRUNTIME140.dll
 0002:000003e8       __imp___std_exception_destroy 00000001400163e8     vcruntime:VCRUNTIME140.dll
 0002:000003f0       __imp___std_exception_copy 00000001400163f0     vcruntime:VCRUNTIME140.dll
 0002:000003f8       __imp___std_terminate      00000001400163f8     vcruntime:VCRUNTIME140.dll
 0002:00000400       __imp_memset               0000000140016400     vcruntime:VCRUNTIME140.dll
 0002:00000408       __imp___C_specific_handler 0000000140016408     vcruntime:VCRUNTIME140.dll
 0002:00000410       __imp___current_exception  0000000140016410     vcruntime:VCRUNTIME140.dll
 0002:00000418       __imp___current_exception_context 0000000140016418     vcruntime:VCRUNTIME140.dll
 0002:00000420       __imp_memmove              0000000140016420     vcruntime:VCRUNTIME140.dll
 0002:00000428       __imp__CxxThrowException   0000000140016428     vcruntime:VCRUNTIME140.dll
 0002:00000430       __imp_memcmp               0000000140016430     vcruntime:VCRUNTIME140.dll
 0002:00000438       __imp_memcpy               0000000140016438     vcruntime:VCRUNTIME140.dll
 0002:00000440       __imp_strchr               0000000140016440     vcruntime:VCRUNTIME140.dll
 0002:00000448       __imp___RTDynamicCast      0000000140016448     vcruntime:VCRUNTIME140.dll
 0002:00000450       \177VCRUNTIME140_NULL_THUNK_DATA 0000000140016450     vcruntime:VCRUNTIME140.dll
 0002:00000458       __imp___CxxFrameHandler4   0000000140016458     vcruntime:VCRUNTIME140_1.dll
 0002:00000460       \177VCRUNTIME140_1_NULL_THUNK_DATA 0000000140016460     vcruntime:VCRUNTIME140_1.dll
 0002:00000468       __imp__wtoi                0000000140016468     ucrt:api-ms-win-crt-convert-l1-1-0.dll
 0002:00000470       \177api-ms-win-crt-convert-l1-1-0_NULL_THUNK_DATA 0000000140016470     ucrt:api-ms-win-crt-convert-l1-1-0.dll
 0002:00000478       __imp__set_new_mode        0000000140016478     ucrt:api-ms-win-crt-heap-l1-1-0.dll
 0002:00000480       __imp_malloc               0000000140016480     ucrt:api-ms-win-crt-heap-l1-1-0.dll
 0002:00000488       __imp_realloc              0000000140016488     ucrt:api-ms-win-crt-heap-l1-1-0.dll
 0002:00000490       __imp_free                 0000000140016490     ucrt:api-ms-win-crt-heap-l1-1-0.dll
 0002:00000498       \177api-ms-win-crt-heap-l1-1-0_NULL_THUNK_DATA 0000000140016498     ucrt:api-ms-win-crt-heap-l1-1-0.dll
 0002:000004a0       __imp__configthreadlocale  00000001400164a0     ucrt:api-ms-win-crt-locale-l1-1-0.dll
 0002:000004a8       \177api-ms-win-crt-locale-l1-1-0_NULL_THUNK_DATA 00000001400164a8     ucrt:api-ms-win-crt-locale-l1-1-0.dll
 0002:000004b0       __imp___setusermatherr     00000001400164b0     ucrt:api-ms-win-crt-math-l1-1-0.dll
 0002:000004b8       \177api-ms-win-crt-math-l1-1-0_NULL_THUNK_DATA 00000001400164b8     ucrt:api-ms-win-crt-math-l1-1-0.dll
 0002:000004c0       __imp__cexit               00000001400164c0     ucrt:api-ms-win-crt-runtime-l1-1-0.dll
 0002:000004c8       __imp__seh_filter_exe      00000001400164c8     ucrt:api-ms-win-crt-runtime-l1-1-0.dll
 0002:000004d0       __imp_terminate            00000001400164d0     ucrt:api-ms-win-crt-runtime-l1-1-0.dll
 0002:000004d8       __imp__crt_atexit          00000001400164d8     ucrt:api-ms-win-crt-runtime-l1-1-0.dll
 0002:000004e0       __imp__register_onexit_function 00000001400164e0     ucrt:api-ms-win-crt-runtime-l1-1-0.dll
 0002:000004e8       __imp__initialize_onexit_table 00000001400164e8     ucrt:api-ms-win-crt-runtime-l1-1-0.dll
 0002:000004f0       __imp__set_app_type        00000001400164f0     ucrt:api-ms-win-crt-runtime-l1-1-0.dll
 0002:000004f8       __imp__register_thread_local_exe_atexit_callback 00000001400164f8     ucrt:api-ms-win-crt-runtime-l1-1-0.dll
 0002:00000500       __imp__c_exit              0000000140016500     ucrt:api-ms-win-crt-runtime-l1-1-0.dll
 0002:00000508       __imp__invalid_parameter_noinfo_noreturn 0000000140016508     ucrt:api-ms-win-crt-runtime-l1-1-0.dll
 0002:00000510       __imp__configure_wide_argv 0000000140016510     ucrt:api-ms-win-crt-runtime-l1-1-0.dll
 0002:00000518       __imp__exit                0000000140016518     ucrt:api-ms-win-crt-runtime-l1-1-0.dll
 0002:00000520       __imp_exit                 0000000140016520     ucrt:api-ms-win-crt-runtime-l1-1-0.dll
 0002:00000528       __imp__initterm_e          0000000140016528     ucrt:api-ms-win-crt-runtime-l1-1-0.dll
 0002:00000530       __imp__initterm            0000000140016530     ucrt:api-ms-win-crt-runtime-l1-1-0.dll
 0002:00000538       __imp__get_wide_winmain_command_line 0000000140016538     ucrt:api-ms-win-crt-runtime-l1-1-0.dll
 0002:00000540       __imp__initialize_wide_environment 0000000140016540     ucrt:api-ms-win-crt-runtime-l1-1-0.dll
 0002:00000548       \177api-ms-win-crt-runtime-l1-1-0_NULL_THUNK_DATA 0000000140016548     ucrt:api-ms-win-crt-runtime-l1-1-0.dll
 0002:00000550       __imp___p__commode         0000000140016550     ucrt:api-ms-win-crt-stdio-l1-1-0.dll
 0002:00000558       __imp_fclose               0000000140016558     ucrt:api-ms-win-crt-stdio-l1-1-0.dll
 0002:00000560       __imp_fwrite               0000000140016560     ucrt:api-ms-win-crt-stdio-l1-1-0.dll
 0002:00000568       __imp_fopen_s              0000000140016568     ucrt:api-ms-win-crt-stdio-l1-1-0.dll
 0002:00000570       __imp__set_fmode           0000000140016570     ucrt:api-ms-win-crt-stdio-l1-1-0.dll
 0002:00000578       \177api-ms-win-crt-stdio-l1-1-0_NULL_THUNK_DATA 0000000140016578     ucrt:api-ms-win-crt-stdio-l1-1-0.dll
 0002:00000580       __imp_towlower             0000000140016580     ucrt:api-ms-win-crt-string-l1-1-0.dll
 0002:00000588       \177api-ms-win-crt-string-l1-1-0_NULL_THUNK_DATA 0000000140016588     ucrt:api-ms-win-crt-string-l1-1-0.dll
 0002:00000590       __imp_?GetDefaultMenu@CDocument@@UEAAPEAUHMENU__@@XZ 0000000140016590     mfc140u:mfc140u.dll
 0002:00000598       __imp_?GetDefaultAccelerator@CDocument@@UEAAPEAUHACCEL__@@XZ 0000000140016598     mfc140u:mfc140u.dll
 0002:000005a0       __imp_?OnIdle@CDocument@@UEAAXXZ 00000001400165a0     mfc140u:mfc140u.dll
 0002:000005a8       __imp_?OnLoadDocumentFromStream@CDocument@@UEAAJPEAUIStream@@K@Z 00000001400165a8     mfc140u:mfc140u.dll
 0002:000005b0       __imp_?OnPreviewHandlerQueryFocus@CDocument@@UEAAJPEAPEAUHWND__@@@Z 00000001400165b0     mfc140u:mfc140u.dll
 0002:000005b8       __imp_?OnPreviewHandlerTranslateAccelerator@CDocument@@UEAAJPEAUtagMSG@@@Z 00000001400165b8     mfc140u:mfc140u.dll
 0002:000005c0       __imp_?OnCreatePreviewFrame@CDocument@@UEAAHXZ 00000001400165c0     mfc140u:mfc140u.dll
 0002:000005c8       __imp_?OnUnloadHandler@CDocument@@UEAAXXZ 00000001400165c8     mfc140u:mfc140u.dll
 0002:000005d0       __imp_?OnDrawThumbnail@CDocument@@UEAAXAEAVCDC@@PEAUtagRECT@@@Z 00000001400165d0     mfc140u:mfc140u.dll
 0002:000005d8       __imp_?GetThisMessageMap@CWnd@@KAPEBUAFX_MSGMAP@@XZ 00000001400165d8     mfc140u:mfc140u.dll
 0002:000005e0       __imp_?Default@CWnd@@IEAA_JXZ 00000001400165e0     mfc140u:mfc140u.dll
 0002:000005e8       __imp_?GetThisClass@CFormView@@SAPEAUCRuntimeClass@@XZ 00000001400165e8     mfc140u:mfc140u.dll
 0002:000005f0       __imp_?OnFilePrint@CView@@IEAAXXZ 00000001400165f0     mfc140u:mfc140u.dll
 0002:000005f8       __imp_?OnFilePrintPreview@CView@@IEAAXXZ 00000001400165f8     mfc140u:mfc140u.dll
 0002:00000600       __imp_?GetThisMessageMap@CFormView@@KAPEBUAFX_MSGMAP@@XZ 0000000140016600     mfc140u:mfc140u.dll
 0002:00000608       __imp_??0CFormView@@IEAA@I@Z 0000000140016608     mfc140u:mfc140u.dll
 0002:00000610       __imp_??1CFormView@@UEAA@XZ 0000000140016610     mfc140u:mfc140u.dll
 0002:00000618       __imp_?DeleteItem@CComboBox@@UEAAXPEAUtagDELETEITEMSTRUCT@@@Z 0000000140016618     mfc140u:mfc140u.dll
 0002:00000620       __imp_?CompareItem@CComboBox@@UEAAHPEAUtagCOMPAREITEMSTRUCT@@@Z 0000000140016620     mfc140u:mfc140u.dll
 0002:00000628       __imp_?MeasureItem@CComboBox@@UEAAXPEAUtagMEASUREITEMSTRUCT@@@Z 0000000140016628     mfc140u:mfc140u.dll
 0002:00000630       __imp_?DrawItem@CComboBox@@UEAAXPEAUtagDRAWITEMSTRUCT@@@Z 0000000140016630     mfc140u:mfc140u.dll
 0002:00000638       __imp_?Create@CComboBox@@UEAAHKAEBUtagRECT@@PEAVCWnd@@I@Z 0000000140016638     mfc140u:mfc140u.dll
 0002:00000640       __imp_?OnChildNotify@CComboBox@@MEAAHI_K_JPEA_J@Z 0000000140016640     mfc140u:mfc140u.dll
 0002:00000648       __imp_?PreTranslateMessage@CWnd@@UEAAHPEAUtagMSG@@@Z 0000000140016648     mfc140u:mfc140u.dll
 0002:00000650       __imp_?OnCommand@CWnd@@MEAAH_K_J@Z 0000000140016650     mfc140u:mfc140u.dll
 0002:00000658       __imp_?GetMessageMap@CWnd@@MEBAPEBUAFX_MSGMAP@@XZ 0000000140016658     mfc140u:mfc140u.dll
 0002:00000660       __imp_?GetRuntimeClass@CComboBox@@UEBAPEAUCRuntimeClass@@XZ 0000000140016660     mfc140u:mfc140u.dll
 0002:00000668       __imp_??0CWnd@@QEAA@XZ     0000000140016668     mfc140u:mfc140u.dll
 0002:00000670       __imp_??1CComboBox@@UEAA@XZ 0000000140016670     mfc140u:mfc140u.dll
 0002:00000678       __imp_?GetRuntimeClass@CEdit@@UEBAPEAUCRuntimeClass@@XZ 0000000140016678     mfc140u:mfc140u.dll
 0002:00000680       __imp_??1CEdit@@UEAA@XZ    0000000140016680     mfc140u:mfc140u.dll
 0002:00000688       __imp_?DDX_Control@@YAXPEAVCDataExchange@@HAEAVCWnd@@@Z 0000000140016688     mfc140u:mfc140u.dll
 0002:00000690       __imp_?PreCreateWindow@CView@@MEAAHAEAUtagCREATESTRUCTW@@@Z 0000000140016690     mfc140u:mfc140u.dll
 0002:00000698       __imp_?GetWindowTextW@CWnd@@QEBAXAEAV?$CStringT@_WV?$StrTraitMFC_DLL@_WV?$ChTraitsCRT@_W@ATL@@@@@ATL@@@Z 0000000140016698     mfc140u:mfc140u.dll
 0002:000006a0       __imp_?SetWindowTextW@CWnd@@QEAAXPEB_W@Z 00000001400166a0     mfc140u:mfc140u.dll
 0002:000006a8       __imp_?GetDlgItem@CWnd@@QEBAPEAV1@H@Z 00000001400166a8     mfc140u:mfc140u.dll
 0002:000006b0       __imp_?PreTranslateMessage@CFormView@@MEAAHPEAUtagMSG@@@Z 00000001400166b0     mfc140u:mfc140u.dll
 0002:000006b8       __imp_?OnInitialUpdate@CFormView@@UEAAXXZ 00000001400166b8     mfc140u:mfc140u.dll
 0002:000006c0       __imp_?GetParentFrame@CWnd@@QEBAPEAVCFrameWnd@@XZ 00000001400166c0     mfc140u:mfc140u.dll
 0002:000006c8       __imp_?ResizeParentToFit@CScrollView@@QEAAXH@Z 00000001400166c8     mfc140u:mfc140u.dll
 0002:000006d0       __imp_??4?$CStringT@_WV?$StrTraitMFC_DLL@_WV?$ChTraitsCRT@_W@ATL@@@@@ATL@@QEAAAEAV01@PEB_W@Z 00000001400166d0     mfc140u:mfc140u.dll
 0002:000006d8       __imp_?GetBuffer@?$CSimpleStringT@_W$00@ATL@@QEAAPEA_WH@Z 00000001400166d8     mfc140u:mfc140u.dll
 0002:000006e0       __imp_?EnableWindow@CWnd@@QEAAHH@Z 00000001400166e0     mfc140u:mfc140u.dll
 0002:000006e8       __imp_?Concatenate@?$CSimpleStringT@_W$00@ATL@@KAXAEAV12@PEB_WH1H@Z 00000001400166e8     mfc140u:mfc140u.dll
 0002:000006f0       __imp_?GetManager@?$CStringT@_WV?$StrTraitMFC_DLL@_WV?$ChTraitsCRT@_W@ATL@@@@@ATL@@QEBAPEAUIAtlStringMgr@2@XZ 00000001400166f0     mfc140u:mfc140u.dll
 0002:000006f8       __imp_??0?$CStringT@_WV?$StrTraitMFC_DLL@_WV?$ChTraitsCRT@_W@ATL@@@@@ATL@@QEAA@PEAUIAtlStringMgr@1@@Z 00000001400166f8     mfc140u:mfc140u.dll
 0002:00000700       __imp_??0CFile@@QEAA@XZ    0000000140016700     mfc140u:mfc140u.dll
 0002:00000708       __imp_??1CFile@@UEAA@XZ    0000000140016708     mfc140u:mfc140u.dll
 0002:00000710       __imp_?Open@CFile@@UEAAHPEB_WIPEAVCFileException@@@Z 0000000140016710     mfc140u:mfc140u.dll
 0002:00000718       __imp_?Close@CFile@@UEAAXXZ 0000000140016718     mfc140u:mfc140u.dll
 0002:00000720       __imp_?Read@CFile@@UEAAIPEAXI@Z 0000000140016720     mfc140u:mfc140u.dll
 0002:00000728       __imp_?FromHandle@CGdiObject@@SAPEAV1@PEAX@Z 0000000140016728     mfc140u:mfc140u.dll
 0002:00000730       __imp_?PreTranslateMessage@CDialogEx@@UEAAHPEAUtagMSG@@@Z 0000000140016730     mfc140u:mfc140u.dll
 0002:00000738       __imp_?Attach@CGdiObject@@QEAAHPEAX@Z 0000000140016738     mfc140u:mfc140u.dll
 0002:00000740       __imp_??_V@YAXPEAX@Z       0000000140016740     mfc140u:mfc140u.dll
 0002:00000748       __imp_?AfxGetModuleState@@YAPEAVAFX_MODULE_STATE@@XZ 0000000140016748     mfc140u:mfc140u.dll
 0002:00000750       __imp_?BeginWaitCursor@CCmdTarget@@QEAAXXZ 0000000140016750     mfc140u:mfc140u.dll
 0002:00000758       __imp_?EndWaitCursor@CCmdTarget@@QEAAXXZ 0000000140016758     mfc140u:mfc140u.dll
 0002:00000760       __imp_?IsWindowEnabled@CWnd@@QEBAHXZ 0000000140016760     mfc140u:mfc140u.dll
 0002:00000768       __imp_??0?$CStringT@_WV?$StrTraitMFC_DLL@_WV?$ChTraitsCRT@_W@ATL@@@@@ATL@@QEAA@PEB_W@Z 0000000140016768     mfc140u:mfc140u.dll
 0002:00000770       __imp_??Y?$CStringT@_WV?$StrTraitMFC_DLL@_WV?$ChTraitsCRT@_W@ATL@@@@@ATL@@QEAAAEAV01@AEBV?$CSimpleStringT@_W$00@1@@Z 0000000140016770     mfc140u:mfc140u.dll
 0002:00000778       __imp_?OnDestroy@CView@@IEAAXXZ 0000000140016778     mfc140u:mfc140u.dll
 0002:00000780       __imp_??0CStdioFile@@QEAA@XZ 0000000140016780     mfc140u:mfc140u.dll
 0002:00000788       __imp_??1CStdioFile@@UEAA@XZ 0000000140016788     mfc140u:mfc140u.dll
 0002:00000790       __imp_?Open@CStdioFile@@UEAAHPEB_WIPEAVCFileException@@@Z 0000000140016790     mfc140u:mfc140u.dll
 0002:00000798       __imp_?GetLength@CStdioFile@@UEBA_KXZ 0000000140016798     mfc140u:mfc140u.dll
 0002:000007a0       __imp_??_U@YAPEAX_K@Z      00000001400167a0     mfc140u:mfc140u.dll
 0002:000007a8       __imp_?Read@CStdioFile@@UEAAIPEAXI@Z 00000001400167a8     mfc140u:mfc140u.dll
 0002:000007b0       __imp_?ReleaseBuffer@?$CSimpleStringT@_W$00@ATL@@QEAAXH@Z 00000001400167b0     mfc140u:mfc140u.dll
 0002:000007b8       __imp_?Close@CStdioFile@@UEAAXXZ 00000001400167b8     mfc140u:mfc140u.dll
 0002:000007c0       __imp_?Compare@?$CStringT@_WV?$StrTraitMFC_DLL@_WV?$ChTraitsCRT@_W@ATL@@@@@ATL@@QEBAHPEB_W@Z 00000001400167c0     mfc140u:mfc140u.dll
 0002:000007c8       __imp_?OnCmdMsg@CView@@UEAAHIHPEAXPEAUAFX_CMDHANDLERINFO@@@Z 00000001400167c8     mfc140u:mfc140u.dll
 0002:000007d0       __imp_?Create@CFormView@@MEAAHPEB_W0KAEBUtagRECT@@PEAVCWnd@@IPEAUCCreateContext@@@Z 00000001400167d0     mfc140u:mfc140u.dll
 0002:000007d8       __imp_?CalcWindowRect@CScrollView@@UEAAXPEAUtagRECT@@I@Z 00000001400167d8     mfc140u:mfc140u.dll
 0002:000007e0       __imp_?GetScrollBarCtrl@CView@@UEBAPEAVCScrollBar@@H@Z 00000001400167e0     mfc140u:mfc140u.dll
 0002:000007e8       __imp_?GetAccessibleChildCount@CWnd@@QEAAJXZ 00000001400167e8     mfc140u:mfc140u.dll
 0002:000007f0       __imp_?GetAccessibleChild@CWnd@@QEAAJUtagVARIANT@@PEAPEAUIDispatch@@@Z 00000001400167f0     mfc140u:mfc140u.dll
 0002:000007f8       __imp_?GetAccessibleName@CWnd@@QEAAJUtagVARIANT@@PEAPEA_W@Z 00000001400167f8     mfc140u:mfc140u.dll
 0002:00000800       __imp_?GetAccessibilityLocation@CWnd@@QEAAJUtagVARIANT@@PEAJ111@Z 0000000140016800     mfc140u:mfc140u.dll
 0002:00000808       __imp_?GetAccessibilityHitTest@CWnd@@QEAAJJJPEAUtagVARIANT@@@Z 0000000140016808     mfc140u:mfc140u.dll
 0002:00000810       __imp_?PostNcDestroy@CView@@MEAAXXZ 0000000140016810     mfc140u:mfc140u.dll
 0002:00000818       __imp_?SetOccDialogInfo@CFormView@@MEAAHPEAU_AFX_OCC_DIALOG_INFO@@@Z 0000000140016818     mfc140u:mfc140u.dll
 0002:00000820       __imp_?GetOccDialogInfo@CFormView@@MEAAPEAU_AFX_OCC_DIALOG_INFO@@XZ 0000000140016820     mfc140u:mfc140u.dll
 0002:00000828       __imp_?IsSelected@CView@@UEBAHPEBVCObject@@@Z 0000000140016828     mfc140u:mfc140u.dll
 0002:00000830       __imp_?OnScroll@CScrollView@@UEAAHIIH@Z 0000000140016830     mfc140u:mfc140u.dll
 0002:00000838       __imp_?OnScrollBy@CScrollView@@UEAAHVCSize@@H@Z 0000000140016838     mfc140u:mfc140u.dll
 0002:00000840       __imp_?OnDragEnter@CView@@UEAAKPEAVCOleDataObject@@KVCPoint@@@Z 0000000140016840     mfc140u:mfc140u.dll
 0002:00000848       __imp_?OnDragOver@CView@@UEAAKPEAVCOleDataObject@@KVCPoint@@@Z 0000000140016848     mfc140u:mfc140u.dll
 0002:00000850       __imp_?OnDragLeave@CView@@UEAAXXZ 0000000140016850     mfc140u:mfc140u.dll
 0002:00000858       __imp_?OnDrop@CView@@UEAAHPEAVCOleDataObject@@KVCPoint@@@Z 0000000140016858     mfc140u:mfc140u.dll
 0002:00000860       __imp_?UpdateFrameCounts@CDocument@@UEAAXXZ 0000000140016860     mfc140u:mfc140u.dll
 0002:00000868       __imp_?OnDragScroll@CView@@UEAAKKVCPoint@@@Z 0000000140016868     mfc140u:mfc140u.dll
 0002:00000870       __imp_?OnPrepareDC@CScrollView@@UEAAXPEAVCDC@@PEAUCPrintInfo@@@Z 0000000140016870     mfc140u:mfc140u.dll
 0002:00000878       __imp_?OnActivateView@CFormView@@MEAAXHPEAVCView@@0@Z 0000000140016878     mfc140u:mfc140u.dll
 0002:00000880       __imp_?OnActivateFrame@CFormView@@MEAAXIPEAVCFrameWnd@@@Z 0000000140016880     mfc140u:mfc140u.dll
 0002:00000888       __imp_?OnUpdate@CView@@MEAAXPEAV1@_JPEAVCObject@@@Z 0000000140016888     mfc140u:mfc140u.dll
 0002:00000890       __imp_?OnDraw@CFormView@@MEAAXPEAVCDC@@@Z 0000000140016890     mfc140u:mfc140u.dll
 0002:00000898       __imp_?OnPreparePrinting@CView@@MEAAHPEAUCPrintInfo@@@Z 0000000140016898     mfc140u:mfc140u.dll
 0002:000008a0       __imp_?OnBeginPrinting@CView@@MEAAXPEAVCDC@@PEAUCPrintInfo@@@Z 00000001400168a0     mfc140u:mfc140u.dll
 0002:000008a8       __imp_?OnPrint@CView@@MEAAXPEAVCDC@@PEAUCPrintInfo@@@Z 00000001400168a8     mfc140u:mfc140u.dll
 0002:000008b0       __imp_?OnEndPrinting@CView@@MEAAXPEAVCDC@@PEAUCPrintInfo@@@Z 00000001400168b0     mfc140u:mfc140u.dll
 0002:000008b8       __imp_?OnEndPrintPreview@CView@@MEAAXPEAVCDC@@PEAUCPrintInfo@@UtagPOINT@@PEAVCPreviewView@@@Z 00000001400168b8     mfc140u:mfc140u.dll
 0002:000008c0       __imp_?GetWheelScrollDistance@CScrollView@@UEAA?AVCSize@@V2@HH@Z 00000001400168c0     mfc140u:mfc140u.dll
 0002:000008c8       __imp_??0?$CStringT@DV?$StrTraitMFC_DLL@DV?$ChTraitsCRT@D@ATL@@@@@ATL@@QEAA@PEB_W@Z 00000001400168c8     mfc140u:mfc140u.dll
 0002:000008d0       __imp_??1?$CStringT@DV?$StrTraitMFC_DLL@DV?$ChTraitsCRT@D@ATL@@@@@ATL@@QEAA@XZ 00000001400168d0     mfc140u:mfc140u.dll
 0002:000008d8       __imp_?Left@?$CStringT@_WV?$StrTraitMFC_DLL@_WV?$ChTraitsCRT@_W@ATL@@@@@ATL@@QEBA?AV12@H@Z 00000001400168d8     mfc140u:mfc140u.dll
 0002:000008e0       __imp_?AfxWinMain@@YAHPEAUHINSTANCE__@@0PEA_WH@Z 00000001400168e0     mfc140u:mfc140u.dll
 0002:000008e8       __imp_?OnCommand@CDialogEx@@MEAAH_K_J@Z 00000001400168e8     mfc140u:mfc140u.dll
 0002:000008f0       __imp_?SetMenu@CWnd@@UEAAHPEAVCMenu@@@Z 00000001400168f0     mfc140u:mfc140u.dll
 0002:000008f8       __imp_?GetMenu@CWnd@@UEBAPEAVCMenu@@XZ 00000001400168f8     mfc140u:mfc140u.dll
 0002:00000900       __imp_?PreCreateWindow@CWnd@@UEAAHAEAUtagCREATESTRUCTW@@@Z 0000000140016900     mfc140u:mfc140u.dll
 0002:00000908       __imp_?OnCmdMsg@CDialog@@UEAAHIHPEAXPEAUAFX_CMDHANDLERINFO@@@Z 0000000140016908     mfc140u:mfc140u.dll
 0002:00000910       __imp_?GetRuntimeClass@CDialogEx@@UEBAPEAUCRuntimeClass@@XZ 0000000140016910     mfc140u:mfc140u.dll
 0002:00000918       __imp_?LoadSysPolicies@CWinApp@@UEAAHXZ 0000000140016918     mfc140u:mfc140u.dll
 0002:00000920       __imp_?LoadAppLangResourceDLL@CWinApp@@UEAAPEAUHINSTANCE__@@XZ 0000000140016920     mfc140u:mfc140u.dll
 0002:00000928       __imp_?RestartInstance@CWinApp@@UEAAHXZ 0000000140016928     mfc140u:mfc140u.dll
 0002:00000930       __imp_?IsTaskbarInteractionEnabled@CWinApp@@UEAAHXZ 0000000140016930     mfc140u:mfc140u.dll
 0002:00000938       __imp_?GetDataRecoveryHandler@CWinApp@@UEAAPEAVCDataRecoveryHandler@@XZ 0000000140016938     mfc140u:mfc140u.dll
 0002:00000940       __imp_?ApplicationRecoveryCallback@CWinApp@@UEAAKPEAX@Z 0000000140016940     mfc140u:mfc140u.dll
 0002:00000948       __imp_?RegisterWithRestartManager@CWinApp@@UEAAJHAEBV?$CStringT@_WV?$StrTraitMFC_DLL@_WV?$ChTraitsCRT@_W@ATL@@@@@ATL@@@Z 0000000140016948     mfc140u:mfc140u.dll
 0002:00000950       __imp_?RegisterWithRestartManager@CWinApp@@UEAAJPEB_WKP6AKPEAX@Z1KK@Z 0000000140016950     mfc140u:mfc140u.dll
 0002:00000958       __imp_?WinHelpInternal@CWinApp@@UEAAX_KI@Z 0000000140016958     mfc140u:mfc140u.dll
 0002:00000960       __imp_?HtmlHelpW@CWinApp@@UEAAX_KI@Z 0000000140016960     mfc140u:mfc140u.dll
 0002:00000968       __imp_?WinHelpW@CWinApp@@UEAAX_KI@Z 0000000140016968     mfc140u:mfc140u.dll
 0002:00000970       __imp_?OnDDECommand@CWinApp@@UEAAHPEA_W@Z 0000000140016970     mfc140u:mfc140u.dll
 0002:00000978       __imp_?DoWaitCursor@CWinApp@@UEAAXH@Z 0000000140016978     mfc140u:mfc140u.dll
 0002:00000980       __imp_?DoMessageBox@CWinApp@@UEAAHPEB_WII@Z 0000000140016980     mfc140u:mfc140u.dll
 0002:00000988       __imp_?SaveAllModified@CWinApp@@UEAAHXZ 0000000140016988     mfc140u:mfc140u.dll
 0002:00000990       __imp_?InitApplication@CWinApp@@UEAAHXZ 0000000140016990     mfc140u:mfc140u.dll
 0002:00000998       __imp_?AddToRecentFileList@CWinApp@@UEAAXPEB_W@Z 0000000140016998     mfc140u:mfc140u.dll
 0002:000009a0       __imp_?OpenDocumentFile@CWinApp@@UEAAPEAVCDocument@@PEB_W@Z 00000001400169a0     mfc140u:mfc140u.dll
 0002:000009a8       __imp_?OpenDocumentFile@CWinApp@@UEAAPEAVCDocument@@PEB_WH@Z 00000001400169a8     mfc140u:mfc140u.dll
 0002:000009b0       __imp_?Unregister@CWinApp@@UEAAHXZ 00000001400169b0     mfc140u:mfc140u.dll
 0002:000009b8       __imp_?Register@CWinApp@@UEAAHXZ 00000001400169b8     mfc140u:mfc140u.dll
 0002:000009c0       __imp_?InitLibId@CWinApp@@UEAAXXZ 00000001400169c0     mfc140u:mfc140u.dll
 0002:000009c8       __imp_?WriteProfileBinary@CWinApp@@UEAAHPEB_W0PEAEI@Z 00000001400169c8     mfc140u:mfc140u.dll
 0002:000009d0       __imp_?GetProfileBinary@CWinApp@@UEAAHPEB_W0PEAPEAEPEAI@Z 00000001400169d0     mfc140u:mfc140u.dll
 0002:000009d8       __imp_?WriteProfileStringW@CWinApp@@UEAAHPEB_W00@Z 00000001400169d8     mfc140u:mfc140u.dll
 0002:000009e0       __imp_?GetProfileStringW@CWinApp@@UEAA?AV?$CStringT@_WV?$StrTraitMFC_DLL@_WV?$ChTraitsCRT@_W@ATL@@@@@ATL@@PEB_W00@Z 00000001400169e0     mfc140u:mfc140u.dll
 0002:000009e8       __imp_?WriteProfileInt@CWinApp@@UEAAHPEB_W0H@Z 00000001400169e8     mfc140u:mfc140u.dll
 0002:000009f0       __imp_?GetProfileIntW@CWinApp@@UEAAIPEB_W0H@Z 00000001400169f0     mfc140u:mfc140u.dll
 0002:000009f8       __imp_?Delete@CWinThread@@UEAAXXZ 00000001400169f8     mfc140u:mfc140u.dll
 0002:00000a00       __imp_?GetMainWnd@CWinThread@@UEAAPEAVCWnd@@XZ 0000000140016a00     mfc140u:mfc140u.dll
 0002:00000a08       __imp_?ProcessMessageFilter@CWinThread@@UEAAHHPEAUtagMSG@@@Z 0000000140016a08     mfc140u:mfc140u.dll
 0002:00000a10       __imp_?ProcessWndProcException@CWinApp@@UEAA_JPEAVCException@@PEBUtagMSG@@@Z 0000000140016a10     mfc140u:mfc140u.dll
 0002:00000a18       __imp_?IsIdleMessage@CWinThread@@UEAAHPEAUtagMSG@@@Z 0000000140016a18     mfc140u:mfc140u.dll
 0002:00000a20       __imp_?OnIdle@CWinApp@@UEAAHJ@Z 0000000140016a20     mfc140u:mfc140u.dll
 0002:00000a28       __imp_?PumpMessage@CWinThread@@UEAAHXZ 0000000140016a28     mfc140u:mfc140u.dll
 0002:00000a30       __imp_?PreTranslateMessage@CWinThread@@UEAAHPEAUtagMSG@@@Z 0000000140016a30     mfc140u:mfc140u.dll
 0002:00000a38       __imp_??0CDocument@@QEAA@XZ 0000000140016a38     mfc140u:mfc140u.dll
 0002:00000a40       __imp_?GetInterfaceMap@CCmdTarget@@MEBAPEBUAFX_INTERFACEMAP@@XZ 0000000140016a40     mfc140u:mfc140u.dll
 0002:00000a48       __imp_?OnFinalRelease@CCmdTarget@@UEAAXXZ 0000000140016a48     mfc140u:mfc140u.dll
 0002:00000a50       __imp_?OnCmdMsg@CCmdTarget@@UEAAHIHPEAXPEAUAFX_CMDHANDLERINFO@@@Z 0000000140016a50     mfc140u:mfc140u.dll
 0002:00000a58       __imp_?GetRuntimeClass@CWinApp@@UEBAPEAUCRuntimeClass@@XZ 0000000140016a58     mfc140u:mfc140u.dll
 0002:00000a60       __imp_?DoModal@CDialog@@UEAA_JXZ 0000000140016a60     mfc140u:mfc140u.dll
 0002:00000a68       __imp_?GetThisMessageMap@CDialogEx@@KAPEBUAFX_MSGMAP@@XZ 0000000140016a68     mfc140u:mfc140u.dll
 0002:00000a70       __imp_?DoSave@CDocument@@UEAAHPEB_WH@Z 0000000140016a70     mfc140u:mfc140u.dll
 0002:00000a78       __imp_?GetRuntimeClass@CBrush@@UEBAPEAUCRuntimeClass@@XZ 0000000140016a78     mfc140u:mfc140u.dll
 0002:00000a80       __imp_?GetRuntimeClass@CGdiObject@@UEBAPEAUCRuntimeClass@@XZ 0000000140016a80     mfc140u:mfc140u.dll
 0002:00000a88       __imp_?DeleteObject@CGdiObject@@QEAAHXZ 0000000140016a88     mfc140u:mfc140u.dll
 0002:00000a90       __imp_??0?$CStringT@_WV?$StrTraitMFC_DLL@_WV?$ChTraitsCRT@_W@ATL@@@@@ATL@@QEAA@XZ 0000000140016a90     mfc140u:mfc140u.dll
 0002:00000a98       __imp_??1?$CStringT@_WV?$StrTraitMFC_DLL@_WV?$ChTraitsCRT@_W@ATL@@@@@ATL@@QEAA@XZ 0000000140016a98     mfc140u:mfc140u.dll
 0002:00000aa0       __imp_?Format@?$CStringT@_WV?$StrTraitMFC_DLL@_WV?$ChTraitsCRT@_W@ATL@@@@@ATL@@QEAAXPEB_WZZ 0000000140016aa0     mfc140u:mfc140u.dll
 0002:00000aa8       __imp_?AfxMessageBox@@YAHPEB_WII@Z 0000000140016aa8     mfc140u:mfc140u.dll
 0002:00000ab0       __imp_??1CDialog@@UEAA@XZ  0000000140016ab0     mfc140u:mfc140u.dll
 0002:00000ab8       __imp_??0CDialogEx@@QEAA@IPEAVCWnd@@@Z 0000000140016ab8     mfc140u:mfc140u.dll
 0002:00000ac0       __imp_?ExitInstance@CWinApp@@UEAAHXZ 0000000140016ac0     mfc140u:mfc140u.dll
 0002:00000ac8       __imp_?AfxOleTerm@@YAXH@Z  0000000140016ac8     mfc140u:mfc140u.dll
 0002:00000ad0       __imp_?ShowWindow@CWnd@@QEAAHH@Z 0000000140016ad0     mfc140u:mfc140u.dll
 0002:00000ad8       __imp_?ProcessShellCommand@CWinApp@@QEAAHAEAVCCommandLineInfo@@@Z 0000000140016ad8     mfc140u:mfc140u.dll
 0002:00000ae0       __imp_?ParseCommandLine@CWinApp@@QEAAXAEAVCCommandLineInfo@@@Z 0000000140016ae0     mfc140u:mfc140u.dll
 0002:00000ae8       __imp_??1CCommandLineInfo@@UEAA@XZ 0000000140016ae8     mfc140u:mfc140u.dll
 0002:00000af0       __imp_??0CCommandLineInfo@@QEAA@XZ 0000000140016af0     mfc140u:mfc140u.dll
 0002:00000af8       __imp_?AddDocTemplate@CWinApp@@QEAAXPEAVCDocTemplate@@@Z 0000000140016af8     mfc140u:mfc140u.dll
 0002:00000b00       __imp_??0CSingleDocTemplate@@QEAA@IPEAUCRuntimeClass@@00@Z 0000000140016b00     mfc140u:mfc140u.dll
 0002:00000b08       __imp_?LoadStdProfileSettings@CWinApp@@IEAAXI@Z 0000000140016b08     mfc140u:mfc140u.dll
 0002:00000b10       __imp_?SetRegistryKey@CWinApp@@IEAAXPEB_W@Z 0000000140016b10     mfc140u:mfc140u.dll
 0002:00000b18       __imp_?EnableTaskbarInteraction@CWinApp@@QEAAHH@Z 0000000140016b18     mfc140u:mfc140u.dll
 0002:00000b20       __imp_?AfxEnableControlContainer@@YAXPEAVCOccManager@@@Z 0000000140016b20     mfc140u:mfc140u.dll
 0002:00000b28       __imp_?AfxMessageBox@@YAHIII@Z 0000000140016b28     mfc140u:mfc140u.dll
 0002:00000b30       __imp_?AfxOleInit@@YAHXZ   0000000140016b30     mfc140u:mfc140u.dll
 0002:00000b38       __imp_?InitInstance@CWinApp@@UEAAHXZ 0000000140016b38     mfc140u:mfc140u.dll
 0002:00000b40       __imp_?OnDropEx@CView@@UEAAKPEAVCOleDataObject@@KKVCPoint@@@Z 0000000140016b40     mfc140u:mfc140u.dll
 0002:00000b48       __imp_?DoFileSave@CDocument@@UEAAHXZ 0000000140016b48     mfc140u:mfc140u.dll
 0002:00000b50       __imp_?SetAppID@CWinApp@@IEAAXPEB_W@Z 0000000140016b50     mfc140u:mfc140u.dll
 0002:00000b58       __imp_??1CWinApp@@UEAA@XZ  0000000140016b58     mfc140u:mfc140u.dll
 0002:00000b60       __imp_??0CWinApp@@QEAA@PEB_W@Z 0000000140016b60     mfc140u:mfc140u.dll
 0002:00000b68       __imp_?GetThisMessageMap@CWinApp@@KAPEBUAFX_MSGMAP@@XZ 0000000140016b68     mfc140u:mfc140u.dll
 0002:00000b70       __imp_?OnFilePrintSetup@CWinApp@@IEAAXXZ 0000000140016b70     mfc140u:mfc140u.dll
 0002:00000b78       __imp_?OnFileOpen@CWinApp@@IEAAXXZ 0000000140016b78     mfc140u:mfc140u.dll
 0002:00000b80       __imp_?OnFileNew@CWinApp@@IEAAXXZ 0000000140016b80     mfc140u:mfc140u.dll
 0002:00000b88       __imp_?OnHideMenuBar@CFrameWnd@@MEAAXXZ 0000000140016b88     mfc140u:mfc140u.dll
 0002:00000b90       __imp_?OnShowMenuBar@CFrameWnd@@MEAAXXZ 0000000140016b90     mfc140u:mfc140u.dll
 0002:00000b98       __imp_?ExitHelpMode@CFrameWnd@@UEAAXXZ 0000000140016b98     mfc140u:mfc140u.dll
 0002:00000ba0       __imp_?DelayUpdateFrameMenu@CFrameWnd@@UEAAXPEAUHMENU__@@@Z 0000000140016ba0     mfc140u:mfc140u.dll
 0002:00000ba8       __imp_?GetDefaultAccelerator@CFrameWnd@@UEAAPEAUHACCEL__@@XZ 0000000140016ba8     mfc140u:mfc140u.dll
 0002:00000bb0       __imp_?OnUpdateFrameMenu@CFrameWnd@@UEAAXPEAUHMENU__@@@Z 0000000140016bb0     mfc140u:mfc140u.dll
 0002:00000bb8       __imp_?OnUpdateFrameTitle@CFrameWnd@@UEAAXH@Z 0000000140016bb8     mfc140u:mfc140u.dll
 0002:00000bc0       __imp_?OnCreateClient@CFrameWnd@@MEAAHPEAUtagCREATESTRUCTW@@PEAUCCreateContext@@@Z 0000000140016bc0     mfc140u:mfc140u.dll
 0002:00000bc8       __imp_?NegotiateBorderSpace@CFrameWnd@@UEAAHIPEAUtagRECT@@@Z 0000000140016bc8     mfc140u:mfc140u.dll
 0002:00000bd0       __imp_?GetMessageBar@CFrameWnd@@UEAAPEAVCWnd@@XZ 0000000140016bd0     mfc140u:mfc140u.dll
 0002:00000bd8       __imp_?OnSetPreviewMode@CFrameWnd@@UEAAXHPEAUCPrintPreviewState@@@Z 0000000140016bd8     mfc140u:mfc140u.dll
 0002:00000be0       __imp_?GetMenuBarState@CFrameWnd@@UEBAKXZ 0000000140016be0     mfc140u:mfc140u.dll
 0002:00000be8       __imp_?SetMenuBarState@CFrameWnd@@UEAAHK@Z 0000000140016be8     mfc140u:mfc140u.dll
 0002:00000bf0       __imp_?GetMenuBarVisibility@CFrameWnd@@UEBAKXZ 0000000140016bf0     mfc140u:mfc140u.dll
 0002:00000bf8       __imp_?SetMenuBarVisibility@CFrameWnd@@UEAAXK@Z 0000000140016bf8     mfc140u:mfc140u.dll
 0002:00000c00       __imp_?ActivateFrame@CFrameWnd@@UEAAXH@Z 0000000140016c00     mfc140u:mfc140u.dll
 0002:00000c08       __imp_?RecalcLayout@CFrameWnd@@UEAAXH@Z 0000000140016c08     mfc140u:mfc140u.dll
 0002:00000c10       __imp_?GetMessageString@CFrameWnd@@UEBAXIAEAV?$CStringT@_WV?$StrTraitMFC_DLL@_WV?$ChTraitsCRT@_W@ATL@@@@@ATL@@@Z 0000000140016c10     mfc140u:mfc140u.dll
 0002:00000c18       __imp_?GetActiveFrame@CFrameWnd@@UEAAPEAV1@XZ 0000000140016c18     mfc140u:mfc140u.dll
 0002:00000c20       __imp_?GetActiveDocument@CFrameWnd@@UEAAPEAVCDocument@@XZ 0000000140016c20     mfc140u:mfc140u.dll
 0002:00000c28       __imp_?LoadFrame@CFrameWnd@@UEAAHIKPEAVCWnd@@PEAUCCreateContext@@@Z 0000000140016c28     mfc140u:mfc140u.dll
 0002:00000c30       __imp_?Create@CFrameWnd@@UEAAHPEB_W0KAEBUtagRECT@@PEAVCWnd@@0KPEAUCCreateContext@@@Z 0000000140016c30     mfc140u:mfc140u.dll
 0002:00000c38       __imp_?GetOccDialogInfo@CWnd@@MEAAPEAU_AFX_OCC_DIALOG_INFO@@XZ 0000000140016c38     mfc140u:mfc140u.dll
 0002:00000c40       __imp_?SetOccDialogInfo@CWnd@@MEAAHPEAU_AFX_OCC_DIALOG_INFO@@@Z 0000000140016c40     mfc140u:mfc140u.dll
 0002:00000c48       __imp_?CreateControlSite@CWnd@@MEAAHPEAVCOleControlContainer@@PEAPEAVCOleControlSite@@IAEBU_GUID@@@Z 0000000140016c48     mfc140u:mfc140u.dll
 0002:00000c50       __imp_?CreateControlContainer@CWnd@@MEAAHPEAPEAVCOleControlContainer@@@Z 0000000140016c50     mfc140u:mfc140u.dll
 0002:00000c58       __imp_?IsFrameWnd@CFrameWnd@@UEBAHXZ 0000000140016c58     mfc140u:mfc140u.dll
 0002:00000c60       __imp_?CheckAutoCenter@CWnd@@UEAAHXZ 0000000140016c60     mfc140u:mfc140u.dll
 0002:00000c68       __imp_?ResizeDynamicLayout@CWnd@@MEAAXXZ 0000000140016c68     mfc140u:mfc140u.dll
 0002:00000c70       __imp_?OnGesturePressAndTap@CWnd@@MEAAHVCPoint@@J@Z 0000000140016c70     mfc140u:mfc140u.dll
 0002:00000c78       __imp_?OnGestureTwoFingerTap@CWnd@@MEAAHVCPoint@@@Z 0000000140016c78     mfc140u:mfc140u.dll
 0002:00000c80       __imp_?OnGestureRotate@CWnd@@MEAAHVCPoint@@N@Z 0000000140016c80     mfc140u:mfc140u.dll
 0002:00000c88       __imp_?OnGesturePan@CWnd@@MEAAHVCPoint@@0@Z 0000000140016c88     mfc140u:mfc140u.dll
 0002:00000c90       __imp_?OnGestureZoom@CWnd@@MEAAHVCPoint@@J@Z 0000000140016c90     mfc140u:mfc140u.dll
 0002:00000c98       __imp_?GetGestureStatus@CWnd@@MEAAKVCPoint@@@Z 0000000140016c98     mfc140u:mfc140u.dll
 0002:00000ca0       __imp_?OnTouchInput@CWnd@@MEAAHVCPoint@@HHPEAUtagTOUCHINPUT@@@Z 0000000140016ca0     mfc140u:mfc140u.dll
 0002:00000ca8       __imp_?OnTouchInputs@CWnd@@MEAAHIPEAUtagTOUCHINPUT@@@Z 0000000140016ca8     mfc140u:mfc140u.dll
 0002:00000cb0       __imp_?OnChildNotify@CWnd@@MEAAHI_K_JPEA_J@Z 0000000140016cb0     mfc140u:mfc140u.dll
 0002:00000cb8       __imp_?PostNcDestroy@CFrameWnd@@MEAAXXZ 0000000140016cb8     mfc140u:mfc140u.dll
 0002:00000cc0       __imp_?DefWindowProcW@CWnd@@MEAA_JI_K_J@Z 0000000140016cc0     mfc140u:mfc140u.dll
 0002:00000cc8       __imp_?OnWndMsg@CWnd@@MEAAHI_K_JPEA_J@Z 0000000140016cc8     mfc140u:mfc140u.dll
 0002:00000cd0       __imp_?WindowProc@CWnd@@MEAA_JI_K_J@Z 0000000140016cd0     mfc140u:mfc140u.dll
 0002:00000cd8       __imp_?OnAmbientProperty@CWnd@@UEAAHPEAVCOleControlSite@@JPEAUtagVARIANT@@@Z 0000000140016cd8     mfc140u:mfc140u.dll
 0002:00000ce0       __imp_?PreTranslateMessage@CFrameWnd@@UEAAHPEAUtagMSG@@@Z 0000000140016ce0     mfc140u:mfc140u.dll
 0002:00000ce8       __imp_?EndModalState@CFrameWnd@@UEAAXXZ 0000000140016ce8     mfc140u:mfc140u.dll
 0002:00000cf0       __imp_?BeginModalState@CFrameWnd@@UEAAXXZ 0000000140016cf0     mfc140u:mfc140u.dll
 0002:00000cf8       __imp_?GetSuperWndProcAddr@CWnd@@MEAAPEAP6A_JPEAUHWND__@@I_K_J@ZXZ 0000000140016cf8     mfc140u:mfc140u.dll
 0002:00000d00       __imp_?OnNotify@CWnd@@MEAAH_K_JPEA_J@Z 0000000140016d00     mfc140u:mfc140u.dll
 0002:00000d08       __imp_?OnCommand@CFrameWnd@@MEAAH_K_J@Z 0000000140016d08     mfc140u:mfc140u.dll
 0002:00000d10       __imp_?CreateAccessibleProxy@CWnd@@UEAAJ_K_JPEA_J@Z 0000000140016d10     mfc140u:mfc140u.dll
 0002:00000d18       __imp_?SetProxy@CWnd@@UEAAJPEAUIAccessibleProxy@@@Z 0000000140016d18     mfc140u:mfc140u.dll
 0002:00000d20       __imp_?put_accValue@CWnd@@UEAAJUtagVARIANT@@PEA_W@Z 0000000140016d20     mfc140u:mfc140u.dll
 0002:00000d28       __imp_?put_accName@CWnd@@UEAAJUtagVARIANT@@PEA_W@Z 0000000140016d28     mfc140u:mfc140u.dll
 0002:00000d30       __imp_?accDoDefaultAction@CWnd@@UEAAJUtagVARIANT@@@Z 0000000140016d30     mfc140u:mfc140u.dll
 0002:00000d38       __imp_?accHitTest@CWnd@@UEAAJJJPEAUtagVARIANT@@@Z 0000000140016d38     mfc140u:mfc140u.dll
 0002:00000d40       __imp_?accNavigate@CWnd@@UEAAJJUtagVARIANT@@PEAU2@@Z 0000000140016d40     mfc140u:mfc140u.dll
 0002:00000d48       __imp_?accLocation@CWnd@@UEAAJPEAJ000UtagVARIANT@@@Z 0000000140016d48     mfc140u:mfc140u.dll
 0002:00000d50       __imp_?accSelect@CWnd@@UEAAJJUtagVARIANT@@@Z 0000000140016d50     mfc140u:mfc140u.dll
 0002:00000d58       __imp_?get_accDefaultAction@CWnd@@UEAAJUtagVARIANT@@PEAPEA_W@Z 0000000140016d58     mfc140u:mfc140u.dll
 0002:00000d60       __imp_?get_accSelection@CWnd@@UEAAJPEAUtagVARIANT@@@Z 0000000140016d60     mfc140u:mfc140u.dll
 0002:00000d68       __imp_?get_accFocus@CWnd@@UEAAJPEAUtagVARIANT@@@Z 0000000140016d68     mfc140u:mfc140u.dll
 0002:00000d70       __imp_?get_accKeyboardShortcut@CWnd@@UEAAJUtagVARIANT@@PEAPEA_W@Z 0000000140016d70     mfc140u:mfc140u.dll
 0002:00000d78       __imp_?get_accHelpTopic@CWnd@@UEAAJPEAPEA_WUtagVARIANT@@PEAJ@Z 0000000140016d78     mfc140u:mfc140u.dll
 0002:00000d80       __imp_?get_accHelp@CWnd@@UEAAJUtagVARIANT@@PEAPEA_W@Z 0000000140016d80     mfc140u:mfc140u.dll
 0002:00000d88       __imp_?get_accState@CWnd@@UEAAJUtagVARIANT@@PEAU2@@Z 0000000140016d88     mfc140u:mfc140u.dll
 0002:00000d90       __imp_?get_accRole@CWnd@@UEAAJUtagVARIANT@@PEAU2@@Z 0000000140016d90     mfc140u:mfc140u.dll
 0002:00000d98       __imp_?get_accDescription@CWnd@@UEAAJUtagVARIANT@@PEAPEA_W@Z 0000000140016d98     mfc140u:mfc140u.dll
 0002:00000da0       __imp_?get_accValue@CWnd@@UEAAJUtagVARIANT@@PEAPEA_W@Z 0000000140016da0     mfc140u:mfc140u.dll
 0002:00000da8       __imp_?get_accName@CWnd@@UEAAJUtagVARIANT@@PEAPEA_W@Z 0000000140016da8     mfc140u:mfc140u.dll
 0002:00000db0       __imp_?get_accChild@CWnd@@UEAAJUtagVARIANT@@PEAPEAUIDispatch@@@Z 0000000140016db0     mfc140u:mfc140u.dll
 0002:00000db8       __imp_?get_accChildCount@CWnd@@UEAAJPEAJ@Z 0000000140016db8     mfc140u:mfc140u.dll
 0002:00000dc0       __imp_?get_accParent@CWnd@@UEAAJPEAPEAUIDispatch@@@Z 0000000140016dc0     mfc140u:mfc140u.dll
 0002:00000dc8       __imp_?EnsureStdObj@CWnd@@UEAAJXZ 0000000140016dc8     mfc140u:mfc140u.dll
 0002:00000dd0       __imp_?OnDrawIconicThumbnailOrLivePreview@CWnd@@UEAAXAEAVCDC@@VCRect@@VCSize@@HAEAH@Z 0000000140016dd0     mfc140u:mfc140u.dll
 0002:00000dd8       __imp_?EndModalLoop@CWnd@@UEAAXH@Z 0000000140016dd8     mfc140u:mfc140u.dll
 0002:00000de0       __imp_?ContinueModal@CWnd@@UEAAHXZ 0000000140016de0     mfc140u:mfc140u.dll
 0002:00000de8       __imp_?WinHelpInternal@CWnd@@UEAAX_KI@Z 0000000140016de8     mfc140u:mfc140u.dll
 0002:00000df0       __imp_?HtmlHelpW@CWnd@@UEAAX_KI@Z 0000000140016df0     mfc140u:mfc140u.dll
 0002:00000df8       __imp_?WinHelpW@CWnd@@UEAAX_KI@Z 0000000140016df8     mfc140u:mfc140u.dll
 0002:00000e00       __imp_?GetScrollBarCtrl@CWnd@@UEBAPEAVCScrollBar@@H@Z 0000000140016e00     mfc140u:mfc140u.dll
 0002:00000e08       __imp_?OnToolHitTest@CWnd@@UEBA_JVCPoint@@PEAUtagTOOLINFOW@@@Z 0000000140016e08     mfc140u:mfc140u.dll
 0002:00000e10       __imp_?SetMenu@CFrameWnd@@UEAAHPEAVCMenu@@@Z 0000000140016e10     mfc140u:mfc140u.dll
 0002:00000e18       __imp_?GetMenu@CFrameWnd@@UEBAPEAVCMenu@@XZ 0000000140016e18     mfc140u:mfc140u.dll
 0002:00000e20       __imp_?CalcWindowRect@CWnd@@UEAAXPEAUtagRECT@@I@Z 0000000140016e20     mfc140u:mfc140u.dll
 0002:00000e28       __imp_?DestroyWindow@CWnd@@UEAAHXZ 0000000140016e28     mfc140u:mfc140u.dll
 0002:00000e30       __imp_?CreateEx@CWnd@@UEAAHKPEB_W0KHHHHPEAUHWND__@@PEAUHMENU__@@PEAX@Z 0000000140016e30     mfc140u:mfc140u.dll
 0002:00000e38       __imp_?CreateEx@CWnd@@UEAAHKPEB_W0KAEBUtagRECT@@PEAV1@IPEAX@Z 0000000140016e38     mfc140u:mfc140u.dll
 0002:00000e40       __imp_?Create@CWnd@@UEAAHPEB_W0KAEBUtagRECT@@PEAV1@IPEAUCCreateContext@@@Z 0000000140016e40     mfc140u:mfc140u.dll
 0002:00000e48       __imp_?PreSubclassWindow@CWnd@@UEAAXXZ 0000000140016e48     mfc140u:mfc140u.dll
 0002:00000e50       __imp_?GetConnectionHook@CCmdTarget@@MEAAPEAUIConnectionPoint@@AEBU_GUID@@@Z 0000000140016e50     mfc140u:mfc140u.dll
 0002:00000e58       __imp_?GetExtraConnectionPoints@CCmdTarget@@MEAAHPEAVCPtrArray@@@Z 0000000140016e58     mfc140u:mfc140u.dll
 0002:00000e60       __imp_?GetInterfaceHook@CCmdTarget@@UEAAPEAUIUnknown@@PEBX@Z 0000000140016e60     mfc140u:mfc140u.dll
 0002:00000e68       __imp_?OnCreateAggregates@CCmdTarget@@UEAAHXZ 0000000140016e68     mfc140u:mfc140u.dll
 0002:00000e70       __imp_?GetEventSinkMap@CCmdTarget@@MEBAPEBUAFX_EVENTSINKMAP@@XZ 0000000140016e70     mfc140u:mfc140u.dll
 0002:00000e78       __imp_?GetInterfaceMap@CWnd@@MEBAPEBUAFX_INTERFACEMAP@@XZ 0000000140016e78     mfc140u:mfc140u.dll
 0002:00000e80       __imp_?GetConnectionMap@CCmdTarget@@MEBAPEBUAFX_CONNECTIONMAP@@XZ 0000000140016e80     mfc140u:mfc140u.dll
 0002:00000e88       __imp_?GetDispatchMap@CCmdTarget@@MEBAPEBUAFX_DISPMAP@@XZ 0000000140016e88     mfc140u:mfc140u.dll
 0002:00000e90       __imp_?GetCommandMap@CCmdTarget@@MEBAPEBUAFX_OLECMDMAP@@XZ 0000000140016e90     mfc140u:mfc140u.dll
 0002:00000e98       __imp_?GetTypeLib@CCmdTarget@@UEAAJKPEAPEAUITypeLib@@@Z 0000000140016e98     mfc140u:mfc140u.dll
 0002:00000ea0       __imp_?GetTypeLibCache@CCmdTarget@@UEAAPEAVCTypeLibCache@@XZ 0000000140016ea0     mfc140u:mfc140u.dll
 0002:00000ea8       __imp_?GetTypeInfoCount@CCmdTarget@@UEAAIXZ 0000000140016ea8     mfc140u:mfc140u.dll
 0002:00000eb0       __imp_?GetDispatchIID@CCmdTarget@@UEAAHPEAU_GUID@@@Z 0000000140016eb0     mfc140u:mfc140u.dll
 0002:00000eb8       __imp_?IsInvokeAllowed@CCmdTarget@@UEAAHJ@Z 0000000140016eb8     mfc140u:mfc140u.dll
 0002:00000ec0       __imp_?GetThisMessageMap@CDocument@@KAPEBUAFX_MSGMAP@@XZ 0000000140016ec0     mfc140u:mfc140u.dll
 0002:00000ec8       __imp_?OnFinalRelease@CWnd@@UEAAXXZ 0000000140016ec8     mfc140u:mfc140u.dll
 0002:00000ed0       __imp_?OnCmdMsg@CFrameWnd@@UEAAHIHPEAXPEAUAFX_CMDHANDLERINFO@@@Z 0000000140016ed0     mfc140u:mfc140u.dll
 0002:00000ed8       __imp_?PreCreateWindow@CFrameWnd@@MEAAHAEAUtagCREATESTRUCTW@@@Z 0000000140016ed8     mfc140u:mfc140u.dll
 0002:00000ee0       __imp_?DockControlBar@CFrameWnd@@QEAAXPEAVCControlBar@@IPEBUtagRECT@@@Z 0000000140016ee0     mfc140u:mfc140u.dll
 0002:00000ee8       __imp_?EnableDocking@CFrameWnd@@QEAAXK@Z 0000000140016ee8     mfc140u:mfc140u.dll
 0002:00000ef0       __imp_?EnableDocking@CControlBar@@QEAAXK@Z 0000000140016ef0     mfc140u:mfc140u.dll
 0002:00000ef8       __imp_?SetIndicators@CStatusBar@@QEAAHPEBIH@Z 0000000140016ef8     mfc140u:mfc140u.dll
 0002:00000f00       __imp_?LoadToolBar@CToolBar@@QEAAHPEB_W@Z 0000000140016f00     mfc140u:mfc140u.dll
 0002:00000f08       __imp_?OnCreate@CFrameWnd@@IEAAHPEAUtagCREATESTRUCTW@@@Z 0000000140016f08     mfc140u:mfc140u.dll
 0002:00000f10       __imp_??1CStatusBar@@UEAA@XZ 0000000140016f10     mfc140u:mfc140u.dll
 0002:00000f18       __imp_??0CStatusBar@@QEAA@XZ 0000000140016f18     mfc140u:mfc140u.dll
 0002:00000f20       __imp_??1CToolBar@@UEAA@XZ 0000000140016f20     mfc140u:mfc140u.dll
 0002:00000f28       __imp_??0CToolBar@@QEAA@XZ 0000000140016f28     mfc140u:mfc140u.dll
 0002:00000f30       __imp_??1CFrameWnd@@UEAA@XZ 0000000140016f30     mfc140u:mfc140u.dll
 0002:00000f38       __imp_??0CFrameWnd@@QEAA@XZ 0000000140016f38     mfc140u:mfc140u.dll
 0002:00000f40       __imp_?GetThisClass@CDocument@@SAPEAUCRuntimeClass@@XZ 0000000140016f40     mfc140u:mfc140u.dll
 0002:00000f48       __imp_?PreInitDialog@CDialog@@MEAAXXZ 0000000140016f48     mfc140u:mfc140u.dll
 0002:00000f50       __imp_?PreCloseFrame@CDocument@@UEAAXPEAVCFrameWnd@@@Z 0000000140016f50     mfc140u:mfc140u.dll
 0002:00000f58       __imp_?OnCancel@CDialog@@MEAAXXZ 0000000140016f58     mfc140u:mfc140u.dll
 0002:00000f60       __imp_?SaveModified@CDocument@@UEAAHXZ 0000000140016f60     mfc140u:mfc140u.dll
 0002:00000f68       __imp_?CanCloseFrame@CDocument@@UEAAHPEAVCFrameWnd@@@Z 0000000140016f68     mfc140u:mfc140u.dll
 0002:00000f70       __imp_?OnDocumentEvent@CDocument@@UEAAXW4DocumentEvent@1@@Z 0000000140016f70     mfc140u:mfc140u.dll
 0002:00000f78       __imp_?OnRichPreviewUnload@CDocument@@UEAAXXZ 0000000140016f78     mfc140u:mfc140u.dll
 0002:00000f80       __imp_?OnOK@CDialog@@MEAAXXZ 0000000140016f80     mfc140u:mfc140u.dll
 0002:00000f88       __imp_?OnSetFont@CDialog@@UEAAXPEAVCFont@@@Z 0000000140016f88     mfc140u:mfc140u.dll
 0002:00000f90       __imp_?OnInitDialog@CDialog@@UEAAHXZ 0000000140016f90     mfc140u:mfc140u.dll
 0002:00000f98       __imp_?ReleaseFile@CDocument@@UEAAXPEAVCFile@@H@Z 0000000140016f98     mfc140u:mfc140u.dll
 0002:00000fa0       __imp_?GetFile@CDocument@@UEAAPEAVCFile@@PEB_WIPEAVCFileException@@@Z 0000000140016fa0     mfc140u:mfc140u.dll
 0002:00000fa8       __imp_?CreateIndirect@CDialog@@UEAAHPEBUDLGTEMPLATE@@PEAVCWnd@@PEAX@Z 0000000140016fa8     mfc140u:mfc140u.dll
 0002:00000fb0       __imp_?ReportSaveLoadException@CDocument@@UEAAXPEB_WPEAVCException@@HI@Z 0000000140016fb0     mfc140u:mfc140u.dll
 0002:00000fb8       __imp_?OnCloseDocument@CDocument@@UEAAXXZ 0000000140016fb8     mfc140u:mfc140u.dll
 0002:00000fc0       __imp_?OnSaveDocument@CDocument@@UEAAHPEB_W@Z 0000000140016fc0     mfc140u:mfc140u.dll
 0002:00000fc8       __imp_?OnOpenDocument@CDocument@@UEAAHPEB_W@Z 0000000140016fc8     mfc140u:mfc140u.dll
 0002:00000fd0       __imp_?DeleteContents@CDocument@@UEAAXXZ 0000000140016fd0     mfc140u:mfc140u.dll
 0002:00000fd8       __imp_?OnChangedViewList@CDocument@@UEAAXXZ 0000000140016fd8     mfc140u:mfc140u.dll
 0002:00000fe0       __imp_?GetNextView@CDocument@@UEBAPEAVCView@@AEAPEAU__POSITION@@@Z 0000000140016fe0     mfc140u:mfc140u.dll
 0002:00000fe8       __imp_?GetFirstViewPosition@CDocument@@UEBAPEAU__POSITION@@XZ 0000000140016fe8     mfc140u:mfc140u.dll
 0002:00000ff0       __imp_?ClearPathName@CDocument@@UEAAXXZ 0000000140016ff0     mfc140u:mfc140u.dll
 0002:00000ff8       __imp_?SetPathName@CDocument@@UEAAXPEB_WH@Z 0000000140016ff8     mfc140u:mfc140u.dll
 0002:00001000       __imp_?SetTitle@CDocument@@UEAAXPEB_W@Z 0000000140017000     mfc140u:mfc140u.dll
 0002:00001008       __imp_?CreateIndirect@CDialog@@UEAAHPEAXPEAVCWnd@@@Z 0000000140017008     mfc140u:mfc140u.dll
 0002:00001010       __imp_?Create@CDialog@@UEAAHPEB_WPEAVCWnd@@@Z 0000000140017010     mfc140u:mfc140u.dll
 0002:00001018       __imp_?LoadDocumentFromStream@CDocument@@UEAAJPEAUIStream@@K@Z 0000000140017018     mfc140u:mfc140u.dll
 0002:00001020       __imp_?BeginReadChunks@CDocument@@UEAAXXZ 0000000140017020     mfc140u:mfc140u.dll
 0002:00001028       __imp_?GetThumbnail@CDocument@@UEAAHIPEAPEAUHBITMAP__@@PEAW4WTS_ALPHATYPE@@@Z 0000000140017028     mfc140u:mfc140u.dll
 0002:00001030       __imp_?ClearChunkList@CDocument@@UEAAXXZ 0000000140017030     mfc140u:mfc140u.dll
 0002:00001038       __imp_?SetChunkValue@CDocument@@UEAAHPEAUIFilterChunkValue@ATL@@@Z 0000000140017038     mfc140u:mfc140u.dll
 0002:00001040       __imp_?ReadNextChunkValue@CDocument@@UEAAHPEAPEAUIFilterChunkValue@ATL@@@Z 0000000140017040     mfc140u:mfc140u.dll
 0002:00001048       __imp_?RemoveChunk@CDocument@@UEAAXAEBU_GUID@@K@Z 0000000140017048     mfc140u:mfc140u.dll
 0002:00001050       __imp_?FindChunk@CDocument@@UEAAPEAU__POSITION@@AEBU_GUID@@K@Z 0000000140017050     mfc140u:mfc140u.dll
 0002:00001058       __imp_?Delete@CException@@QEAAXXZ 0000000140017058     mfc140u:mfc140u.dll
 0002:00001060       __imp_?GetInterfaceMap@CDocument@@MEBAPEBUAFX_INTERFACEMAP@@XZ 0000000140017060     mfc140u:mfc140u.dll
 0002:00001068       __imp_?OnFinalRelease@CDocument@@UEAAXXZ 0000000140017068     mfc140u:mfc140u.dll
 0002:00001070       __imp_?OnCmdMsg@CDocument@@UEAAHIHPEAXPEAUAFX_CMDHANDLERINFO@@@Z 0000000140017070     mfc140u:mfc140u.dll
 0002:00001078       __imp_?GetOccDialogInfo@CDialog@@MEAAPEAU_AFX_OCC_DIALOG_INFO@@XZ 0000000140017078     mfc140u:mfc140u.dll
 0002:00001080       __imp_?SetOccDialogInfo@CDialog@@MEAAHPEAU_AFX_OCC_DIALOG_INFO@@@Z 0000000140017080     mfc140u:mfc140u.dll
 0002:00001088       __imp_?OnNewDocument@CDocument@@UEAAHXZ 0000000140017088     mfc140u:mfc140u.dll
 0002:00001090       __imp_?IsFrameWnd@CWnd@@UEBAHXZ 0000000140017090     mfc140u:mfc140u.dll
 0002:00001098       __imp_??1CDialogImpl@@MEAA@XZ 0000000140017098     mfc140u:mfc140u.dll
 0002:000010a0       __imp_??1CDocument@@UEAA@XZ 00000001400170a0     mfc140u:mfc140u.dll
 0002:000010a8       __imp_?CheckAutoCenter@CDialog@@UEAAHXZ 00000001400170a8     mfc140u:mfc140u.dll
 0002:000010b0       __imp_?Run@CWinApp@@UEAAHXZ 00000001400170b0     mfc140u:mfc140u.dll
 0002:000010b8       __imp_?PostNcDestroy@CWnd@@MEAAXXZ 00000001400170b8     mfc140u:mfc140u.dll
 0002:000010c0       __imp_?GetThisMessageMap@CFrameWnd@@KAPEBUAFX_MSGMAP@@XZ 00000001400170c0     mfc140u:mfc140u.dll
 0002:000010c8       __imp_?GetThisClass@CFrameWnd@@SAPEAUCRuntimeClass@@XZ 00000001400170c8     mfc140u:mfc140u.dll
 0002:000010d0       __imp_??2@YAPEAX_K@Z       00000001400170d0     mfc140u:mfc140u.dll
 0002:000010d8       __imp_?GetRuntimeClass@CFont@@UEBAPEAUCRuntimeClass@@XZ 00000001400170d8     mfc140u:mfc140u.dll
 0002:000010e0       __imp_??3@YAXPEAX@Z        00000001400170e0     mfc140u:mfc140u.dll
 0002:000010e8       \177mfc140u_NULL_THUNK_DATA 00000001400170e8     mfc140u:mfc140u.dll
 0002:000010f0       __imp_CoInitialize         00000001400170f0     ole32:ole32.dll
 0002:000010f8       __imp_CoCreateInstance     00000001400170f8     ole32:ole32.dll
 0002:00001100       \177ole32_NULL_THUNK_DATA  0000000140017100     ole32:ole32.dll
 0002:00001108       __guard_check_icall_fptr   0000000140017108     msvcrt:guard_support.obj
 0002:00001110       __guard_xfg_check_icall_fptr 0000000140017110     msvcrt:guard_support.obj
 0002:00001118       __guard_dispatch_icall_fptr 0000000140017118     msvcrt:guard_support.obj
 0002:00001120       __guard_xfg_dispatch_icall_fptr 0000000140017120     msvcrt:guard_support.obj
 0002:00001128       __guard_xfg_table_dispatch_icall_fptr 0000000140017128     msvcrt:guard_support.obj
 0002:00001130       __castguard_check_failure_os_handled_fptr 0000000140017130     msvcrt:guard_support.obj
 0002:00001138       __guard_memcpy_fptr        0000000140017138     vcruntime:softmemtag.obj
 0002:00001140       __xc_a                     0000000140017140     msvcrt:initializers.obj
 0002:00001178       __xc_z                     0000000140017178     msvcrt:initializers.obj
 0002:00001180       __xi_a                     0000000140017180     msvcrt:initializers.obj
 0002:00001198       __xi_z                     0000000140017198     msvcrt:initializers.obj
 0002:000011a0       __xl_a                     00000001400171a0     msvcrt:tlssup.obj
 0002:000011a8       __xl_z                     00000001400171a8     msvcrt:tlssup.obj
 0002:000011b0       __xp_a                     00000001400171b0     msvcrt:initializers.obj
 0002:000011b8       __xp_z                     00000001400171b8     msvcrt:initializers.obj
 0002:000011c0       __xt_a                     00000001400171c0     msvcrt:initializers.obj
 0002:000011c8       __xt_z                     00000001400171c8     msvcrt:initializers.obj
 0002:000011e8       ??_7type_info@@6B@         00000001400171e8     msvcrt:std_type_info_static.obj
 0002:000011f0       __xmm@ffffffffffffffffffffffffffffffff 00000001400171f0     msvcrt:utility.obj
 0002:00001210       IID_IUnknown               0000000140017210     uuid:unknwn_i.obj
 0002:00001220       GUID_ATLVer110             0000000140017220     atls:atlbase.obj
 0002:00001230       ??_C@_1IC@ONKHOIDK@?$AAE?$AAR?$AAR?$AAO?$AAR?$AA?5?$AA?3?$AA?5?$AAU?$AAn?$AAa?$AAb?$AAl?$AAe?$AA?5@ 0000000140017230     atls:atlbase.obj
 0002:000012b8       ??_7_com_error@@6B@        00000001400172b8     comsuppw:comraise.obj
 0002:000037f0       CLSID_XMLHTTP60            00000001400197f0     msxml6:msxml6_i.obj
 0002:00003800       ??_C@_0L@GOKPKJAL@CMainFrame@ 0000000140019800     MainFrm.obj
 0002:00003818       ??_7CMainFrame@@6B@        0000000140019818     MainFrm.obj
 0002:00003c00       ?classCMainFrame@CMainFrame@@2UCRuntimeClass@@B 0000000140019c00     MainFrm.obj
 0002:00003c30       ??_C@_1DA@BEMNJDFC@?$AAM?$AAF?$AAC?$AAE?$AAd?$AAi?$AAt?$AA?4?$AAA?$AAp?$AAp?$AAI?$AAD?$AA?4?$AAN@ 0000000140019c30     MFCEdit.obj
 0002:00003c60       ??_C@_1EE@HOJFMPCP@?$PP?$KC?$PP?W?$PP?j?$PP?$LB?$PP?$PM?$PP?$LH?$PP?g?$PP?s?$AA?5?$PP?$KG?$PP?$KD?$PP?$LG?$PP?$PM?$PP?I?$AAg@ 0000000140019c60     MFCEdit.obj
 0002:00003ce0       ??_7CBrush@@6B@            0000000140019ce0     MFCEdit.obj
 0002:00003d10       ??_7CGdiObject@@6B@        0000000140019d10     MFCEdit.obj
 0002:00003d38       ??_C@_1CC@GGIAOFGJ@?$AA?$CF?$AAT?$AAs?$AA?5?$AA?$CI?$AA?$CF?$AAT?$AAs?$AA?3?$AA?$CF?$AAd?$AA?$CJ?$AA?6?$AA?$CF?$AAT@ 0000000140019d38     MFCEdit.obj
 0002:00003d60       ??_C@_1OA@CJADGOOE@?$AAC?$AA?3?$AA?2?$AAP?$AAr?$AAo?$AAg?$AAr?$AAa?$AAm?$AA?5?$AAF?$AAi?$AAl?$AAe@ 0000000140019d60     MFCEdit.obj
 0002:00003e40       ??_C@_1DO@DFDGGJKE@?$AAE?$AAx?$AAc?$AAe?$AAp?$AAt?$AAi?$AAo?$AAn?$AA?5?$AAt?$AAh?$AAr?$AAo?$AAw@ 0000000140019e40     MFCEdit.obj
 0002:00003e80       ??_C@_1BK@CAEGKIAC@?$AA?$CF?$AAT?$AAs?$AA?5?$AA?$CI?$AA?$CF?$AAT?$AAs?$AA?3?$AA?$CF?$AAd?$AA?$CJ@ 0000000140019e80     MFCEdit.obj
 0002:00003ea8       ??_7CAboutDlg@@6B@         0000000140019ea8     MFCEdit.obj
 0002:000041d8       ??_7CMFCEditApp@@6B@       000000014001a1d8     MFCEdit.obj
 0002:000044c0       ??_C@_0M@IOLAIHKM@CMFCEditDoc@ 000000014001a4c0     MFCEditDoc.obj
 0002:000044d8       ??_7IDocument@ATL@@6B@     000000014001a4d8     MFCEditDoc.obj
 0002:00004548       ??_7CDocumentAdapter@CDocument@@6B@ 000000014001a548     MFCEditDoc.obj
 0002:000045b8       ??_7CMFCEditDoc@@6B@       000000014001a5b8     MFCEditDoc.obj
 0002:00004818       ?classCMFCEditDoc@CMFCEditDoc@@2UCRuntimeClass@@B 000000014001a818     MFCEditDoc.obj
 0002:00004848       ??_C@_13KDLDGPGJ@?$AA?7@   000000014001a848     MFCEditView.obj
 0002:00004850       ??_C@_0N@IEFGFHPJ@CMFCEditView@ 000000014001a850     MFCEditView.obj
 0002:00004860       ??_C@_17CEAMNBIG@?$AAA?$AAI?$AAQ@ 000000014001a860     MFCEditView.obj
 0002:00004868       ??_C@_1BK@PBGNBLKL@?$AAv?$AAa?$AAr?$AA?5?$AAa?$AA?0?$AAb?$AA?0?$AAc?$AA?$DL?$AA?$AN?$AA?6@ 000000014001a868     MFCEditView.obj
 0002:00004888       ??_C@_1CI@GFPCKMDE@?$AA?$AN?$AA?6?$AAf?$AAu?$AAn?$AAc?$AA?5?$AAt?$AAe?$AAm?$AAp?$AAl?$AAa?$AAt?$AAe@ 000000014001a888     MFCEditView.obj
 0002:000048b0       ??_C@_1CK@MFPOILEG@?$AAb?$AAe?$AAg?$AAi?$AAn?$AA?$AN?$AA?6?$AA?7?$AA?$AN?$AA?6?$AA?7?$AA?$AN?$AA?6?$AAe?$AAn@ 000000014001a8b0     MFCEditView.obj
 0002:000048dc       ??_C@_15PCEAIKAA@?$AA?4?$AA?2@ 000000014001a8dc     MFCEditView.obj
 0002:000048e8       ??_C@_1BI@FLCGNDFP@?$AAo?$AAu?$AAt?$AAp?$AAu?$AAt?$AA?5?$AAv?$AAi?$AAe?$AAw@ 000000014001a8e8     MFCEditView.obj
 0002:00004900       ??_C@_19HMEDOBKD@?$PP?a?$PP?$KE?$PP?j?$PP?$KK@ 000000014001a900     MFCEditView.obj
 0002:00004910       ??_C@_1M@ECCAGBOJ@?$AAM?$AAS?$AA?5?$AA?$AO?$AA?$BN@ 000000014001a910     MFCEditView.obj
 0002:00004920       ??_C@_1BE@OMMHOOBI@?$AAF?$AAi?$AAr?$AAa?$AA?5?$AAC?$AAo?$AAd?$AAe@ 000000014001a920     MFCEditView.obj
 0002:00004938       ??_C@_1BK@JGKGLEIF@?$AAs?$AAc?$AAr?$AAi?$AAp?$AAt?$AA?2?$AA?$CK?$AA?4?$AAt?$AAx?$AAt@ 000000014001a938     MFCEditView.obj
 0002:00004958       ??_C@_1BC@KMHABLMG@?$AAi?$AAn?$AAi?$AAt?$AA?4?$AAb?$AAi?$AAn@ 000000014001a958     MFCEditView.obj
 0002:0000496c       ??_C@_03HAPOJHBM@GET@      000000014001a96c     MFCEditView.obj
 0002:00004970       ??_C@_1EM@NCBDLPKG@?$AAM?$AAo?$AAz?$AAi?$AAl?$AAl?$AAa?$AA?1?$AA5?$AA?4?$AA0?$AA?5?$AA?$CI?$AAc?$AAo@ 000000014001a970     MFCEditView.obj
 0002:000049c0       ??_C@_1BG@OILBOCEN@?$AAU?$AAs?$AAe?$AAr?$AA?9?$AAA?$AAg?$AAe?$AAn?$AAt@ 000000014001a9c0     MFCEditView.obj
 0002:000049d8       ??_C@_15JNBOKNOG@?$AA?$AN?$AA?6@ 000000014001a9d8     MFCEditView.obj
 0002:000049e0       ??_C@_13EBCNDICG@?$AA?3@   000000014001a9e0     MFCEditView.obj
 0002:000049e8       ??_C@_1O@PHBBLDEN@?$AAr?$AAe?$AAs?$AAu?$AAl?$AAt@ 000000014001a9e8     MFCEditView.obj
 0002:000049f8       ??_C@_19NKDEKIPM@?$AAj?$AAs?$AAo?$AAn@ 000000014001a9f8     MFCEditView.obj
 0002:00004a08       ??_C@_1BE@MMJBFEGG@?$AAQ?$AAu?$AAe?$AAr?$AAy?$AA?5?$AAe?$AAr?$AAr@ 000000014001aa08     MFCEditView.obj
 0002:00004a20       ??_C@_1BA@JJCBNDCA@?$AAi?$AAn?$AAe?$AAt?$AAg?$AAe?$AAt@ 000000014001aa20     MFCEditView.obj
 0002:00004a30       ??_C@_1M@KBCLFMHN@?$AAv?$AAa?$AAl?$AAu?$AAe@ 000000014001aa30     MFCEditView.obj
 0002:00004a40       ??_C@_1BO@EPAFOIHD@?$AAr?$AAe?$AAa?$AAd?$AA_?$AAf?$AAi?$AAl?$AAe?$AA_?$AAu?$AAt?$AAf?$AA8@ 000000014001aa40     MFCEditView.obj
 0002:00004a60       ??_C@_1BC@DNLDLPMC@?$AAl?$AAo?$AAa?$AAd?$AAu?$AAt?$AAf?$AA8@ 000000014001aa60     MFCEditView.obj
 0002:00004a78       ??_C@_1BA@ICANLBCA@?$AAs?$AAu?$AAc?$AAc?$AAe?$AAs?$AAs@ 000000014001aa78     MFCEditView.obj
 0002:00004a88       ??_C@_19BCDHFEBA@?$AAt?$AAe?$AAs?$AAt@ 000000014001aa88     MFCEditView.obj
 0002:00004a98       ??_C@_19GCEOPFEI@?$AAt?$AAo?$AAo?$AAl@ 000000014001aa98     MFCEditView.obj
 0002:00004aa8       ??_C@_1O@KLFMMJAJ@?$AAs?$AAt?$AAa?$AAt?$AAu?$AAs@ 000000014001aaa8     MFCEditView.obj
 0002:00004ab8       ??_C@_1BG@FGCOJABM@?$AAI?$AAn?$AAv?$AAo?$AAk?$AAe?$AA?5?$AAe?$AAr?$AAr@ 000000014001aab8     MFCEditView.obj
 0002:00004ad0       ??_C@_17LOEMLNJP@?$AA_?$AAa?$AAp@ 000000014001aad0     MFCEditView.obj
 0002:00004ad8       ??_C@_1BI@IJEBFFMH@?$AAH?$AAe?$AAl?$AAl?$AAo?$AA?5?$AAw?$AAo?$AAr?$AAl?$AAd@ 000000014001aad8     MFCEditView.obj
 0002:00004af0       ??_C@_19NACPGGMO@?$AAm?$AAa?$AAi?$AAn@ 000000014001aaf0     MFCEditView.obj
 0002:00004b00       ??_C@_1BA@ENONEHDP@?$AAs?$AAc?$AAr?$AAi?$AAp?$AAt?$AA?2@ 000000014001ab00     MFCEditView.obj
 0002:00004b10       ??_C@_01NOFIACDB@w@        000000014001ab10     MFCEditView.obj
 0002:00004b20       ??_C@_1GG@KNJGAJCC@?$AAh?$AAt?$AAt?$AAp?$AAs?$AA?3?$AA?1?$AA?1?$AAq?$AAu?$AAe?$AAr?$AAy?$AA1?$AA?4@ 000000014001ab20     MFCEditView.obj
 0002:00004b88       ??_C@_1BK@DHKKPNCJ@?$AA?$CG?$AAi?$AAn?$AAt?$AAe?$AAr?$AAv?$AAa?$AAl?$AA?$DN?$AA1?$AAd@ 000000014001ab88     MFCEditView.obj
 0002:00004ba8       ??_C@_1BE@GFMBDLGC@?$AA?$CG?$AAp?$AAe?$AAr?$AAi?$AAo?$AAd?$AA2?$AA?$DN@ 000000014001aba8     MFCEditView.obj
 0002:00004bc0       ??_C@_1BE@PLCPAPBN@?$AA?$DP?$AAp?$AAe?$AAr?$AAi?$AAo?$AAd?$AA1?$AA?$DN@ 000000014001abc0     MFCEditView.obj
 0002:00004bd8       ??_C@_0BA@FOIKENOD@vector?5too?5long@ 000000014001abd8     MFCEditView.obj
 0002:00004be8       ??_C@_0BC@KBDMBKEH@deque?$DMT?$DO?5too?5long@ 000000014001abe8     MFCEditView.obj
 0002:00004c00       ??_C@_0BG@EOMJEIFA@vector?$DMbool?$DO?5too?5long@ 000000014001ac00     MFCEditView.obj
 0002:00004c18       ??_C@_05IIMHCHIO@alnum@    000000014001ac18     MFCEditView.obj
 0002:00004c20       ??_C@_1M@KLMEPMCM@?$AAa?$AAl?$AAn?$AAu?$AAm@ 000000014001ac20     MFCEditView.obj
 0002:00004c2c       ??_C@_05IAEKHIAN@alpha@    000000014001ac2c     MFCEditView.obj
 0002:00004c38       ??_C@_1M@DHGLHBMI@?$AAa?$AAl?$AAp?$AAh?$AAa@ 000000014001ac38     MFCEditView.obj
 0002:00004c44       ??_C@_05BABJKOGB@blank@    000000014001ac44     MFCEditView.obj
 0002:00004c50       ??_C@_1M@EJAAJBPE@?$AAb?$AAl?$AAa?$AAn?$AAk@ 000000014001ac50     MFCEditView.obj
 0002:00004c5c       ??_C@_05JMDPEFNK@cntrl@    000000014001ac5c     MFCEditView.obj
 0002:00004c68       ??_C@_1M@LMIMILA@?$AAc?$AAn?$AAt?$AAr?$AAl@ 000000014001ac68     MFCEditView.obj
 0002:00004c74       ??_C@_01LPLHEDKD@d@        000000014001ac74     MFCEditView.obj
 0002:00004c78       ??_C@_13GKPPEALH@?$AAd@    000000014001ac78     MFCEditView.obj
 0002:00004c7c       ??_C@_05ODNOIFML@digit@    000000014001ac7c     MFCEditView.obj
 0002:00004c88       ??_C@_1M@JDAEIBKG@?$AAd?$AAi?$AAg?$AAi?$AAt@ 000000014001ac88     MFCEditView.obj
 0002:00004c94       ??_C@_05KCJBMLII@graph@    000000014001ac94     MFCEditView.obj
 0002:00004ca0       ??_C@_1M@MDKNJLLK@?$AAg?$AAr?$AAa?$AAp?$AAh@ 000000014001aca0     MFCEditView.obj
 0002:00004cac       ??_C@_05IPJEPLHL@lower@    000000014001acac     MFCEditView.obj
 0002:00004cb8       ??_C@_1M@LGAECJJD@?$AAl?$AAo?$AAw?$AAe?$AAr@ 000000014001acb8     MFCEditView.obj
 0002:00004cc4       ??_C@_05IJDJACGD@print@    000000014001acc4     MFCEditView.obj
 0002:00004cd0       ??_C@_1M@ELNLAPLA@?$AAp?$AAr?$AAi?$AAn?$AAt@ 000000014001acd0     MFCEditView.obj
 0002:00004cdc       ??_C@_05KOBGHFJJ@punct@    000000014001acdc     MFCEditView.obj
 0002:00004ce8       ??_C@_1M@BPFMAOAO@?$AAp?$AAu?$AAn?$AAc?$AAt@ 000000014001ace8     MFCEditView.obj
 0002:00004cf4       ??_C@_05OLNILLAB@space@    000000014001acf4     MFCEditView.obj
 0002:00004d00       ??_C@_1M@LPGODFOM@?$AAs?$AAp?$AAa?$AAc?$AAe@ 000000014001ad00     MFCEditView.obj
 0002:00004d0c       ??_C@_01LKDEMHDF@s@        000000014001ad0c     MFCEditView.obj
 0002:00004d10       ??_C@_13KHDBCPJB@?$AAs@    000000014001ad10     MFCEditView.obj
 0002:00004d14       ??_C@_05NECKJAMC@upper@    000000014001ad14     MFCEditView.obj
 0002:00004d20       ??_C@_1M@PLNFCNIC@?$AAu?$AAp?$AAp?$AAe?$AAr@ 000000014001ad20     MFCEditView.obj
 0002:00004d2c       ??_C@_13CIFDLIMG@?$AAw@    000000014001ad2c     MFCEditView.obj
 0002:00004d30       ??_C@_06BAPHGFFK@xdigit@   000000014001ad30     MFCEditView.obj
 0002:00004d38       ??_C@_1O@OAFMJDHN@?$AAx?$AAd?$AAi?$AAg?$AAi?$AAt@ 000000014001ad38     MFCEditView.obj
 0002:00004d50       ?_Names@?1???$lookup_classname@PEB_W@?$_Regex_traits@_W@std@@QEBAFPEB_W0_N@Z@4QBU_Cl_names@2@B 000000014001ad50     MFCEditView.obj
 0002:00004ed8       ??_7?$_Node_str@_W@std@@6B@ 000000014001aed8     MFCEditView.obj
 0002:00004ee0       ?_Meta_map@?1??_Trans@?$_Parser@PEB_W_WV?$regex_traits@_W@std@@@std@@AEAAXXZ@4QBDB 000000014001aee0     MFCEditView.obj
 0002:00004f00       ??_7?$_Node_class@_WV?$regex_traits@_W@std@@@std@@6B@ 000000014001af00     MFCEditView.obj
 0002:00004f10       ??_7?$_Ref_count_obj2@Ust@?1??Value@CVARIANTTool@@IEAA?AUtagVARIANT@@U4@0@Z@@std@@6B@ 000000014001af10     MFCEditView.obj
 0002:00004f30       ??_C@_08EPJLHIJG@bad?5cast@ 000000014001af30     MFCEditView.obj
 0002:00004f48       ??_7bad_cast@std@@6B@      000000014001af48     MFCEditView.obj
 0002:00004f60       ??_7?$collate@_W@std@@6B@  000000014001af60     MFCEditView.obj
 0002:00004f90       ??_8?$basic_stringstream@DU?$char_traits@D@std@@V?$allocator@D@2@@std@@7B?$basic_ostream@DU?$char_traits@D@std@@@1@@ 000000014001af90     MFCEditView.obj
 0002:00004f90       ??_8?$basic_stringstream@_WU?$char_traits@_W@std@@V?$allocator@_W@2@@std@@7B?$basic_ostream@_WU?$char_traits@_W@std@@@1@@ 000000014001af90     MFCEditView.obj
 0002:00004f98       ??_8?$basic_stringstream@DU?$char_traits@D@std@@V?$allocator@D@2@@std@@7B?$basic_istream@DU?$char_traits@D@std@@@1@@ 000000014001af98     MFCEditView.obj
 0002:00004f98       ??_8?$basic_stringstream@_WU?$char_traits@_W@std@@V?$allocator@_W@2@@std@@7B?$basic_istream@_WU?$char_traits@_W@std@@@1@@ 000000014001af98     MFCEditView.obj
 0002:00004fa8       ??_7?$basic_stringstream@_WU?$char_traits@_W@std@@V?$allocator@_W@2@@std@@6B@ 000000014001afa8     MFCEditView.obj
 0002:00004fb8       ??_7?$basic_stringbuf@_WU?$char_traits@_W@std@@V?$allocator@_W@2@@std@@6B@ 000000014001afb8     MFCEditView.obj
 0002:00005030       _GUID_ed8c108d_4349_11d2_91a4_00c04f7969e8 000000014001b030     MFCEditView.obj
 0002:00005048       ??_7?$basic_stringstream@DU?$char_traits@D@std@@V?$allocator@D@2@@std@@6B@ 000000014001b048     MFCEditView.obj
 0002:00005058       ??_7?$basic_stringbuf@DU?$char_traits@D@std@@V?$allocator@D@2@@std@@6B@ 000000014001b058     MFCEditView.obj
 0002:000050d0       ??_C@_11LOCGONAA@@         000000014001b0d0     MFCEditView.obj
 0002:000050e0       ??_C@_1OA@FOJNLMBE@?$AAC?$AA?3?$AA?2?$AAP?$AAr?$AAo?$AAg?$AAr?$AAa?$AAm?$AA?5?$AAF?$AAi?$AAl?$AAe@ 000000014001b0e0     MFCEditView.obj
 0002:000051c8       ??_7IVARIANTApplication@@6B@ 000000014001b1c8     MFCEditView.obj
 0002:00005208       ??_7CVARIANTTool@@6B@      000000014001b208     MFCEditView.obj
 0002:00005248       ??_7CFont@@6B@             000000014001b248     MFCEditView.obj
 0002:00005270       ??_C@_15KNBIKKIN@?$AA?$CF?$AAd@ 000000014001b270     MFCEditView.obj
 0002:00005280       ??_7CSimpleEdit@@6B@       000000014001b280     MFCEditView.obj
 0002:00005558       ??_C@_0BA@JFNIOLAK@string?5too?5long@ 000000014001b558     MFCEditView.obj
 0002:00005598       ??_C@_0BF@KINCDENJ@bad?5array?5new?5length@ 000000014001b598     MFCEditView.obj
 0002:000055b8       ??_7bad_array_new_length@std@@6B@ 000000014001b5b8     MFCEditView.obj
 0002:000055d0       ??_7bad_alloc@std@@6B@     000000014001b5d0     MFCEditView.obj
 0002:000055e8       ??_7CComboBox@@6B@         000000014001b5e8     MFCEditView.obj
 0002:000058f0       ??_7CMFCEditView@@6B@      000000014001b8f0     MFCEditView.obj
 0002:00005e20       ?classCMFCEditView@CMFCEditView@@2UCRuntimeClass@@B 000000014001be20     MFCEditView.obj
 0002:00005ea8       ??_7_Node_rep@std@@6B@     000000014001bea8     MFCEditView.obj
 0002:00005eb8       ??_7_Node_end_rep@std@@6B@ 000000014001beb8     MFCEditView.obj
 0002:00005ec8       ??_7_Node_if@std@@6B@      000000014001bec8     MFCEditView.obj
 0002:00005ed8       ??_7_Node_endif@std@@6B@   000000014001bed8     MFCEditView.obj
 0002:00005ee8       ??_7_Node_back@std@@6B@    000000014001bee8     MFCEditView.obj
 0002:00005ef8       ??_7_Node_capture@std@@6B@ 000000014001bef8     MFCEditView.obj
 0002:00005f08       ??_7_Node_assert@std@@6B@  000000014001bf08     MFCEditView.obj
 0002:00005f18       ??_7_Node_end_group@std@@6B@ 000000014001bf18     MFCEditView.obj
 0002:00005f28       ??_7_Root_node@std@@6B@    000000014001bf28     MFCEditView.obj
 0002:00005f38       ??_7_Node_base@std@@6B@    000000014001bf38     MFCEditView.obj
 0002:00005f40       ?_Is_word_table@?1??_Is_word@std@@YA_NE@Z@4QB_NB 000000014001bf40     MFCEditView.obj
 0002:00006048       ??_7exception@std@@6B@     000000014001c048     MFCEditView.obj
 0002:00006058       ??_C@_0BC@EOODALEL@Unknown?5exception@ 000000014001c058     MFCEditView.obj
 0002:00006078       ??_7IVARIANTAbstract@@6B@  000000014001c078     MFCEditView.obj
 0002:000060b0       __xmm@000003f0000003e9000003f2000003e8 000000014001c0b0     MFCEditView.obj
 0002:000060c0       __xmm@000003f0000003f2000003e8000003e9 000000014001c0c0     MFCEditView.obj
 0002:000060d0       _load_config_used          000000014001c0d0     msvcrt:loadcfg.obj
 0002:00006280       _tls_used                  000000014001c280     msvcrt:tlssup.obj
 0002:000062b0       ??_R4type_info@@6B@        000000014001c2b0     msvcrt:std_type_info_static.obj
 0002:000062d8       ??_R3type_info@@8          000000014001c2d8     msvcrt:std_type_info_static.obj
 0002:000062f0       ??_R2type_info@@8          000000014001c2f0     msvcrt:std_type_info_static.obj
 0002:00006300       ??_R1A@?0A@EA@type_info@@8 000000014001c300     msvcrt:std_type_info_static.obj
 0002:00006328       ??_R2CMainFrame@@8         000000014001c328     MainFrm.obj
 0002:00006358       ??_R2CWnd@@8               000000014001c358     MainFrm.obj
 0002:00006378       ??_R3CWnd@@8               000000014001c378     MainFrm.obj
 0002:00006390       ??_R1A@?0A@EA@CWnd@@8      000000014001c390     MainFrm.obj
 0002:000063b8       ??_R2CCmdTarget@@8         000000014001c3b8     MainFrm.obj
 0002:000063d0       ??_R3CCmdTarget@@8         000000014001c3d0     MainFrm.obj
 0002:000063e8       ??_R1A@?0A@EA@CCmdTarget@@8 000000014001c3e8     MainFrm.obj
 0002:00006410       ??_R2CObject@@8            000000014001c410     MainFrm.obj
 0002:00006420       ??_R3CObject@@8            000000014001c420     MainFrm.obj
 0002:00006438       ??_R1A@?0A@EA@CObject@@8   000000014001c438     MainFrm.obj
 0002:00006460       ??_R2CFrameWnd@@8          000000014001c460     MainFrm.obj
 0002:00006488       ??_R3CFrameWnd@@8          000000014001c488     MainFrm.obj
 0002:000064a0       ??_R1A@?0A@EA@CFrameWnd@@8 000000014001c4a0     MainFrm.obj
 0002:000064c8       ??_R1A@?0A@EA@CMainFrame@@8 000000014001c4c8     MainFrm.obj
 0002:000064f0       ??_R3CMainFrame@@8         000000014001c4f0     MainFrm.obj
 0002:00006508       ??_R4CMainFrame@@6B@       000000014001c508     MainFrm.obj
 0002:00006530       ??_R2CAboutDlg@@8          000000014001c530     MFCEdit.obj
 0002:00006568       ??_R2CDialogEx@@8          000000014001c568     MFCEdit.obj
 0002:00006598       ??_R2CMFCEditApp@@8        000000014001c598     MFCEdit.obj
 0002:000065c8       ??_R2CWinApp@@8            000000014001c5c8     MFCEdit.obj
 0002:000065f0       ??_R2CWinThread@@8         000000014001c5f0     MFCEdit.obj
 0002:00006610       ??_R1A@?0A@EA@CAboutDlg@@8 000000014001c610     MFCEdit.obj
 0002:00006638       ??_R2CDialog@@8            000000014001c638     MFCEdit.obj
 0002:00006660       ??_R3CDialog@@8            000000014001c660     MFCEdit.obj
 0002:00006678       ??_R1A@?0A@EA@CDialog@@8   000000014001c678     MFCEdit.obj
 0002:000066a0       ??_R1A@?0A@EA@CDialogEx@@8 000000014001c6a0     MFCEdit.obj
 0002:000066c8       ??_R1A@?0A@EA@CMFCEditApp@@8 000000014001c6c8     MFCEdit.obj
 0002:000066f0       ??_R1A@?0A@EA@CWinApp@@8   000000014001c6f0     MFCEdit.obj
 0002:00006718       ??_R1A@?0A@EA@CWinThread@@8 000000014001c718     MFCEdit.obj
 0002:00006740       ??_R3CDialogEx@@8          000000014001c740     MFCEdit.obj
 0002:00006758       ??_R3CAboutDlg@@8          000000014001c758     MFCEdit.obj
 0002:00006770       ??_R3CWinApp@@8            000000014001c770     MFCEdit.obj
 0002:00006788       ??_R3CWinThread@@8         000000014001c788     MFCEdit.obj
 0002:000067a0       ??_R3CMFCEditApp@@8        000000014001c7a0     MFCEdit.obj
 0002:000067b8       ??_R4CAboutDlg@@6B@        000000014001c7b8     MFCEdit.obj
 0002:000067e0       ??_R4CMFCEditApp@@6B@      000000014001c7e0     MFCEdit.obj
 0002:00006808       ??_R1A@?0A@EA@CBrush@@8    000000014001c808     MFCEdit.obj
 0002:00006830       ??_R2CBrush@@8             000000014001c830     MFCEdit.obj
 0002:00006850       ??_R3CBrush@@8             000000014001c850     MFCEdit.obj
 0002:00006868       ??_R4CBrush@@6B@           000000014001c868     MFCEdit.obj
 0002:00006890       ??_R1A@?0A@EA@CGdiObject@@8 000000014001c890     MFCEdit.obj
 0002:000068b8       ??_R2CGdiObject@@8         000000014001c8b8     MFCEdit.obj
 0002:000068d0       ??_R3CGdiObject@@8         000000014001c8d0     MFCEdit.obj
 0002:000068e8       ??_R4CGdiObject@@6B@       000000014001c8e8     MFCEdit.obj
 0002:00006910       ??_R2CMFCEditDoc@@8        000000014001c910     MFCEditDoc.obj
 0002:00006938       ??_R2CDocument@@8          000000014001c938     MFCEditDoc.obj
 0002:00006958       ??_R1A@?0A@EA@CMFCEditDoc@@8 000000014001c958     MFCEditDoc.obj
 0002:00006980       ??_R1A@?0A@EA@CDocument@@8 000000014001c980     MFCEditDoc.obj
 0002:000069a8       ??_R3CDocument@@8          000000014001c9a8     MFCEditDoc.obj
 0002:000069c0       ??_R3CMFCEditDoc@@8        000000014001c9c0     MFCEditDoc.obj
 0002:000069d8       ??_R1A@?0A@EA@CDocumentAdapter@CDocument@@8 000000014001c9d8     MFCEditDoc.obj
 0002:00006a00       ??_R2CDocumentAdapter@CDocument@@8 000000014001ca00     MFCEditDoc.obj
 0002:00006a18       ??_R3CDocumentAdapter@CDocument@@8 000000014001ca18     MFCEditDoc.obj
 0002:00006a30       ??_R4CDocumentAdapter@CDocument@@6B@ 000000014001ca30     MFCEditDoc.obj
 0002:00006a58       ??_R1A@?0A@EA@IDocument@ATL@@8 000000014001ca58     MFCEditDoc.obj
 0002:00006a80       ??_R2IDocument@ATL@@8      000000014001ca80     MFCEditDoc.obj
 0002:00006a90       ??_R3IDocument@ATL@@8      000000014001ca90     MFCEditDoc.obj
 0002:00006aa8       ??_R4IDocument@ATL@@6B@    000000014001caa8     MFCEditDoc.obj
 0002:00006ad0       ??_R4CMFCEditDoc@@6B@      000000014001cad0     MFCEditDoc.obj
 0002:00006af8       ??_R2?$_Node_str@_W@std@@8 000000014001caf8     MFCEditView.obj
 0002:00006b10       ??_R2?$_Node_class@_WV?$regex_traits@_W@std@@@std@@8 000000014001cb10     MFCEditView.obj
 0002:00006b28       ??_R2?$_Ref_count_obj2@Ust@?1??Value@CVARIANTTool@@IEAA?AUtagVARIANT@@U4@0@Z@@std@@8 000000014001cb28     MFCEditView.obj
 0002:00006b40       ??_R2IVARIANTApplication@@8 000000014001cb40     MFCEditView.obj
 0002:00006b60       ??_R2CVARIANTTool@@8       000000014001cb60     MFCEditView.obj
 0002:00006b80       ??_R2_Node_end_rep@std@@8  000000014001cb80     MFCEditView.obj
 0002:00006b98       ??_R2_Node_rep@std@@8      000000014001cb98     MFCEditView.obj
 0002:00006bb0       ??_R2_Node_if@std@@8       000000014001cbb0     MFCEditView.obj
 0002:00006bc8       ??_R2_Node_endif@std@@8    000000014001cbc8     MFCEditView.obj
 0002:00006be0       ??_R2_Node_back@std@@8     000000014001cbe0     MFCEditView.obj
 0002:00006bf8       ??_R2_Node_capture@std@@8  000000014001cbf8     MFCEditView.obj
 0002:00006c10       ??_R2_Node_assert@std@@8   000000014001cc10     MFCEditView.obj
 0002:00006c28       ??_R2_Node_end_group@std@@8 000000014001cc28     MFCEditView.obj
 0002:00006c40       ??_R2_Root_node@std@@8     000000014001cc40     MFCEditView.obj
 0002:00006c58       ??_R2_Node_base@std@@8     000000014001cc58     MFCEditView.obj
 0002:00006c68       ??_R2?$collate@_W@std@@8   000000014001cc68     MFCEditView.obj
 0002:00006c90       ??_R2IVARIANTAbstract@@8   000000014001cc90     MFCEditView.obj
 0002:00006ca8       ??_R2CMFCEditView@@8       000000014001cca8     MFCEditView.obj
 0002:00006ce8       ??_R2CFormView@@8          000000014001cce8     MFCEditView.obj
 0002:00006d20       ??_R2CScrollView@@8        000000014001cd20     MFCEditView.obj
 0002:00006d50       ??_R2CView@@8              000000014001cd50     MFCEditView.obj
 0002:00006d78       ??_R2CSimpleEdit@@8        000000014001cd78     MFCEditView.obj
 0002:00006db0       ??_R2?$basic_stringstream@_WU?$char_traits@_W@std@@V?$allocator@_W@2@@std@@8 000000014001cdb0     MFCEditView.obj
 0002:00006e10       ??_R2?$basic_iostream@_WU?$char_traits@_W@std@@@std@@8 000000014001ce10     MFCEditView.obj
 0002:00006e60       ??_R2?$basic_ostream@_WU?$char_traits@_W@std@@@std@@8 000000014001ce60     MFCEditView.obj
 0002:00006e88       ??_R2?$basic_istream@_WU?$char_traits@_W@std@@@std@@8 000000014001ce88     MFCEditView.obj
 0002:00006eb0       ??_R2?$basic_ios@_WU?$char_traits@_W@std@@@std@@8 000000014001ceb0     MFCEditView.obj
 0002:00006ed0       ??_R2?$basic_stringbuf@_WU?$char_traits@_W@std@@V?$allocator@_W@2@@std@@8 000000014001ced0     MFCEditView.obj
 0002:00006ee8       ??_R2?$basic_streambuf@_WU?$char_traits@_W@std@@@std@@8 000000014001cee8     MFCEditView.obj
 0002:00006f00       ??_R2?$basic_stringstream@DU?$char_traits@D@std@@V?$allocator@D@2@@std@@8 000000014001cf00     MFCEditView.obj
 0002:00006f60       ??_R2?$basic_iostream@DU?$char_traits@D@std@@@std@@8 000000014001cf60     MFCEditView.obj
 0002:00006fb0       ??_R2?$basic_ostream@DU?$char_traits@D@std@@@std@@8 000000014001cfb0     MFCEditView.obj
 0002:00006fd8       ??_R2?$basic_istream@DU?$char_traits@D@std@@@std@@8 000000014001cfd8     MFCEditView.obj
 0002:00007000       ??_R2?$basic_ios@DU?$char_traits@D@std@@@std@@8 000000014001d000     MFCEditView.obj
 0002:00007020       ??_R2ios_base@std@@8       000000014001d020     MFCEditView.obj
 0002:00007038       ??_R2?$_Iosb@H@std@@8      000000014001d038     MFCEditView.obj
 0002:00007048       ??_R2?$basic_stringbuf@DU?$char_traits@D@std@@V?$allocator@D@2@@std@@8 000000014001d048     MFCEditView.obj
 0002:00007060       ??_R2?$basic_streambuf@DU?$char_traits@D@std@@@std@@8 000000014001d060     MFCEditView.obj
 0002:00007070       ??_R1A@?0A@EA@?$_Node_str@_W@std@@8 000000014001d070     MFCEditView.obj
 0002:00007098       ??_R1A@?0A@EA@?$_Node_class@_WV?$regex_traits@_W@std@@@std@@8 000000014001d098     MFCEditView.obj
 0002:000070c0       ??_R2_Ref_count_base@std@@8 000000014001d0c0     MFCEditView.obj
 0002:000070d0       ??_R3_Ref_count_base@std@@8 000000014001d0d0     MFCEditView.obj
 0002:000070e8       ??_R1A@?0A@EA@_Ref_count_base@std@@8 000000014001d0e8     MFCEditView.obj
 0002:00007110       ??_R1A@?0A@EA@?$_Ref_count_obj2@Ust@?1??Value@CVARIANTTool@@IEAA?AUtagVARIANT@@U4@0@Z@@std@@8 000000014001d110     MFCEditView.obj
 0002:00007138       ??_R1A@?0A@EA@IVARIANTApplication@@8 000000014001d138     MFCEditView.obj
 0002:00007160       ??_R1A@?0A@EA@CVARIANTTool@@8 000000014001d160     MFCEditView.obj
 0002:00007188       ??_R1A@?0A@EA@_Node_end_rep@std@@8 000000014001d188     MFCEditView.obj
 0002:000071b0       ??_R1A@?0A@EA@_Node_rep@std@@8 000000014001d1b0     MFCEditView.obj
 0002:000071d8       ??_R1A@?0A@EA@_Node_if@std@@8 000000014001d1d8     MFCEditView.obj
 0002:00007200       ??_R1A@?0A@EA@_Node_endif@std@@8 000000014001d200     MFCEditView.obj
 0002:00007228       ??_R1A@?0A@EA@_Node_back@std@@8 000000014001d228     MFCEditView.obj
 0002:00007250       ??_R1A@?0A@EA@_Node_capture@std@@8 000000014001d250     MFCEditView.obj
 0002:00007278       ??_R1A@?0A@EA@_Node_assert@std@@8 000000014001d278     MFCEditView.obj
 0002:000072a0       ??_R1A@?0A@EA@_Node_end_group@std@@8 000000014001d2a0     MFCEditView.obj
 0002:000072c8       ??_R1A@?0A@EA@_Root_node@std@@8 000000014001d2c8     MFCEditView.obj
 0002:000072f0       ??_R1A@?0A@EA@_Node_base@std@@8 000000014001d2f0     MFCEditView.obj
 0002:00007318       ??_R1A@?0A@EA@?$collate@_W@std@@8 000000014001d318     MFCEditView.obj
 0002:00007340       ??_R2IUnknown@@8           000000014001d340     MFCEditView.obj
 0002:00007350       ??_R3IUnknown@@8           000000014001d350     MFCEditView.obj
 0002:00007368       ??_R1A@?0A@EA@IUnknown@@8  000000014001d368     MFCEditView.obj
 0002:00007390       ??_R1A@?0A@EA@IVARIANTAbstract@@8 000000014001d390     MFCEditView.obj
 0002:000073b8       ??_R1A@?0A@EA@CMFCEditView@@8 000000014001d3b8     MFCEditView.obj
 0002:000073e0       ??_R1A@?0A@EA@CFormView@@8 000000014001d3e0     MFCEditView.obj
 0002:00007408       ??_R1A@?0A@EA@CScrollView@@8 000000014001d408     MFCEditView.obj
 0002:00007430       ??_R1A@?0A@EA@CView@@8     000000014001d430     MFCEditView.obj
 0002:00007458       ??_R1A@?0A@EA@CSimpleEdit@@8 000000014001d458     MFCEditView.obj
 0002:00007480       ??_R1A@?0A@EA@?$basic_stringstream@_WU?$char_traits@_W@std@@V?$allocator@_W@2@@std@@8 000000014001d480     MFCEditView.obj
 0002:000074a8       ??_R1BA@?0A@EA@?$basic_ostream@_WU?$char_traits@_W@std@@@std@@8 000000014001d4a8     MFCEditView.obj
 0002:000074d0       ??_R1A@?0A@EA@?$basic_iostream@_WU?$char_traits@_W@std@@@std@@8 000000014001d4d0     MFCEditView.obj
 0002:000074f8       ??_R1A@?0A@EA@?$basic_ostream@_WU?$char_traits@_W@std@@@std@@8 000000014001d4f8     MFCEditView.obj
 0002:00007520       ??_R1A@A@3FA@?$basic_ios@_WU?$char_traits@_W@std@@@std@@8 000000014001d520     MFCEditView.obj
 0002:00007548       ??_R1A@?0A@EA@?$basic_istream@_WU?$char_traits@_W@std@@@std@@8 000000014001d548     MFCEditView.obj
 0002:00007570       ??_R1A@?0A@EA@?$basic_ios@_WU?$char_traits@_W@std@@@std@@8 000000014001d570     MFCEditView.obj
 0002:00007598       ??_R1A@?0A@EA@?$basic_stringbuf@_WU?$char_traits@_W@std@@V?$allocator@_W@2@@std@@8 000000014001d598     MFCEditView.obj
 0002:000075c0       ??_R1A@?0A@EA@?$basic_streambuf@_WU?$char_traits@_W@std@@@std@@8 000000014001d5c0     MFCEditView.obj
 0002:000075e8       ??_R1A@?0A@EA@?$basic_stringstream@DU?$char_traits@D@std@@V?$allocator@D@2@@std@@8 000000014001d5e8     MFCEditView.obj
 0002:00007610       ??_R1BA@?0A@EA@?$basic_ostream@DU?$char_traits@D@std@@@std@@8 000000014001d610     MFCEditView.obj
 0002:00007638       ??_R1A@?0A@EA@?$basic_iostream@DU?$char_traits@D@std@@@std@@8 000000014001d638     MFCEditView.obj
 0002:00007660       ??_R1A@?0A@EA@?$basic_ostream@DU?$char_traits@D@std@@@std@@8 000000014001d660     MFCEditView.obj
 0002:00007688       ??_R17A@3EA@?$_Iosb@H@std@@8 000000014001d688     MFCEditView.obj
 0002:000076b0       ??_R1A@A@3EA@ios_base@std@@8 000000014001d6b0     MFCEditView.obj
 0002:000076d8       ??_R1A@A@3FA@?$basic_ios@DU?$char_traits@D@std@@@std@@8 000000014001d6d8     MFCEditView.obj
 0002:00007700       ??_R1A@?0A@EA@?$basic_istream@DU?$char_traits@D@std@@@std@@8 000000014001d700     MFCEditView.obj
 0002:00007728       ??_R1A@?0A@EA@?$basic_ios@DU?$char_traits@D@std@@@std@@8 000000014001d728     MFCEditView.obj
 0002:00007750       ??_R17?0A@EA@?$_Iosb@H@std@@8 000000014001d750     MFCEditView.obj
 0002:00007778       ??_R1A@?0A@EA@ios_base@std@@8 000000014001d778     MFCEditView.obj
 0002:000077a0       ??_R1A@?0A@EA@?$_Iosb@H@std@@8 000000014001d7a0     MFCEditView.obj
 0002:000077c8       ??_R1A@?0A@EA@?$basic_stringbuf@DU?$char_traits@D@std@@V?$allocator@D@2@@std@@8 000000014001d7c8     MFCEditView.obj
 0002:000077f0       ??_R1A@?0A@EA@?$basic_streambuf@DU?$char_traits@D@std@@@std@@8 000000014001d7f0     MFCEditView.obj
 0002:00007818       ??_R3?$_Node_str@_W@std@@8 000000014001d818     MFCEditView.obj
 0002:00007830       ??_R3?$_Node_class@_WV?$regex_traits@_W@std@@@std@@8 000000014001d830     MFCEditView.obj
 0002:00007848       ??_R3?$_Ref_count_obj2@Ust@?1??Value@CVARIANTTool@@IEAA?AUtagVARIANT@@U4@0@Z@@std@@8 000000014001d848     MFCEditView.obj
 0002:00007860       ??_R3IVARIANTApplication@@8 000000014001d860     MFCEditView.obj
 0002:00007878       ??_R3CVARIANTTool@@8       000000014001d878     MFCEditView.obj
 0002:00007890       ??_R3_Node_end_rep@std@@8  000000014001d890     MFCEditView.obj
 0002:000078a8       ??_R3_Node_rep@std@@8      000000014001d8a8     MFCEditView.obj
 0002:000078c0       ??_R3_Node_if@std@@8       000000014001d8c0     MFCEditView.obj
 0002:000078d8       ??_R3_Node_endif@std@@8    000000014001d8d8     MFCEditView.obj
 0002:000078f0       ??_R3_Node_back@std@@8     000000014001d8f0     MFCEditView.obj
 0002:00007908       ??_R3_Node_capture@std@@8  000000014001d908     MFCEditView.obj
 0002:00007920       ??_R3_Node_assert@std@@8   000000014001d920     MFCEditView.obj
 0002:00007938       ??_R3_Node_end_group@std@@8 000000014001d938     MFCEditView.obj
 0002:00007950       ??_R3_Root_node@std@@8     000000014001d950     MFCEditView.obj
 0002:00007968       ??_R3_Node_base@std@@8     000000014001d968     MFCEditView.obj
 0002:00007980       ??_R3?$collate@_W@std@@8   000000014001d980     MFCEditView.obj
 0002:00007998       ??_R3IVARIANTAbstract@@8   000000014001d998     MFCEditView.obj
 0002:000079b0       ??_R3CFormView@@8          000000014001d9b0     MFCEditView.obj
 0002:000079c8       ??_R3CScrollView@@8        000000014001d9c8     MFCEditView.obj
 0002:000079e0       ??_R3CView@@8              000000014001d9e0     MFCEditView.obj
 0002:000079f8       ??_R3CMFCEditView@@8       000000014001d9f8     MFCEditView.obj
 0002:00007a10       ??_R3CSimpleEdit@@8        000000014001da10     MFCEditView.obj
 0002:00007a28       ??_R3?$basic_iostream@_WU?$char_traits@_W@std@@@std@@8 000000014001da28     MFCEditView.obj
 0002:00007a40       ??_R3?$basic_ostream@_WU?$char_traits@_W@std@@@std@@8 000000014001da40     MFCEditView.obj
 0002:00007a58       ??_R3?$basic_istream@_WU?$char_traits@_W@std@@@std@@8 000000014001da58     MFCEditView.obj
 0002:00007a70       ??_R3?$basic_ios@_WU?$char_traits@_W@std@@@std@@8 000000014001da70     MFCEditView.obj
 0002:00007a88       ??_R3?$basic_stringstream@_WU?$char_traits@_W@std@@V?$allocator@_W@2@@std@@8 000000014001da88     MFCEditView.obj
 0002:00007aa0       ??_R3?$basic_streambuf@_WU?$char_traits@_W@std@@@std@@8 000000014001daa0     MFCEditView.obj
 0002:00007ab8       ??_R3?$basic_stringbuf@_WU?$char_traits@_W@std@@V?$allocator@_W@2@@std@@8 000000014001dab8     MFCEditView.obj
 0002:00007ad0       ??_R3?$basic_iostream@DU?$char_traits@D@std@@@std@@8 000000014001dad0     MFCEditView.obj
 0002:00007ae8       ??_R3?$basic_ostream@DU?$char_traits@D@std@@@std@@8 000000014001dae8     MFCEditView.obj
 0002:00007b00       ??_R3?$basic_istream@DU?$char_traits@D@std@@@std@@8 000000014001db00     MFCEditView.obj
 0002:00007b18       ??_R3ios_base@std@@8       000000014001db18     MFCEditView.obj
 0002:00007b30       ??_R3?$_Iosb@H@std@@8      000000014001db30     MFCEditView.obj
 0002:00007b48       ??_R3?$basic_ios@DU?$char_traits@D@std@@@std@@8 000000014001db48     MFCEditView.obj
 0002:00007b60       ??_R3?$basic_stringstream@DU?$char_traits@D@std@@V?$allocator@D@2@@std@@8 000000014001db60     MFCEditView.obj
 0002:00007b78       ??_R3?$basic_streambuf@DU?$char_traits@D@std@@@std@@8 000000014001db78     MFCEditView.obj
 0002:00007b90       ??_R3?$basic_stringbuf@DU?$char_traits@D@std@@V?$allocator@D@2@@std@@8 000000014001db90     MFCEditView.obj
 0002:00007ba8       ??_R4?$_Node_str@_W@std@@6B@ 000000014001dba8     MFCEditView.obj
 0002:00007bd0       ??_R4?$_Node_class@_WV?$regex_traits@_W@std@@@std@@6B@ 000000014001dbd0     MFCEditView.obj
 0002:00007bf8       ??_R4?$_Ref_count_obj2@Ust@?1??Value@CVARIANTTool@@IEAA?AUtagVARIANT@@U4@0@Z@@std@@6B@ 000000014001dbf8     MFCEditView.obj
 0002:00007c20       ??_R4IVARIANTApplication@@6B@ 000000014001dc20     MFCEditView.obj
 0002:00007c48       ??_R4CVARIANTTool@@6B@     000000014001dc48     MFCEditView.obj
 0002:00007c70       ??_R4_Node_end_rep@std@@6B@ 000000014001dc70     MFCEditView.obj
 0002:00007c98       ??_R4_Node_rep@std@@6B@    000000014001dc98     MFCEditView.obj
 0002:00007cc0       ??_R4_Node_if@std@@6B@     000000014001dcc0     MFCEditView.obj
 0002:00007ce8       ??_R4_Node_endif@std@@6B@  000000014001dce8     MFCEditView.obj
 0002:00007d10       ??_R4_Node_back@std@@6B@   000000014001dd10     MFCEditView.obj
 0002:00007d38       ??_R4_Node_capture@std@@6B@ 000000014001dd38     MFCEditView.obj
 0002:00007d60       ??_R4_Node_assert@std@@6B@ 000000014001dd60     MFCEditView.obj
 0002:00007d88       ??_R4_Node_end_group@std@@6B@ 000000014001dd88     MFCEditView.obj
 0002:00007db0       ??_R4_Root_node@std@@6B@   000000014001ddb0     MFCEditView.obj
 0002:00007dd8       ??_R4_Node_base@std@@6B@   000000014001ddd8     MFCEditView.obj
 0002:00007e00       ??_R4?$collate@_W@std@@6B@ 000000014001de00     MFCEditView.obj
 0002:00007e28       ??_R4IVARIANTAbstract@@6B@ 000000014001de28     MFCEditView.obj
 0002:00007e50       ??_R4CMFCEditView@@6B@     000000014001de50     MFCEditView.obj
 0002:00007e78       ??_R4CSimpleEdit@@6B@      000000014001de78     MFCEditView.obj
 0002:00007ea0       ??_R4?$basic_stringstream@_WU?$char_traits@_W@std@@V?$allocator@_W@2@@std@@6B@ 000000014001dea0     MFCEditView.obj
 0002:00007ec8       ??_R4?$basic_stringbuf@_WU?$char_traits@_W@std@@V?$allocator@_W@2@@std@@6B@ 000000014001dec8     MFCEditView.obj
 0002:00007ef0       ??_R4?$basic_stringstream@DU?$char_traits@D@std@@V?$allocator@D@2@@std@@6B@ 000000014001def0     MFCEditView.obj
 0002:00007f18       ??_R4?$basic_stringbuf@DU?$char_traits@D@std@@V?$allocator@D@2@@std@@6B@ 000000014001df18     MFCEditView.obj
 0002:00007f40       ??_R2facet@locale@std@@8   000000014001df40     MFCEditView.obj
 0002:00007f60       ??_R3facet@locale@std@@8   000000014001df60     MFCEditView.obj
 0002:00007f78       ??_R1A@?0A@EA@facet@locale@std@@8 000000014001df78     MFCEditView.obj
 0002:00007fa0       ??_R2_Facet_base@std@@8    000000014001dfa0     MFCEditView.obj
 0002:00007fb0       ??_R3_Facet_base@std@@8    000000014001dfb0     MFCEditView.obj
 0002:00007fc8       ??_R1A@?0A@EA@_Facet_base@std@@8 000000014001dfc8     MFCEditView.obj
 0002:00007ff0       ??_R1A@?0A@EA@_Crt_new_delete@std@@8 000000014001dff0     MFCEditView.obj
 0002:00008018       ??_R2_Crt_new_delete@std@@8 000000014001e018     MFCEditView.obj
 0002:00008028       ??_R3_Crt_new_delete@std@@8 000000014001e028     MFCEditView.obj
 0002:00008040       ??_R17?0A@EA@_Crt_new_delete@std@@8 000000014001e040     MFCEditView.obj
 0002:00008068       ??_R1A@?0A@EA@bad_cast@std@@8 000000014001e068     MFCEditView.obj
 0002:00008090       ??_R2bad_cast@std@@8       000000014001e090     MFCEditView.obj
 0002:000080a8       ??_R3bad_cast@std@@8       000000014001e0a8     MFCEditView.obj
 0002:000080c0       ??_R4bad_cast@std@@6B@     000000014001e0c0     MFCEditView.obj
 0002:000080e8       ??_R1A@?0A@EA@CFont@@8     000000014001e0e8     MFCEditView.obj
 0002:00008110       ??_R2CFont@@8              000000014001e110     MFCEditView.obj
 0002:00008130       ??_R3CFont@@8              000000014001e130     MFCEditView.obj
 0002:00008148       ??_R4CFont@@6B@            000000014001e148     MFCEditView.obj
 0002:00008170       ??_R1A@?0A@EA@CEdit@@8     000000014001e170     MFCEditView.obj
 0002:00008198       ??_R2CEdit@@8              000000014001e198     MFCEditView.obj
 0002:000081c0       ??_R3CEdit@@8              000000014001e1c0     MFCEditView.obj
 0002:000081d8       ??_R1A@?0A@EA@bad_array_new_length@std@@8 000000014001e1d8     MFCEditView.obj
 0002:00008200       ??_R2bad_array_new_length@std@@8 000000014001e200     MFCEditView.obj
 0002:00008220       ??_R3bad_array_new_length@std@@8 000000014001e220     MFCEditView.obj
 0002:00008238       ??_R4bad_array_new_length@std@@6B@ 000000014001e238     MFCEditView.obj
 0002:00008260       ??_R1A@?0A@EA@bad_alloc@std@@8 000000014001e260     MFCEditView.obj
 0002:00008288       ??_R2bad_alloc@std@@8      000000014001e288     MFCEditView.obj
 0002:000082a0       ??_R3bad_alloc@std@@8      000000014001e2a0     MFCEditView.obj
 0002:000082b8       ??_R4bad_alloc@std@@6B@    000000014001e2b8     MFCEditView.obj
 0002:000082e0       ??_R1A@?0A@EA@CComboBox@@8 000000014001e2e0     MFCEditView.obj
 0002:00008308       ??_R2CComboBox@@8          000000014001e308     MFCEditView.obj
 0002:00008330       ??_R3CComboBox@@8          000000014001e330     MFCEditView.obj
 0002:00008348       ??_R4CComboBox@@6B@        000000014001e348     MFCEditView.obj
 0002:00008370       ??_R4exception@std@@6B@    000000014001e370     MFCEditView.obj
 0002:00008398       ??_R2exception@std@@8      000000014001e398     MFCEditView.obj
 0002:000083a8       ??_R3exception@std@@8      000000014001e3a8     MFCEditView.obj
 0002:000083c0       ??_R1A@?0A@EA@exception@std@@8 000000014001e3c0     MFCEditView.obj
 0002:000083e4       __volatile_metadata        000000014001e3e4     <linker-defined>
 0002:00008860       __rtc_iaa                  000000014001e860     msvcrt:initsect.obj
 0002:00008868       __rtc_izz                  000000014001e868     msvcrt:initsect.obj
 0002:00008870       __rtc_taa                  000000014001e870     msvcrt:initsect.obj
 0002:00008878       __rtc_tzz                  000000014001e878     msvcrt:initsect.obj
 0002:00008880       _tls_start                 000000014001e880     msvcrt:tlssup.obj
 0002:00008884       _Init_thread_epoch         000000014001e884     msvcrt:thread_safe_statics.obj
 0002:00008888       _tls_end                   000000014001e888     msvcrt:tlssup.obj
 0002:0000a938       _TI1?AV_com_error@@        0000000140020938     comsuppw:comraise.obj
 0002:0000a958       _CTA1?AV_com_error@@       0000000140020958     comsuppw:comraise.obj
 0002:0000a968       _CT??_R0?AV_com_error@@@8??0_com_error@@QEAA@AEBV0@@Z32 0000000140020968     comsuppw:comraise.obj
 0002:0000a990       _CT??_R0?AVbad_cast@std@@@8??0bad_cast@std@@QEAA@AEBV01@@Z24 0000000140020990     MFCEditView.obj
 0002:0000a9b8       _CTA2?AVbad_cast@std@@     00000001400209b8     MFCEditView.obj
 0002:0000a9d0       _TI2?AVbad_cast@std@@      00000001400209d0     MFCEditView.obj
 0002:0000a9f0       _CTA1?AV?$basic_string@_WU?$char_traits@_W@std@@V?$allocator@_W@2@@std@@ 00000001400209f0     MFCEditView.obj
 0002:0000aa00       _CT??_R0?AV?$basic_string@_WU?$char_traits@_W@std@@V?$allocator@_W@2@@std@@@8??0?$basic_string@_WU?$char_traits@_W@std@@V?$allocator@_W@2@@std@@QEAA@AEBV01@@Z32 0000000140020a00     MFCEditView.obj
 0002:0000aa28       _TI1?AV?$basic_string@_WU?$char_traits@_W@std@@V?$allocator@_W@2@@std@@ 0000000140020a28     MFCEditView.obj
 0002:0000aa48       _CTA2PEA_W                 0000000140020a48     MFCEditView.obj
 0002:0000aa60       _CT??_R0PEAX@88            0000000140020a60     MFCEditView.obj
 0002:0000aa88       _CT??_R0PEA_W@88           0000000140020a88     MFCEditView.obj
 0002:0000aab0       _TI2PEA_W                  0000000140020ab0     MFCEditView.obj
 0002:0000aad0       _CT??_R0?AVbad_array_new_length@std@@@8??0bad_array_new_length@std@@QEAA@AEBV01@@Z24 0000000140020ad0     MFCEditView.obj
 0002:0000aaf8       _CT??_R0?AVbad_alloc@std@@@8??0bad_alloc@std@@QEAA@AEBV01@@Z24 0000000140020af8     MFCEditView.obj
 0002:0000ab20       _CT??_R0?AVexception@std@@@8??0exception@std@@QEAA@AEBV01@@Z24 0000000140020b20     MFCEditView.obj
 0002:0000ab48       _CTA3?AVbad_array_new_length@std@@ 0000000140020b48     MFCEditView.obj
 0002:0000ab68       _TI3?AVbad_array_new_length@std@@ 0000000140020b68     MFCEditView.obj
 0002:0000ab88       __IMPORT_DESCRIPTOR_mfc140u 0000000140020b88     mfc140u:mfc140u.dll
 0002:0000ab9c       __IMPORT_DESCRIPTOR_KERNEL32 0000000140020b9c     kernel32:KERNEL32.dll
 0002:0000abb0       __IMPORT_DESCRIPTOR_USER32 0000000140020bb0     user32:USER32.dll
 0002:0000abc4       __IMPORT_DESCRIPTOR_GDI32  0000000140020bc4     gdi32:GDI32.dll
 0002:0000abd8       __IMPORT_DESCRIPTOR_COMCTL32 0000000140020bd8     comctl32:COMCTL32.dll
 0002:0000abec       __IMPORT_DESCRIPTOR_ole32  0000000140020bec     ole32:ole32.dll
 0002:0000ac00       __IMPORT_DESCRIPTOR_OLEAUT32 0000000140020c00     oleaut32:OLEAUT32.dll
 0002:0000ac14       __IMPORT_DESCRIPTOR_MSVCP140 0000000140020c14     msvcprt:MSVCP140.dll
 0002:0000ac28       __IMPORT_DESCRIPTOR_MNSC   0000000140020c28     MNSC:MNSC.dll
 0002:0000ac3c       __IMPORT_DESCRIPTOR_VCRUNTIME140_1 0000000140020c3c     vcruntime:VCRUNTIME140_1.dll
 0002:0000ac50       __IMPORT_DESCRIPTOR_VCRUNTIME140 0000000140020c50     vcruntime:VCRUNTIME140.dll
 0002:0000ac64       __IMPORT_DESCRIPTOR_api-ms-win-crt-runtime-l1-1-0 0000000140020c64     ucrt:api-ms-win-crt-runtime-l1-1-0.dll
 0002:0000ac78       __IMPORT_DESCRIPTOR_api-ms-win-crt-convert-l1-1-0 0000000140020c78     ucrt:api-ms-win-crt-convert-l1-1-0.dll
 0002:0000ac8c       __IMPORT_DESCRIPTOR_api-ms-win-crt-string-l1-1-0 0000000140020c8c     ucrt:api-ms-win-crt-string-l1-1-0.dll
 0002:0000aca0       __IMPORT_DESCRIPTOR_api-ms-win-crt-stdio-l1-1-0 0000000140020ca0     ucrt:api-ms-win-crt-stdio-l1-1-0.dll
 0002:0000acb4       __IMPORT_DESCRIPTOR_api-ms-win-crt-heap-l1-1-0 0000000140020cb4     ucrt:api-ms-win-crt-heap-l1-1-0.dll
 0002:0000acc8       __IMPORT_DESCRIPTOR_api-ms-win-crt-math-l1-1-0 0000000140020cc8     ucrt:api-ms-win-crt-math-l1-1-0.dll
 0002:0000acdc       __IMPORT_DESCRIPTOR_api-ms-win-crt-locale-l1-1-0 0000000140020cdc     ucrt:api-ms-win-crt-locale-l1-1-0.dll
 0002:0000acf0       __NULL_IMPORT_DESCRIPTOR   0000000140020cf0     mfc140u:mfc140u.dll
 0003:00000000       __scrt_native_dllmain_reason 0000000140024000     msvcrt:utility.obj
 0003:00000004       _Init_global_epoch         0000000140024004     msvcrt:thread_safe_statics.obj
 0003:00000040       __security_cookie          0000000140024040     msvcrt:gs_cookie.obj
 0003:00000080       __security_cookie_complement 0000000140024080     msvcrt:gs_cookie.obj
 0003:00000088       __scrt_default_matherr     0000000140024088     msvcrt:matherr.obj
 0003:00000090       __isa_inverted             0000000140024090     msvcrt:cpu_disp.obj
 0003:00000098       __isa_available            0000000140024098     msvcrt:cpu_disp.obj
 0003:0000009c       __isa_enabled              000000014002409c     msvcrt:cpu_disp.obj
 0003:000000a0       __memset_fast_string_threshold 00000001400240a0     msvcrt:cpu_disp.obj
 0003:000000a8       __memset_nt_threshold      00000001400240a8     msvcrt:cpu_disp.obj
 0003:000000b0       ?__errorPfn@@3P6AXJPEAUIErrorInfo@@@ZEA 00000001400240b0     comsuppw:comsupp.obj
 0003:000000b8       ?vtMissing@@3V_variant_t@@A 00000001400240b8     comsuppw:comutil.obj
 0003:000000d0       _fltused                   00000001400240d0     msvcrt:fltused.obj
 0003:000000d4       __scrt_ucrt_dll_is_in_use  00000001400240d4     msvcrt:ucrt_stubs.obj
 0003:000000f0       ??_R0?AV_com_error@@@8     00000001400240f0     comsuppw:comraise.obj
 0003:00000118       ??_R0PEAVCException@@@8    0000000140024118     MFCEdit.obj
 0003:00000140       ??_R0?AVbad_cast@std@@@8   0000000140024140     MFCEditView.obj
 0003:00000170       ??_R0?AV?$basic_string@_WU?$char_traits@_W@std@@V?$allocator@_W@2@@std@@@8 0000000140024170     MFCEditView.obj
 0003:000001c8       ??_R0PEAX@8                00000001400241c8     MFCEditView.obj
 0003:000001e0       ??_R0PEA_W@8               00000001400241e0     MFCEditView.obj
 0003:000001f8       ??_R0?AVIVARIANTArray@@@8  00000001400241f8     MFCEditView.obj
 0003:00000220       ??_R0?AUIUnknown@@@8       0000000140024220     MFCEditView.obj
 0003:00000240       ??_R0?AVIVARIANTMap@@@8    0000000140024240     MFCEditView.obj
 0003:00000268       ??_R0?AVbad_array_new_length@std@@@8 0000000140024268     MFCEditView.obj
 0003:00000298       ??_R0?AVbad_alloc@std@@@8  0000000140024298     MFCEditView.obj
 0003:000002c0       ??_R0?AVexception@std@@@8  00000001400242c0     MFCEditView.obj
 0003:000002f0       ??_R0?AVtype_info@@@8      00000001400242f0     msvcrt:std_type_info_static.obj
 0003:00000310       ??_R0?AVCFrameWnd@@@8      0000000140024310     MainFrm.obj
 0003:00000330       ??_R0?AVCWnd@@@8           0000000140024330     MainFrm.obj
 0003:00000350       ??_R0?AVCCmdTarget@@@8     0000000140024350     MainFrm.obj
 0003:00000378       ??_R0?AVCObject@@@8        0000000140024378     MainFrm.obj
 0003:00000398       ??_R0?AVCMainFrame@@@8     0000000140024398     MainFrm.obj
 0003:000003c0       ??_R0?AVCDialog@@@8        00000001400243c0     MFCEdit.obj
 0003:000003e0       ??_R0?AVCDialogEx@@@8      00000001400243e0     MFCEdit.obj
 0003:00000400       ??_R0?AVCAboutDlg@@@8      0000000140024400     MFCEdit.obj
 0003:00000420       ??_R0?AVCWinApp@@@8        0000000140024420     MFCEdit.obj
 0003:00000440       ??_R0?AVCWinThread@@@8     0000000140024440     MFCEdit.obj
 0003:00000468       ??_R0?AVCMFCEditApp@@@8    0000000140024468     MFCEdit.obj
 0003:00000490       ??_R0?AVCBrush@@@8         0000000140024490     MFCEdit.obj
 0003:000004b0       ??_R0?AVCGdiObject@@@8     00000001400244b0     MFCEdit.obj
 0003:000004d8       ??_R0?AVCDocument@@@8      00000001400244d8     MFCEditDoc.obj
 0003:000004f8       ??_R0?AVCMFCEditDoc@@@8    00000001400244f8     MFCEditDoc.obj
 0003:00000520       ??_R0?AVCDocumentAdapter@CDocument@@@8 0000000140024520     MFCEditDoc.obj
 0003:00000558       ??_R0?AUIDocument@ATL@@@8  0000000140024558     MFCEditDoc.obj
 0003:00000580       ??_R0?AV_Ref_count_base@std@@@8 0000000140024580     MFCEditView.obj
 0003:000005b0       ??_R0?AV?$_Node_str@_W@std@@@8 00000001400245b0     MFCEditView.obj
 0003:000005e0       ??_R0?AV?$_Node_class@_WV?$regex_traits@_W@std@@@std@@@8 00000001400245e0     MFCEditView.obj
 0003:00000630       ??_R0?AV?$_Ref_count_obj2@Ust@?1??Value@CVARIANTTool@@IEAA?AUtagVARIANT@@U4@0@Z@@std@@@8 0000000140024630     MFCEditView.obj
 0003:00000698       ??_R0?AVIVARIANTApplication@@@8 0000000140024698     MFCEditView.obj
 0003:000006c8       ??_R0?AVCVARIANTTool@@@8   00000001400246c8     MFCEditView.obj
 0003:000006f0       ??_R0?AV_Node_end_rep@std@@@8 00000001400246f0     MFCEditView.obj
 0003:00000718       ??_R0?AV_Node_rep@std@@@8  0000000140024718     MFCEditView.obj
 0003:00000740       ??_R0?AV_Node_if@std@@@8   0000000140024740     MFCEditView.obj
 0003:00000768       ??_R0?AV_Node_endif@std@@@8 0000000140024768     MFCEditView.obj
 0003:00000790       ??_R0?AV_Node_back@std@@@8 0000000140024790     MFCEditView.obj
 0003:000007b8       ??_R0?AV_Node_capture@std@@@8 00000001400247b8     MFCEditView.obj
 0003:000007e0       ??_R0?AV_Node_assert@std@@@8 00000001400247e0     MFCEditView.obj
 0003:00000808       ??_R0?AV_Node_end_group@std@@@8 0000000140024808     MFCEditView.obj
 0003:00000838       ??_R0?AV_Root_node@std@@@8 0000000140024838     MFCEditView.obj
 0003:00000860       ??_R0?AV_Node_base@std@@@8 0000000140024860     MFCEditView.obj
 0003:00000888       ??_R0?AV?$collate@_W@std@@@8 0000000140024888     MFCEditView.obj
 0003:000008b0       ??_R0?AVIVARIANTAbstract@@@8 00000001400248b0     MFCEditView.obj
 0003:000008d8       ??_R0?AVCFormView@@@8      00000001400248d8     MFCEditView.obj
 0003:000008f8       ??_R0?AVCScrollView@@@8    00000001400248f8     MFCEditView.obj
 0003:00000920       ??_R0?AVCView@@@8          0000000140024920     MFCEditView.obj
 0003:00000940       ??_R0?AVCMFCEditView@@@8   0000000140024940     MFCEditView.obj
 0003:00000968       ??_R0?AVCSimpleEdit@@@8    0000000140024968     MFCEditView.obj
 0003:00000990       ??_R0?AV?$basic_iostream@_WU?$char_traits@_W@std@@@std@@@8 0000000140024990     MFCEditView.obj
 0003:000009e0       ??_R0?AV?$basic_ostream@_WU?$char_traits@_W@std@@@std@@@8 00000001400249e0     MFCEditView.obj
 0003:00000a30       ??_R0?AV?$basic_istream@_WU?$char_traits@_W@std@@@std@@@8 0000000140024a30     MFCEditView.obj
 0003:00000a80       ??_R0?AV?$basic_ios@_WU?$char_traits@_W@std@@@std@@@8 0000000140024a80     MFCEditView.obj
 0003:00000ac0       ??_R0?AV?$basic_stringstream@_WU?$char_traits@_W@std@@V?$allocator@_W@2@@std@@@8 0000000140024ac0     MFCEditView.obj
 0003:00000b20       ??_R0?AV?$basic_streambuf@_WU?$char_traits@_W@std@@@std@@@8 0000000140024b20     MFCEditView.obj
 0003:00000b70       ??_R0?AV?$basic_stringbuf@_WU?$char_traits@_W@std@@V?$allocator@_W@2@@std@@@8 0000000140024b70     MFCEditView.obj
 0003:00000bd0       ??_R0?AV?$basic_iostream@DU?$char_traits@D@std@@@std@@@8 0000000140024bd0     MFCEditView.obj
 0003:00000c20       ??_R0?AV?$basic_ostream@DU?$char_traits@D@std@@@std@@@8 0000000140024c20     MFCEditView.obj
 0003:00000c70       ??_R0?AV?$basic_istream@DU?$char_traits@D@std@@@std@@@8 0000000140024c70     MFCEditView.obj
 0003:00000cb8       ??_R0?AVios_base@std@@@8   0000000140024cb8     MFCEditView.obj
 0003:00000ce0       ??_R0?AV?$_Iosb@H@std@@@8  0000000140024ce0     MFCEditView.obj
 0003:00000d08       ??_R0?AV?$basic_ios@DU?$char_traits@D@std@@@std@@@8 0000000140024d08     MFCEditView.obj
 0003:00000d50       ??_R0?AV?$basic_stringstream@DU?$char_traits@D@std@@V?$allocator@D@2@@std@@@8 0000000140024d50     MFCEditView.obj
 0003:00000db0       ??_R0?AV?$basic_streambuf@DU?$char_traits@D@std@@@std@@@8 0000000140024db0     MFCEditView.obj
 0003:00000e00       ??_R0?AV?$basic_stringbuf@DU?$char_traits@D@std@@V?$allocator@D@2@@std@@@8 0000000140024e00     MFCEditView.obj
 0003:00000e58       ??_R0?AVfacet@locale@std@@@8 0000000140024e58     MFCEditView.obj
 0003:00000e80       ??_R0?AV_Facet_base@std@@@8 0000000140024e80     MFCEditView.obj
 0003:00000ea8       ??_R0?AU_Crt_new_delete@std@@@8 0000000140024ea8     MFCEditView.obj
 0003:00000ed8       ??_R0?AVCFont@@@8          0000000140024ed8     MFCEditView.obj
 0003:00000ef8       ??_R0?AVCEdit@@@8          0000000140024ef8     MFCEditView.obj
 0003:00000f18       ??_R0?AVCComboBox@@@8      0000000140024f18     MFCEditView.obj
 0003:00000f40       __afxForceEXCLUDE          0000000140024f40     mfcs140u:nolib.obj
 0003:00000f44       __afxForceSTDAFX           0000000140024f44     mfcs140u:stdafx.obj
 0003:00000f48       __scrt_current_native_startup_state 0000000140024f48     msvcrt:utility.obj
 0003:00000f50       __scrt_native_startup_lock 0000000140024f50     msvcrt:utility.obj
 0003:00000fa0       ?__type_info_root_node@@3U__type_info_node@@A 0000000140024fa0     msvcrt:tncleanup.obj
 0003:00000fb0       ?_OptionsStorage@?1??__local_stdio_printf_options@@9@4_KA 0000000140024fb0     msvcrt:default_local_stdio_options.obj
 0003:00000fb8       ?_OptionsStorage@?1??__local_stdio_scanf_options@@9@4_KA 0000000140024fb8     msvcrt:default_local_stdio_options.obj
 0003:00000fc0       __scrt_debugger_hook_flag  0000000140024fc0     msvcrt:utility_desktop.obj
 0003:00001540       __avx10_version            0000000140025540     msvcrt:cpu_disp.obj
 0003:00001544       __favor                    0000000140025544     msvcrt:cpu_disp.obj
 0003:00001548       _tls_index                 0000000140025548     msvcrt:tlssup.obj
 0003:00001550       ?_AtlBaseModule@ATL@@3VCAtlBaseModule@1@A 0000000140025550     atls:atlbase.obj
 0003:000015b0       __@@_PchSym_@00@UzUPdlipUBUhUrmgvinvwrzgvUexHoryhUhsrkUzgonuxUhixUzgoUzgohUzgohOexckilqUlyqiPiUznwGEUhgwzucOlyq@4B2008FD98C1DD4 00000001400255b0     atls:stdafx.obj
 0003:000015c1       ?_afxInitAppState@@3DA     00000001400255c1     mfcs140u:appmodul.obj
 0003:000015c8       ?_Psave@?$_Facetptr@V?$collate@_W@std@@@std@@2PEBVfacet@locale@2@EB 00000001400255c8     MFCEditView.obj
 0003:000015d0       ?_Psave@?$_Facetptr@V?$ctype@_W@std@@@std@@2PEBVfacet@locale@2@EB 00000001400255d0     MFCEditView.obj
 0003:000015d8       __@@_PchSym_@00@UdlipUexUnmhxUnuxvwrgUcGEUivovzhvUkxsOlyq@4B2008FD98C1DD4 00000001400255d8     pch.obj
 0003:000015dc       ?m_bInitFailed@CAtlBaseModule@ATL@@2_NA 00000001400255dc     pch.obj
 0003:000015e0       ?theApp@@3VCMFCEditApp@@A  00000001400255e0     MFCEdit.obj
 0003:00001758       __dyn_tls_dtor_callback    0000000140025758     <common>
 0003:00001760       __dyn_tls_init_callback    0000000140025760     <common>

 entry point at        0001:00012a4c

 Static symbols

 0000:fffc3000       .debug$S                   0000000140000000     ucrt:api-ms-win-crt-convert-l1-1-0.dll
 0000:fffc3000       .debug$S                   0000000140000000     ucrt:api-ms-win-crt-heap-l1-1-0.dll
 0000:fffc3000       .debug$S                   0000000140000000     ucrt:api-ms-win-crt-heap-l1-1-0.dll
 0000:fffc3000       .debug$S                   0000000140000000     ucrt:api-ms-win-crt-heap-l1-1-0.dll
 0000:fffc3000       .debug$S                   0000000140000000     ucrt:api-ms-win-crt-heap-l1-1-0.dll
 0000:fffc3000       .debug$S                   0000000140000000     ucrt:api-ms-win-crt-heap-l1-1-0.dll
 0000:fffc3000       .debug$S                   0000000140000000     ucrt:api-ms-win-crt-heap-l1-1-0.dll
 0000:fffc3000       .debug$S                   0000000140000000     ucrt:api-ms-win-crt-locale-l1-1-0.dll
 0000:fffc3000       .debug$S                   0000000140000000     ucrt:api-ms-win-crt-math-l1-1-0.dll
 0000:fffc3000       .debug$S                   0000000140000000     ucrt:api-ms-win-crt-runtime-l1-1-0.dll
 0000:fffc3000       .debug$S                   0000000140000000     ucrt:api-ms-win-crt-runtime-l1-1-0.dll
 0000:fffc3000       .debug$S                   0000000140000000     ucrt:api-ms-win-crt-runtime-l1-1-0.dll
 0000:fffc3000       .debug$S                   0000000140000000     ucrt:api-ms-win-crt-runtime-l1-1-0.dll
 0000:fffc3000       .debug$S                   0000000140000000     ucrt:api-ms-win-crt-runtime-l1-1-0.dll
 0000:fffc3000       .debug$S                   0000000140000000     ucrt:api-ms-win-crt-runtime-l1-1-0.dll
 0000:fffc3000       .debug$S                   0000000140000000     ucrt:api-ms-win-crt-runtime-l1-1-0.dll
 0000:fffc3000       .debug$S                   0000000140000000     ucrt:api-ms-win-crt-runtime-l1-1-0.dll
 0000:fffc3000       .debug$S                   0000000140000000     ucrt:api-ms-win-crt-runtime-l1-1-0.dll
 0000:fffc3000       .debug$S                   0000000140000000     ucrt:api-ms-win-crt-runtime-l1-1-0.dll
 0000:fffc3000       .debug$S                   0000000140000000     ucrt:api-ms-win-crt-runtime-l1-1-0.dll
 0000:fffc3000       .debug$S                   0000000140000000     ucrt:api-ms-win-crt-runtime-l1-1-0.dll
 0000:fffc3000       .debug$S                   0000000140000000     ucrt:api-ms-win-crt-runtime-l1-1-0.dll
 0000:fffc3000       .debug$S                   0000000140000000     ucrt:api-ms-win-crt-runtime-l1-1-0.dll
 0000:fffc3000       .debug$S                   0000000140000000     ucrt:api-ms-win-crt-runtime-l1-1-0.dll
 0000:fffc3000       .debug$S                   0000000140000000     ucrt:api-ms-win-crt-runtime-l1-1-0.dll
 0000:fffc3000       .debug$S                   0000000140000000     ucrt:api-ms-win-crt-runtime-l1-1-0.dll
 0000:fffc3000       .debug$S                   0000000140000000     ucrt:api-ms-win-crt-runtime-l1-1-0.dll
 0000:fffc3000       .debug$S                   0000000140000000     ucrt:api-ms-win-crt-runtime-l1-1-0.dll
 0000:fffc3000       .debug$S                   0000000140000000     ucrt:api-ms-win-crt-runtime-l1-1-0.dll
 0000:fffc3000       .debug$S                   0000000140000000     ucrt:api-ms-win-crt-runtime-l1-1-0.dll
 0000:fffc3000       .debug$S                   0000000140000000     ucrt:api-ms-win-crt-runtime-l1-1-0.dll
 0000:fffc3000       .debug$S                   0000000140000000     ucrt:api-ms-win-crt-runtime-l1-1-0.dll
 0000:fffc3000       .debug$S                   0000000140000000     ucrt:api-ms-win-crt-runtime-l1-1-0.dll
 0000:fffc3000       .debug$S                   0000000140000000     ucrt:api-ms-win-crt-stdio-l1-1-0.dll
 0000:fffc3000       .debug$S                   0000000140000000     ucrt:api-ms-win-crt-stdio-l1-1-0.dll
 0000:fffc3000       .debug$S                   0000000140000000     ucrt:api-ms-win-crt-stdio-l1-1-0.dll
 0000:fffc3000       .debug$S                   0000000140000000     ucrt:api-ms-win-crt-stdio-l1-1-0.dll
 0000:fffc3000       .debug$S                   0000000140000000     ucrt:api-ms-win-crt-stdio-l1-1-0.dll
 0000:fffc3000       .debug$S                   0000000140000000     ucrt:api-ms-win-crt-string-l1-1-0.dll
 0000:fffc3000       .debug$S                   0000000140000000     comctl32:COMCTL32.dll
 0000:fffc3000       .debug$S                   0000000140000000     gdi32:GDI32.dll
 0000:fffc3000       .debug$S                   0000000140000000     gdi32:GDI32.dll
 0000:fffc3000       .debug$S                   0000000140000000     gdi32:GDI32.dll
 0000:fffc3000       .debug$S                   0000000140000000     gdiplus:gdiplus.dll
 0002:fffea000       .idata$6                   0000000140000000     gdiplus:gdiplus.dll
 0000:fffc3000       .debug$S                   0000000140000000     kernel32:KERNEL32.dll
 0000:fffc3000       .debug$S                   0000000140000000     kernel32:KERNEL32.dll
 0000:fffc3000       .debug$S                   0000000140000000     kernel32:KERNEL32.dll
 0000:fffc3000       .debug$S                   0000000140000000     kernel32:KERNEL32.dll
 0000:fffc3000       .debug$S                   0000000140000000     kernel32:KERNEL32.dll
 0000:fffc3000       .debug$S                   0000000140000000     kernel32:KERNEL32.dll
 0000:fffc3000       .debug$S                   0000000140000000     kernel32:KERNEL32.dll
 0000:fffc3000       .debug$S                   0000000140000000     kernel32:KERNEL32.dll
 0000:fffc3000       .debug$S                   0000000140000000     kernel32:KERNEL32.dll
 0000:fffc3000       .debug$S                   0000000140000000     kernel32:KERNEL32.dll
 0000:fffc3000       .debug$S                   0000000140000000     kernel32:KERNEL32.dll
 0000:fffc3000       .debug$S                   0000000140000000     kernel32:KERNEL32.dll
 0000:fffc3000       .debug$S                   0000000140000000     kernel32:KERNEL32.dll
 0000:fffc3000       .debug$S                   0000000140000000     kernel32:KERNEL32.dll
 0000:fffc3000       .debug$S                   0000000140000000     kernel32:KERNEL32.dll
 0000:fffc3000       .debug$S                   0000000140000000     kernel32:KERNEL32.dll
 0000:fffc3000       .debug$S                   0000000140000000     kernel32:KERNEL32.dll
 0000:fffc3000       .debug$S                   0000000140000000     kernel32:KERNEL32.dll
 0000:fffc3000       .debug$S                   0000000140000000     kernel32:KERNEL32.dll
 0000:fffc3000       .debug$S                   0000000140000000     kernel32:KERNEL32.dll
 0000:fffc3000       .debug$S                   0000000140000000     kernel32:KERNEL32.dll
 0000:fffc3000       .debug$S                   0000000140000000     kernel32:KERNEL32.dll
 0000:fffc3000       .debug$S                   0000000140000000     kernel32:KERNEL32.dll
 0000:fffc3000       .debug$S                   0000000140000000     kernel32:KERNEL32.dll
 0000:fffc3000       .debug$S                   0000000140000000     kernel32:KERNEL32.dll
 0000:fffc3000       .debug$S                   0000000140000000     kernel32:KERNEL32.dll
 0000:fffc3000       .debug$S                   0000000140000000     kernel32:KERNEL32.dll
 0000:fffc3000       .debug$S                   0000000140000000     kernel32:KERNEL32.dll
 0000:fffc3000       .debug$S                   0000000140000000     kernel32:KERNEL32.dll
 0000:fffc3000       .debug$S                   0000000140000000     kernel32:KERNEL32.dll
 0000:fffc3000       .debug$S                   0000000140000000     kernel32:KERNEL32.dll
 0000:fffc3000       .debug$S                   0000000140000000     kernel32:KERNEL32.dll
 0000:fffc3000       .debug$S                   0000000140000000     kernel32:KERNEL32.dll
 0000:fffc3000       .debug$S                   0000000140000000     kernel32:KERNEL32.dll
 0000:fffc3000       .debug$S                   0000000140000000     kernel32:KERNEL32.dll
 0000:fffc3000       .debug$S                   0000000140000000     kernel32:KERNEL32.dll
 0000:fffc3000       .debug$S                   0000000140000000     kernel32:KERNEL32.dll
 0000:fffc3000       .debug$S                   0000000140000000     kernel32:KERNEL32.dll
 0000:fffc3000       .debug$S                   0000000140000000     kernel32:KERNEL32.dll
 0000:fffc3000       .debug$S                   0000000140000000     kernel32:KERNEL32.dll
 0000:fffc3000       .debug$S                   0000000140000000     kernel32:KERNEL32.dll
 0000:fffc3000       .debug$S                   0000000140000000     kernel32:KERNEL32.dll
 0000:fffc3000       .debug$S                   0000000140000000     kernel32:KERNEL32.dll
 0000:fffc3000       .debug$S                   0000000140000000     kernel32:KERNEL32.dll
 0000:fffc3000       .debug$S                   0000000140000000     kernel32:KERNEL32.dll
 0000:fffc3000       .debug$S                   0000000140000000     kernel32:KERNEL32.dll
 0000:fffc3000       .debug$S                   0000000140000000     kernel32:KERNEL32.dll
 0000:fffc3000       .debug$S                   0000000140000000     kernel32:KERNEL32.dll
 0000:fffc3000       .debug$S                   0000000140000000     kernel32:KERNEL32.dll
 0000:fffc3000       .debug$S                   0000000140000000     kernel32:KERNEL32.dll
 0000:fffc3000       .debug$S                   0000000140000000     kernel32:KERNEL32.dll
 0000:fffc3000       .debug$S                   0000000140000000     kernel32:KERNEL32.dll
 0000:fffc3000       .debug$S                   0000000140000000     kernel32:KERNEL32.dll
 0000:fffc3000       .debug$S                   0000000140000000     ole32:ole32.dll
 0000:fffc3000       .debug$S                   0000000140000000     ole32:ole32.dll
 0000:fffc3000       .debug$S                   0000000140000000     oleaut32:OLEAUT32.dll
 0000:fffc3000       .debug$S                   0000000140000000     oleaut32:OLEAUT32.dll
 0000:fffc3000       .debug$S                   0000000140000000     oleaut32:OLEAUT32.dll
 0000:fffc3000       .debug$S                   0000000140000000     oleaut32:OLEAUT32.dll
 0000:fffc3000       .debug$S                   0000000140000000     oleaut32:OLEAUT32.dll
 0000:fffc3000       .debug$S                   0000000140000000     oleaut32:OLEAUT32.dll
 0000:fffc3000       .debug$S                   0000000140000000     oleaut32:OLEAUT32.dll
 0000:fffc3000       .debug$S                   0000000140000000     oleaut32:OLEAUT32.dll
 0000:fffc3000       .debug$S                   0000000140000000     oleaut32:OLEAUT32.dll
 0000:fffc3000       .debug$S                   0000000140000000     oleaut32:OLEAUT32.dll
 0000:fffc3000       .debug$S                   0000000140000000     oleaut32:OLEAUT32.dll
 0000:fffc3000       .debug$S                   0000000140000000     user32:USER32.dll
 0000:fffc3000       .debug$S                   0000000140000000     user32:USER32.dll
 0000:fffc3000       .debug$S                   0000000140000000     user32:USER32.dll
 0000:fffc3000       .debug$S                   0000000140000000     user32:USER32.dll
 0000:fffc3000       .debug$S                   0000000140000000     user32:USER32.dll
 0000:fffc3000       .debug$S                   0000000140000000     user32:USER32.dll
 0000:fffc3000       .debug$S                   0000000140000000     user32:USER32.dll
 0000:fffc3000       .debug$S                   0000000140000000     mfc140u:mfc140u.dll
 0000:fffc3000       .debug$S                   0000000140000000     mfc140u:mfc140u.dll
 0000:fffc3000       .debug$S                   0000000140000000     mfc140u:mfc140u.dll
 0000:fffc3000       .debug$S                   0000000140000000     mfc140u:mfc140u.dll
 0000:fffc3000       .debug$S                   0000000140000000     mfc140u:mfc140u.dll
 0000:fffc3000       .debug$S                   0000000140000000     mfc140u:mfc140u.dll
 0000:fffc3000       .debug$S                   0000000140000000     mfc140u:mfc140u.dll
 0000:fffc3000       .debug$S                   0000000140000000     mfc140u:mfc140u.dll
 0000:fffc3000       .debug$S                   0000000140000000     mfc140u:mfc140u.dll
 0000:fffc3000       .debug$S                   0000000140000000     mfc140u:mfc140u.dll
 0000:fffc3000       .debug$S                   0000000140000000     mfc140u:mfc140u.dll
 0000:fffc3000       .debug$S                   0000000140000000     mfc140u:mfc140u.dll
 0000:fffc3000       .debug$S                   0000000140000000     mfc140u:mfc140u.dll
 0000:fffc3000       .debug$S                   0000000140000000     mfc140u:mfc140u.dll
 0000:fffc3000       .debug$S                   0000000140000000     mfc140u:mfc140u.dll
 0000:fffc3000       .debug$S                   0000000140000000     mfc140u:mfc140u.dll
 0000:fffc3000       .debug$S                   0000000140000000     mfc140u:mfc140u.dll
 0000:fffc3000       .debug$S                   0000000140000000     mfc140u:mfc140u.dll
 0000:fffc3000       .debug$S                   0000000140000000     mfc140u:mfc140u.dll
 0000:fffc3000       .debug$S                   0000000140000000     mfc140u:mfc140u.dll
 0000:fffc3000       .debug$S                   0000000140000000     mfc140u:mfc140u.dll
 0000:fffc3000       .debug$S                   0000000140000000     mfc140u:mfc140u.dll
 0000:fffc3000       .debug$S                   0000000140000000     mfc140u:mfc140u.dll
 0000:fffc3000       .debug$S                   0000000140000000     mfc140u:mfc140u.dll
 0000:fffc3000       .debug$S                   0000000140000000     mfc140u:mfc140u.dll
 0000:fffc3000       .debug$S                   0000000140000000     mfc140u:mfc140u.dll
 0000:fffc3000       .debug$S                   0000000140000000     mfc140u:mfc140u.dll
 0000:fffc3000       .debug$S                   0000000140000000     mfc140u:mfc140u.dll
 0000:fffc3000       .debug$S                   0000000140000000     mfc140u:mfc140u.dll
 0000:fffc3000       .debug$S                   0000000140000000     mfc140u:mfc140u.dll
 0000:fffc3000       .debug$S                   0000000140000000     mfc140u:mfc140u.dll
 0000:fffc3000       .debug$S                   0000000140000000     mfc140u:mfc140u.dll
 0000:fffc3000       .debug$S                   0000000140000000     mfc140u:mfc140u.dll
 0000:fffc3000       .debug$S                   0000000140000000     mfc140u:mfc140u.dll
 0000:fffc3000       .debug$S                   0000000140000000     mfc140u:mfc140u.dll
 0000:fffc3000       .debug$S                   0000000140000000     mfc140u:mfc140u.dll
 0000:fffc3000       .debug$S                   0000000140000000     mfc140u:mfc140u.dll
 0000:fffc3000       .debug$S                   0000000140000000     mfc140u:mfc140u.dll
 0000:fffc3000       .debug$S                   0000000140000000     mfc140u:mfc140u.dll
 0000:fffc3000       .debug$S                   0000000140000000     mfc140u:mfc140u.dll
 0000:fffc3000       .debug$S                   0000000140000000     mfc140u:mfc140u.dll
 0000:fffc3000       .debug$S                   0000000140000000     mfc140u:mfc140u.dll
 0000:fffc3000       .debug$S                   0000000140000000     mfc140u:mfc140u.dll
 0000:fffc3000       .debug$S                   0000000140000000     mfc140u:mfc140u.dll
 0000:fffc3000       .debug$S                   0000000140000000     mfc140u:mfc140u.dll
 0000:fffc3000       .debug$S                   0000000140000000     mfc140u:mfc140u.dll
 0000:fffc3000       .debug$S                   0000000140000000     mfc140u:mfc140u.dll
 0000:fffc3000       .debug$S                   0000000140000000     mfc140u:mfc140u.dll
 0000:fffc3000       .debug$S                   0000000140000000     mfc140u:mfc140u.dll
 0000:fffc3000       .debug$S                   0000000140000000     mfc140u:mfc140u.dll
 0000:fffc3000       .debug$S                   0000000140000000     mfc140u:mfc140u.dll
 0000:fffc3000       .debug$S                   0000000140000000     mfc140u:mfc140u.dll
 0000:fffc3000       .debug$S                   0000000140000000     mfc140u:mfc140u.dll
 0000:fffc3000       .debug$S                   0000000140000000     mfc140u:mfc140u.dll
 0000:fffc3000       .debug$S                   0000000140000000     mfc140u:mfc140u.dll
 0000:fffc3000       .debug$S                   0000000140000000     mfc140u:mfc140u.dll
 0000:fffc3000       .debug$S                   0000000140000000     mfc140u:mfc140u.dll
 0000:fffc3000       .debug$S                   0000000140000000     mfc140u:mfc140u.dll
 0000:fffc3000       .debug$S                   0000000140000000     mfc140u:mfc140u.dll
 0000:fffc3000       .debug$S                   0000000140000000     mfc140u:mfc140u.dll
 0000:fffc3000       .debug$S                   0000000140000000     mfc140u:mfc140u.dll
 0000:fffc3000       .debug$S                   0000000140000000     mfc140u:mfc140u.dll
 0000:fffc3000       .debug$S                   0000000140000000     mfc140u:mfc140u.dll
 0000:fffc3000       .debug$S                   0000000140000000     mfc140u:mfc140u.dll
 0000:fffc3000       .debug$S                   0000000140000000     mfc140u:mfc140u.dll
 0000:fffc3000       .debug$S                   0000000140000000     mfc140u:mfc140u.dll
 0000:fffc3000       .debug$S                   0000000140000000     mfc140u:mfc140u.dll
 0000:fffc3000       .debug$S                   0000000140000000     mfc140u:mfc140u.dll
 0000:fffc3000       .debug$S                   0000000140000000     mfc140u:mfc140u.dll
 0000:fffc3000       .debug$S                   0000000140000000     mfc140u:mfc140u.dll
 0000:fffc3000       .debug$S                   0000000140000000     mfc140u:mfc140u.dll
 0000:fffc3000       .debug$S                   0000000140000000     mfc140u:mfc140u.dll
 0000:fffc3000       .debug$S                   0000000140000000     mfc140u:mfc140u.dll
 0000:fffc3000       .debug$S                   0000000140000000     mfc140u:mfc140u.dll
 0000:fffc3000       .debug$S                   0000000140000000     mfc140u:mfc140u.dll
 0000:fffc3000       .debug$S                   0000000140000000     mfc140u:mfc140u.dll
 0000:fffc3000       .debug$S                   0000000140000000     mfc140u:mfc140u.dll
 0000:fffc3000       .debug$S                   0000000140000000     mfc140u:mfc140u.dll
 0000:fffc3000       .debug$S                   0000000140000000     mfc140u:mfc140u.dll
 0000:fffc3000       .debug$S                   0000000140000000     mfc140u:mfc140u.dll
 0000:fffc3000       .debug$S                   0000000140000000     mfc140u:mfc140u.dll
 0000:fffc3000       .debug$S                   0000000140000000     mfc140u:mfc140u.dll
 0000:fffc3000       .debug$S                   0000000140000000     mfc140u:mfc140u.dll
 0000:fffc3000       .debug$S                   0000000140000000     mfc140u:mfc140u.dll
 0000:fffc3000       .debug$S                   0000000140000000     mfc140u:mfc140u.dll
 0000:fffc3000       .debug$S                   0000000140000000     mfc140u:mfc140u.dll
 0000:fffc3000       .debug$S                   0000000140000000     mfc140u:mfc140u.dll
 0000:fffc3000       .debug$S                   0000000140000000     mfc140u:mfc140u.dll
 0000:fffc3000       .debug$S                   0000000140000000     mfc140u:mfc140u.dll
 0000:fffc3000       .debug$S                   0000000140000000     mfc140u:mfc140u.dll
 0000:fffc3000       .debug$S                   0000000140000000     mfc140u:mfc140u.dll
 0000:fffc3000       .debug$S                   0000000140000000     mfc140u:mfc140u.dll
 0000:fffc3000       .debug$S                   0000000140000000     mfc140u:mfc140u.dll
 0000:fffc3000       .debug$S                   0000000140000000     mfc140u:mfc140u.dll
 0000:fffc3000       .debug$S                   0000000140000000     mfc140u:mfc140u.dll
 0000:fffc3000       .debug$S                   0000000140000000     mfc140u:mfc140u.dll
 0000:fffc3000       .debug$S                   0000000140000000     mfc140u:mfc140u.dll
 0000:fffc3000       .debug$S                   0000000140000000     mfc140u:mfc140u.dll
 0000:fffc3000       .debug$S                   0000000140000000     mfc140u:mfc140u.dll
 0000:fffc3000       .debug$S                   0000000140000000     mfc140u:mfc140u.dll
 0000:fffc3000       .debug$S                   0000000140000000     mfc140u:mfc140u.dll
 0000:fffc3000       .debug$S                   0000000140000000     mfc140u:mfc140u.dll
 0000:fffc3000       .debug$S                   0000000140000000     mfc140u:mfc140u.dll
 0000:fffc3000       .debug$S                   0000000140000000     mfc140u:mfc140u.dll
 0000:fffc3000       .debug$S                   0000000140000000     mfc140u:mfc140u.dll
 0000:fffc3000       .debug$S                   0000000140000000     mfc140u:mfc140u.dll
 0000:fffc3000       .debug$S                   0000000140000000     mfc140u:mfc140u.dll
 0000:fffc3000       .debug$S                   0000000140000000     mfc140u:mfc140u.dll
 0000:fffc3000       .debug$S                   0000000140000000     mfc140u:mfc140u.dll
 0000:fffc3000       .debug$S                   0000000140000000     mfc140u:mfc140u.dll
 0000:fffc3000       .debug$S                   0000000140000000     mfc140u:mfc140u.dll
 0000:fffc3000       .debug$S                   0000000140000000     mfc140u:mfc140u.dll
 0000:fffc3000       .debug$S                   0000000140000000     mfc140u:mfc140u.dll
 0000:fffc3000       .debug$S                   0000000140000000     mfc140u:mfc140u.dll
 0000:fffc3000       .debug$S                   0000000140000000     mfc140u:mfc140u.dll
 0000:fffc3000       .debug$S                   0000000140000000     mfc140u:mfc140u.dll
 0000:fffc3000       .debug$S                   0000000140000000     mfc140u:mfc140u.dll
 0000:fffc3000       .debug$S                   0000000140000000     mfc140u:mfc140u.dll
 0000:fffc3000       .debug$S                   0000000140000000     mfc140u:mfc140u.dll
 0000:fffc3000       .debug$S                   0000000140000000     mfc140u:mfc140u.dll
 0000:fffc3000       .debug$S                   0000000140000000     mfc140u:mfc140u.dll
 0000:fffc3000       .debug$S                   0000000140000000     mfc140u:mfc140u.dll
 0000:fffc3000       .debug$S                   0000000140000000     mfc140u:mfc140u.dll
 0000:fffc3000       .debug$S                   0000000140000000     mfc140u:mfc140u.dll
 0000:fffc3000       .debug$S                   0000000140000000     mfc140u:mfc140u.dll
 0000:fffc3000       .debug$S                   0000000140000000     mfc140u:mfc140u.dll
 0000:fffc3000       .debug$S                   0000000140000000     mfc140u:mfc140u.dll
 0000:fffc3000       .debug$S                   0000000140000000     mfc140u:mfc140u.dll
 0000:fffc3000       .debug$S                   0000000140000000     mfc140u:mfc140u.dll
 0000:fffc3000       .debug$S                   0000000140000000     mfc140u:mfc140u.dll
 0000:fffc3000       .debug$S                   0000000140000000     mfc140u:mfc140u.dll
 0000:fffc3000       .debug$S                   0000000140000000     mfc140u:mfc140u.dll
 0000:fffc3000       .debug$S                   0000000140000000     mfc140u:mfc140u.dll
 0000:fffc3000       .debug$S                   0000000140000000     mfc140u:mfc140u.dll
 0000:fffc3000       .debug$S                   0000000140000000     mfc140u:mfc140u.dll
 0000:fffc3000       .debug$S                   0000000140000000     mfc140u:mfc140u.dll
 0000:fffc3000       .debug$S                   0000000140000000     mfc140u:mfc140u.dll
 0000:fffc3000       .debug$S                   0000000140000000     mfc140u:mfc140u.dll
 0000:fffc3000       .debug$S                   0000000140000000     mfc140u:mfc140u.dll
 0000:fffc3000       .debug$S                   0000000140000000     mfc140u:mfc140u.dll
 0000:fffc3000       .debug$S                   0000000140000000     mfc140u:mfc140u.dll
 0000:fffc3000       .debug$S                   0000000140000000     mfc140u:mfc140u.dll
 0000:fffc3000       .debug$S                   0000000140000000     mfc140u:mfc140u.dll
 0000:fffc3000       .debug$S                   0000000140000000     mfc140u:mfc140u.dll
 0000:fffc3000       .debug$S                   0000000140000000     mfc140u:mfc140u.dll
 0000:fffc3000       .debug$S                   0000000140000000     mfc140u:mfc140u.dll
 0000:fffc3000       .debug$S                   0000000140000000     mfc140u:mfc140u.dll
 0000:fffc3000       .debug$S                   0000000140000000     mfc140u:mfc140u.dll
 0000:fffc3000       .debug$S                   0000000140000000     mfc140u:mfc140u.dll
 0000:fffc3000       .debug$S                   0000000140000000     mfc140u:mfc140u.dll
 0000:fffc3000       .debug$S                   0000000140000000     mfc140u:mfc140u.dll
 0000:fffc3000       .debug$S                   0000000140000000     mfc140u:mfc140u.dll
 0000:fffc3000       .debug$S                   0000000140000000     mfc140u:mfc140u.dll
 0000:fffc3000       .debug$S                   0000000140000000     mfc140u:mfc140u.dll
 0000:fffc3000       .debug$S                   0000000140000000     mfc140u:mfc140u.dll
 0000:fffc3000       .debug$S                   0000000140000000     mfc140u:mfc140u.dll
 0000:fffc3000       .debug$S                   0000000140000000     mfc140u:mfc140u.dll
 0000:fffc3000       .debug$S                   0000000140000000     mfc140u:mfc140u.dll
 0000:fffc3000       .debug$S                   0000000140000000     mfc140u:mfc140u.dll
 0000:fffc3000       .debug$S                   0000000140000000     mfc140u:mfc140u.dll
 0000:fffc3000       .debug$S                   0000000140000000     mfc140u:mfc140u.dll
 0000:fffc3000       .debug$S                   0000000140000000     mfc140u:mfc140u.dll
 0000:fffc3000       .debug$S                   0000000140000000     mfc140u:mfc140u.dll
 0000:fffc3000       .debug$S                   0000000140000000     mfc140u:mfc140u.dll
 0000:fffc3000       .debug$S                   0000000140000000     mfc140u:mfc140u.dll
 0000:fffc3000       .debug$S                   0000000140000000     mfc140u:mfc140u.dll
 0000:fffc3000       .debug$S                   0000000140000000     mfc140u:mfc140u.dll
 0000:fffc3000       .debug$S                   0000000140000000     mfc140u:mfc140u.dll
 0000:fffc3000       .debug$S                   0000000140000000     mfc140u:mfc140u.dll
 0000:fffc3000       .debug$S                   0000000140000000     mfc140u:mfc140u.dll
 0000:fffc3000       .debug$S                   0000000140000000     mfc140u:mfc140u.dll
 0000:fffc3000       .debug$S                   0000000140000000     mfc140u:mfc140u.dll
 0000:fffc3000       .debug$S                   0000000140000000     mfc140u:mfc140u.dll
 0000:fffc3000       .debug$S                   0000000140000000     mfc140u:mfc140u.dll
 0000:fffc3000       .debug$S                   0000000140000000     mfc140u:mfc140u.dll
 0000:fffc3000       .debug$S                   0000000140000000     mfc140u:mfc140u.dll
 0000:fffc3000       .debug$S                   0000000140000000     mfc140u:mfc140u.dll
 0000:fffc3000       .debug$S                   0000000140000000     mfc140u:mfc140u.dll
 0000:fffc3000       .debug$S                   0000000140000000     mfc140u:mfc140u.dll
 0000:fffc3000       .debug$S                   0000000140000000     mfc140u:mfc140u.dll
 0000:fffc3000       .debug$S                   0000000140000000     mfc140u:mfc140u.dll
 0000:fffc3000       .debug$S                   0000000140000000     mfc140u:mfc140u.dll
 0000:fffc3000       .debug$S                   0000000140000000     mfc140u:mfc140u.dll
 0000:fffc3000       .debug$S                   0000000140000000     mfc140u:mfc140u.dll
 0000:fffc3000       .debug$S                   0000000140000000     mfc140u:mfc140u.dll
 0000:fffc3000       .debug$S                   0000000140000000     mfc140u:mfc140u.dll
 0000:fffc3000       .debug$S                   0000000140000000     mfc140u:mfc140u.dll
 0000:fffc3000       .debug$S                   0000000140000000     mfc140u:mfc140u.dll
 0000:fffc3000       .debug$S                   0000000140000000     mfc140u:mfc140u.dll
 0000:fffc3000       .debug$S                   0000000140000000     mfc140u:mfc140u.dll
 0000:fffc3000       .debug$S                   0000000140000000     mfc140u:mfc140u.dll
 0000:fffc3000       .debug$S                   0000000140000000     mfc140u:mfc140u.dll
 0000:fffc3000       .debug$S                   0000000140000000     mfc140u:mfc140u.dll
 0000:fffc3000       .debug$S                   0000000140000000     mfc140u:mfc140u.dll
 0000:fffc3000       .debug$S                   0000000140000000     mfc140u:mfc140u.dll
 0000:fffc3000       .debug$S                   0000000140000000     mfc140u:mfc140u.dll
 0000:fffc3000       .debug$S                   0000000140000000     mfc140u:mfc140u.dll
 0000:fffc3000       .debug$S                   0000000140000000     mfc140u:mfc140u.dll
 0000:fffc3000       .debug$S                   0000000140000000     mfc140u:mfc140u.dll
 0000:fffc3000       .debug$S                   0000000140000000     mfc140u:mfc140u.dll
 0000:fffc3000       .debug$S                   0000000140000000     mfc140u:mfc140u.dll
 0000:fffc3000       .debug$S                   0000000140000000     mfc140u:mfc140u.dll
 0000:fffc3000       .debug$S                   0000000140000000     mfc140u:mfc140u.dll
 0000:fffc3000       .debug$S                   0000000140000000     mfc140u:mfc140u.dll
 0000:fffc3000       .debug$S                   0000000140000000     mfc140u:mfc140u.dll
 0000:fffc3000       .debug$S                   0000000140000000     mfc140u:mfc140u.dll
 0000:fffc3000       .debug$S                   0000000140000000     mfc140u:mfc140u.dll
 0000:fffc3000       .debug$S                   0000000140000000     mfc140u:mfc140u.dll
 0000:fffc3000       .debug$S                   0000000140000000     mfc140u:mfc140u.dll
 0000:fffc3000       .debug$S                   0000000140000000     mfc140u:mfc140u.dll
 0000:fffc3000       .debug$S                   0000000140000000     mfc140u:mfc140u.dll
 0000:fffc3000       .debug$S                   0000000140000000     mfc140u:mfc140u.dll
 0000:fffc3000       .debug$S                   0000000140000000     mfc140u:mfc140u.dll
 0000:fffc3000       .debug$S                   0000000140000000     mfc140u:mfc140u.dll
 0000:fffc3000       .debug$S                   0000000140000000     mfc140u:mfc140u.dll
 0000:fffc3000       .debug$S                   0000000140000000     mfc140u:mfc140u.dll
 0000:fffc3000       .debug$S                   0000000140000000     mfc140u:mfc140u.dll
 0000:fffc3000       .debug$S                   0000000140000000     mfc140u:mfc140u.dll
 0000:fffc3000       .debug$S                   0000000140000000     mfc140u:mfc140u.dll
 0000:fffc3000       .debug$S                   0000000140000000     mfc140u:mfc140u.dll
 0000:fffc3000       .debug$S                   0000000140000000     mfc140u:mfc140u.dll
 0000:fffc3000       .debug$S                   0000000140000000     mfc140u:mfc140u.dll
 0000:fffc3000       .debug$S                   0000000140000000     mfc140u:mfc140u.dll
 0000:fffc3000       .debug$S                   0000000140000000     mfc140u:mfc140u.dll
 0000:fffc3000       .debug$S                   0000000140000000     mfc140u:mfc140u.dll
 0000:fffc3000       .debug$S                   0000000140000000     mfc140u:mfc140u.dll
 0000:fffc3000       .debug$S                   0000000140000000     mfc140u:mfc140u.dll
 0000:fffc3000       .debug$S                   0000000140000000     mfc140u:mfc140u.dll
 0000:fffc3000       .debug$S                   0000000140000000     mfc140u:mfc140u.dll
 0000:fffc3000       .debug$S                   0000000140000000     mfc140u:mfc140u.dll
 0000:fffc3000       .debug$S                   0000000140000000     mfc140u:mfc140u.dll
 0000:fffc3000       .debug$S                   0000000140000000     mfc140u:mfc140u.dll
 0000:fffc3000       .debug$S                   0000000140000000     mfc140u:mfc140u.dll
 0000:fffc3000       .debug$S                   0000000140000000     mfc140u:mfc140u.dll
 0000:fffc3000       .debug$S                   0000000140000000     mfc140u:mfc140u.dll
 0000:fffc3000       .debug$S                   0000000140000000     mfc140u:mfc140u.dll
 0000:fffc3000       .debug$S                   0000000140000000     mfc140u:mfc140u.dll
 0000:fffc3000       .debug$S                   0000000140000000     mfc140u:mfc140u.dll
 0000:fffc3000       .debug$S                   0000000140000000     mfc140u:mfc140u.dll
 0000:fffc3000       .debug$S                   0000000140000000     mfc140u:mfc140u.dll
 0000:fffc3000       .debug$S                   0000000140000000     mfc140u:mfc140u.dll
 0000:fffc3000       .debug$S                   0000000140000000     mfc140u:mfc140u.dll
 0000:fffc3000       .debug$S                   0000000140000000     mfc140u:mfc140u.dll
 0000:fffc3000       .debug$S                   0000000140000000     mfc140u:mfc140u.dll
 0000:fffc3000       .debug$S                   0000000140000000     mfc140u:mfc140u.dll
 0000:fffc3000       .debug$S                   0000000140000000     mfc140u:mfc140u.dll
 0000:fffc3000       .debug$S                   0000000140000000     mfc140u:mfc140u.dll
 0000:fffc3000       .debug$S                   0000000140000000     mfc140u:mfc140u.dll
 0000:fffc3000       .debug$S                   0000000140000000     mfc140u:mfc140u.dll
 0000:fffc3000       .debug$S                   0000000140000000     mfc140u:mfc140u.dll
 0000:fffc3000       .debug$S                   0000000140000000     mfc140u:mfc140u.dll
 0000:fffc3000       .debug$S                   0000000140000000     mfc140u:mfc140u.dll
 0000:fffc3000       .debug$S                   0000000140000000     mfc140u:mfc140u.dll
 0000:fffc3000       .debug$S                   0000000140000000     mfc140u:mfc140u.dll
 0000:fffc3000       .debug$S                   0000000140000000     mfc140u:mfc140u.dll
 0000:fffc3000       .debug$S                   0000000140000000     mfc140u:mfc140u.dll
 0000:fffc3000       .debug$S                   0000000140000000     mfc140u:mfc140u.dll
 0000:fffc3000       .debug$S                   0000000140000000     mfc140u:mfc140u.dll
 0000:fffc3000       .debug$S                   0000000140000000     mfc140u:mfc140u.dll
 0000:fffc3000       .debug$S                   0000000140000000     mfc140u:mfc140u.dll
 0000:fffc3000       .debug$S                   0000000140000000     mfc140u:mfc140u.dll
 0000:fffc3000       .debug$S                   0000000140000000     mfc140u:mfc140u.dll
 0000:fffc3000       .debug$S                   0000000140000000     mfc140u:mfc140u.dll
 0000:fffc3000       .debug$S                   0000000140000000     mfc140u:mfc140u.dll
 0000:fffc3000       .debug$S                   0000000140000000     mfc140u:mfc140u.dll
 0000:fffc3000       .debug$S                   0000000140000000     mfc140u:mfc140u.dll
 0000:fffc3000       .debug$S                   0000000140000000     mfc140u:mfc140u.dll
 0000:fffc3000       .debug$S                   0000000140000000     mfc140u:mfc140u.dll
 0000:fffc3000       .debug$S                   0000000140000000     mfc140u:mfc140u.dll
 0000:fffc3000       .debug$S                   0000000140000000     mfc140u:mfc140u.dll
 0000:fffc3000       .debug$S                   0000000140000000     mfc140u:mfc140u.dll
 0000:fffc3000       .debug$S                   0000000140000000     mfc140u:mfc140u.dll
 0000:fffc3000       .debug$S                   0000000140000000     mfc140u:mfc140u.dll
 0000:fffc3000       .debug$S                   0000000140000000     mfc140u:mfc140u.dll
 0000:fffc3000       .debug$S                   0000000140000000     mfc140u:mfc140u.dll
 0000:fffc3000       .debug$S                   0000000140000000     mfc140u:mfc140u.dll
 0000:fffc3000       .debug$S                   0000000140000000     mfc140u:mfc140u.dll
 0000:fffc3000       .debug$S                   0000000140000000     mfc140u:mfc140u.dll
 0000:fffc3000       .debug$S                   0000000140000000     mfc140u:mfc140u.dll
 0000:fffc3000       .debug$S                   0000000140000000     mfc140u:mfc140u.dll
 0000:fffc3000       .debug$S                   0000000140000000     mfc140u:mfc140u.dll
 0000:fffc3000       .debug$S                   0000000140000000     mfc140u:mfc140u.dll
 0000:fffc3000       .debug$S                   0000000140000000     mfc140u:mfc140u.dll
 0000:fffc3000       .debug$S                   0000000140000000     mfc140u:mfc140u.dll
 0000:fffc3000       .debug$S                   0000000140000000     mfc140u:mfc140u.dll
 0000:fffc3000       .debug$S                   0000000140000000     mfc140u:mfc140u.dll
 0000:fffc3000       .debug$S                   0000000140000000     mfc140u:mfc140u.dll
 0000:fffc3000       .debug$S                   0000000140000000     mfc140u:mfc140u.dll
 0000:fffc3000       .debug$S                   0000000140000000     mfc140u:mfc140u.dll
 0000:fffc3000       .debug$S                   0000000140000000     mfc140u:mfc140u.dll
 0000:fffc3000       .debug$S                   0000000140000000     mfc140u:mfc140u.dll
 0000:fffc3000       .debug$S                   0000000140000000     mfc140u:mfc140u.dll
 0000:fffc3000       .debug$S                   0000000140000000     mfc140u:mfc140u.dll
 0000:fffc3000       .debug$S                   0000000140000000     mfc140u:mfc140u.dll
 0000:fffc3000       .debug$S                   0000000140000000     mfc140u:mfc140u.dll
 0000:fffc3000       .debug$S                   0000000140000000     mfc140u:mfc140u.dll
 0000:fffc3000       .debug$S                   0000000140000000     mfc140u:mfc140u.dll
 0000:fffc3000       .debug$S                   0000000140000000     mfc140u:mfc140u.dll
 0000:fffc3000       .debug$S                   0000000140000000     mfc140u:mfc140u.dll
 0000:fffc3000       .debug$S                   0000000140000000     mfc140u:mfc140u.dll
 0000:fffc3000       .debug$S                   0000000140000000     mfc140u:mfc140u.dll
 0000:fffc3000       .debug$S                   0000000140000000     mfc140u:mfc140u.dll
 0000:fffc3000       .debug$S                   0000000140000000     mfc140u:mfc140u.dll
 0000:fffc3000       .debug$S                   0000000140000000     mfc140u:mfc140u.dll
 0000:fffc3000       .debug$S                   0000000140000000     mfc140u:mfc140u.dll
 0000:fffc3000       .debug$S                   0000000140000000     mfc140u:mfc140u.dll
 0000:fffc3000       .debug$S                   0000000140000000     mfc140u:mfc140u.dll
 0000:fffc3000       .debug$S                   0000000140000000     mfc140u:mfc140u.dll
 0000:fffc3000       .debug$S                   0000000140000000     mfc140u:mfc140u.dll
 0000:fffc3000       .debug$S                   0000000140000000     mfc140u:mfc140u.dll
 0000:fffc3000       .debug$S                   0000000140000000     mfc140u:mfc140u.dll
 0000:fffc3000       .debug$S                   0000000140000000     mfc140u:mfc140u.dll
 0000:fffc3000       .debug$S                   0000000140000000     mfc140u:mfc140u.dll
 0000:fffc3000       .debug$S                   0000000140000000     mfc140u:mfc140u.dll
 0000:fffc3000       .debug$S                   0000000140000000     mfc140u:mfc140u.dll
 0000:fffc3000       .debug$S                   0000000140000000     mfc140u:mfc140u.dll
 0000:fffc3000       .debug$S                   0000000140000000     mfc140u:mfc140u.dll
 0000:fffc3000       .debug$S                   0000000140000000     mfc140u:mfc140u.dll
 0000:fffc3000       .debug$S                   0000000140000000     mfc140u:mfc140u.dll
 0000:fffc3000       .debug$S                   0000000140000000     mfc140u:mfc140u.dll
 0000:fffc3000       .debug$S                   0000000140000000     mfc140u:mfc140u.dll
 0000:fffc3000       .debug$S                   0000000140000000     mfc140u:mfc140u.dll
 0000:fffc3000       .debug$S                   0000000140000000     mfc140u:mfc140u.dll
 0000:fffc3000       .debug$S                   0000000140000000     mfc140u:mfc140u.dll
 0000:fffc3000       .debug$S                   0000000140000000     mfc140u:mfc140u.dll
 0000:fffc3000       .debug$S                   0000000140000000     mfc140u:mfc140u.dll
 0000:fffc3000       .debug$S                   0000000140000000     mfc140u:mfc140u.dll
 0000:fffc3000       .debug$S                   0000000140000000     mfc140u:mfc140u.dll
 0000:fffc3000       .debug$S                   0000000140000000     mfc140u:mfc140u.dll
 0000:fffc3000       .debug$S                   0000000140000000     mfc140u:mfc140u.dll
 0000:fffc3000       .debug$S                   0000000140000000     mfc140u:mfc140u.dll
 0000:fffc3000       .debug$S                   0000000140000000     mfc140u:mfc140u.dll
 0000:fffc3000       .debug$S                   0000000140000000     mfc140u:mfc140u.dll
 0000:fffc3000       .debug$S                   0000000140000000     mfc140u:mfc140u.dll
 0000:fffc3000       .debug$S                   0000000140000000     mfc140u:mfc140u.dll
 0000:fffc3000       .debug$S                   0000000140000000     mfc140u:mfc140u.dll
 0000:fffc3000       .debug$S                   0000000140000000     mfc140u:mfc140u.dll
 0000:fffc3000       .debug$S                   0000000140000000     mfc140u:mfc140u.dll
 0000:fffc3000       .debug$S                   0000000140000000     mfc140u:mfc140u.dll
 0000:fffc3000       .debug$S                   0000000140000000     mfc140u:mfc140u.dll
 0000:fffc3000       .debug$S                   0000000140000000     mfc140u:mfc140u.dll
 0000:fffc3000       .debug$S                   0000000140000000     mfc140u:mfc140u.dll
 0000:fffc3000       .debug$S                   0000000140000000     mfc140u:mfc140u.dll
 0000:fffc3000       .debug$S                   0000000140000000     mfc140u:mfc140u.dll
 0000:fffc3000       .debug$S                   0000000140000000     mfc140u:mfc140u.dll
 0000:fffc3000       .debug$S                   0000000140000000     mfc140u:mfc140u.dll
 0000:fffc3000       .debug$S                   0000000140000000     mfc140u:mfc140u.dll
 0000:fffc3000       .debug$S                   0000000140000000     mfc140u:mfc140u.dll
 0000:fffc3000       .debug$S                   0000000140000000     mfc140u:mfc140u.dll
 0000:fffc3000       .debug$S                   0000000140000000     mfc140u:mfc140u.dll
 0000:fffc3000       .debug$S                   0000000140000000     mfc140u:mfc140u.dll
 0000:fffc3000       .debug$S                   0000000140000000     mfc140u:mfc140u.dll
 0000:fffc3000       .debug$S                   0000000140000000     mfc140u:mfc140u.dll
 0000:fffc3000       .debug$S                   0000000140000000     mfc140u:mfc140u.dll
 0000:fffc3000       .debug$S                   0000000140000000     mfc140u:mfc140u.dll
 0000:fffc3000       .debug$S                   0000000140000000     mfc140u:mfc140u.dll
 0000:fffc3000       .debug$S                   0000000140000000     mfc140u:mfc140u.dll
 0000:fffc3000       .debug$S                   0000000140000000     mfc140u:mfc140u.dll
 0000:fffc3000       .debug$S                   0000000140000000     mfc140u:mfc140u.dll
 0000:fffc3000       .debug$S                   0000000140000000     mfc140u:mfc140u.dll
 0000:fffc3000       .debug$S                   0000000140000000     mfc140u:mfc140u.dll
 0000:fffc3000       .debug$S                   0000000140000000     mfc140u:mfc140u.dll
 0000:fffc3000       .debug$S                   0000000140000000     mfc140u:mfc140u.dll
 0000:fffc3000       .debug$S                   0000000140000000     mfc140u:mfc140u.dll
 0000:fffc3000       .debug$S                   0000000140000000     mfc140u:mfc140u.dll
 0000:fffc3000       .debug$S                   0000000140000000     mfc140u:mfc140u.dll
 0000:fffc3000       .debug$S                   0000000140000000     mfc140u:mfc140u.dll
 0000:fffc3000       .debug$S                   0000000140000000     mfc140u:mfc140u.dll
 0000:fffc3000       .debug$S                   0000000140000000     mfc140u:mfc140u.dll
 0000:fffc3000       .debug$S                   0000000140000000     mfc140u:mfc140u.dll
 0000:fffc3000       .debug$S                   0000000140000000     mfc140u:mfc140u.dll
 0000:fffc3000       .debug$S                   0000000140000000     mfc140u:mfc140u.dll
 0000:fffc3000       .debug$S                   0000000140000000     msvcprt:MSVCP140.dll
 0000:fffc3000       .debug$S                   0000000140000000     msvcprt:MSVCP140.dll
 0000:fffc3000       .debug$S                   0000000140000000     msvcprt:MSVCP140.dll
 0000:fffc3000       .debug$S                   0000000140000000     msvcprt:MSVCP140.dll
 0000:fffc3000       .debug$S                   0000000140000000     msvcprt:MSVCP140.dll
 0000:fffc3000       .debug$S                   0000000140000000     msvcprt:MSVCP140.dll
 0000:fffc3000       .debug$S                   0000000140000000     msvcprt:MSVCP140.dll
 0000:fffc3000       .debug$S                   0000000140000000     msvcprt:MSVCP140.dll
 0000:fffc3000       .debug$S                   0000000140000000     msvcprt:MSVCP140.dll
 0000:fffc3000       .debug$S                   0000000140000000     msvcprt:MSVCP140.dll
 0000:fffc3000       .debug$S                   0000000140000000     msvcprt:MSVCP140.dll
 0000:fffc3000       .debug$S                   0000000140000000     msvcprt:MSVCP140.dll
 0000:fffc3000       .debug$S                   0000000140000000     msvcprt:MSVCP140.dll
 0000:fffc3000       .debug$S                   0000000140000000     msvcprt:MSVCP140.dll
 0000:fffc3000       .debug$S                   0000000140000000     msvcprt:MSVCP140.dll
 0000:fffc3000       .debug$S                   0000000140000000     msvcprt:MSVCP140.dll
 0000:fffc3000       .debug$S                   0000000140000000     msvcprt:MSVCP140.dll
 0000:fffc3000       .debug$S                   0000000140000000     msvcprt:MSVCP140.dll
 0000:fffc3000       .debug$S                   0000000140000000     msvcprt:MSVCP140.dll
 0000:fffc3000       .debug$S                   0000000140000000     msvcprt:MSVCP140.dll
 0000:fffc3000       .debug$S                   0000000140000000     msvcprt:MSVCP140.dll
 0000:fffc3000       .debug$S                   0000000140000000     msvcprt:MSVCP140.dll
 0000:fffc3000       .debug$S                   0000000140000000     msvcprt:MSVCP140.dll
 0000:fffc3000       .debug$S                   0000000140000000     msvcprt:MSVCP140.dll
 0000:fffc3000       .debug$S                   0000000140000000     msvcprt:MSVCP140.dll
 0000:fffc3000       .debug$S                   0000000140000000     msvcprt:MSVCP140.dll
 0000:fffc3000       .debug$S                   0000000140000000     msvcprt:MSVCP140.dll
 0000:fffc3000       .debug$S                   0000000140000000     msvcprt:MSVCP140.dll
 0000:fffc3000       .debug$S                   0000000140000000     msvcprt:MSVCP140.dll
 0000:fffc3000       .debug$S                   0000000140000000     msvcprt:MSVCP140.dll
 0000:fffc3000       .debug$S                   0000000140000000     msvcprt:MSVCP140.dll
 0000:fffc3000       .debug$S                   0000000140000000     msvcprt:MSVCP140.dll
 0000:fffc3000       .debug$S                   0000000140000000     msvcprt:MSVCP140.dll
 0000:fffc3000       .debug$S                   0000000140000000     msvcprt:MSVCP140.dll
 0000:fffc3000       .debug$S                   0000000140000000     msvcprt:MSVCP140.dll
 0000:fffc3000       .debug$S                   0000000140000000     msvcprt:MSVCP140.dll
 0000:fffc3000       .debug$S                   0000000140000000     msvcprt:MSVCP140.dll
 0000:fffc3000       .debug$S                   0000000140000000     msvcprt:MSVCP140.dll
 0000:fffc3000       .debug$S                   0000000140000000     msvcprt:MSVCP140.dll
 0000:fffc3000       .debug$S                   0000000140000000     msvcprt:MSVCP140.dll
 0000:fffc3000       .debug$S                   0000000140000000     msvcprt:MSVCP140.dll
 0000:fffc3000       .debug$S                   0000000140000000     msvcprt:MSVCP140.dll
 0000:fffc3000       .debug$S                   0000000140000000     msvcprt:MSVCP140.dll
 0000:fffc3000       .debug$S                   0000000140000000     msvcprt:MSVCP140.dll
 0000:fffc3000       .debug$S                   0000000140000000     msvcprt:MSVCP140.dll
 0000:fffc3000       .debug$S                   0000000140000000     msvcprt:MSVCP140.dll
 0000:fffc3000       .debug$S                   0000000140000000     msvcprt:MSVCP140.dll
 0000:fffc3000       .debug$S                   0000000140000000     msvcprt:MSVCP140.dll
 0000:fffc3000       .debug$S                   0000000140000000     msvcprt:MSVCP140.dll
 0000:fffc3000       .debug$S                   0000000140000000     msvcprt:MSVCP140.dll
 0000:fffc3000       .debug$S                   0000000140000000     msvcprt:MSVCP140.dll
 0000:fffc3000       .debug$S                   0000000140000000     msvcprt:MSVCP140.dll
 0000:fffc3000       .debug$S                   0000000140000000     msvcprt:MSVCP140.dll
 0000:fffc3000       .debug$S                   0000000140000000     msvcprt:MSVCP140.dll
 0000:fffc3000       .debug$S                   0000000140000000     msvcprt:MSVCP140.dll
 0000:fffc3000       .debug$S                   0000000140000000     msvcprt:MSVCP140.dll
 0000:fffc3000       .debug$S                   0000000140000000     msvcprt:MSVCP140.dll
 0000:fffc3000       .debug$S                   0000000140000000     msvcprt:MSVCP140.dll
 0000:fffc3000       .debug$S                   0000000140000000     msvcprt:MSVCP140.dll
 0000:fffc3000       .debug$S                   0000000140000000     msvcprt:MSVCP140.dll
 0000:fffc3000       .debug$S                   0000000140000000     msvcprt:MSVCP140.dll
 0000:fffc3000       .debug$S                   0000000140000000     msvcprt:MSVCP140.dll
 0000:fffc3000       .debug$S                   0000000140000000     msvcprt:MSVCP140.dll
 0000:fffc3000       .debug$S                   0000000140000000     msvcprt:MSVCP140.dll
 0000:fffc3000       .debug$S                   0000000140000000     msvcprt:MSVCP140.dll
 0000:fffc3000       .debug$S                   0000000140000000     msvcprt:MSVCP140.dll
 0000:fffc3000       .debug$S                   0000000140000000     msvcprt:MSVCP140.dll
 0000:fffc3000       .debug$S                   0000000140000000     msvcprt:MSVCP140.dll
 0000:fffc3000       .debug$S                   0000000140000000     msvcprt:MSVCP140.dll
 0000:fffc3000       .debug$S                   0000000140000000     msvcprt:MSVCP140.dll
 0000:fffc3000       .debug$S                   0000000140000000     msvcprt:MSVCP140.dll
 0000:fffc3000       .debug$S                   0000000140000000     msvcprt:MSVCP140.dll
 0000:fffc3000       .debug$S                   0000000140000000     msvcprt:MSVCP140.dll
 0000:fffc3000       .debug$S                   0000000140000000     msvcprt:MSVCP140.dll
 0000:fffc3000       .debug$S                   0000000140000000     msvcprt:MSVCP140.dll
 0000:fffc3000       .debug$S                   0000000140000000     msvcprt:MSVCP140.dll
 0000:fffc3000       .debug$S                   0000000140000000     msvcprt:MSVCP140.dll
 0000:fffc3000       .debug$S                   0000000140000000     msvcprt:MSVCP140.dll
 0000:fffc3000       .debug$S                   0000000140000000     msvcprt:MSVCP140.dll
 0000:fffc3000       .debug$S                   0000000140000000     msvcprt:MSVCP140.dll
 0000:fffc3000       .debug$S                   0000000140000000     msvcprt:MSVCP140.dll
 0000:fffc3000       .debug$S                   0000000140000000     msvcprt:MSVCP140.dll
 0000:fffc3000       .debug$S                   0000000140000000     msvcprt:MSVCP140.dll
 0000:fffc3000       .debug$S                   0000000140000000     msvcprt:MSVCP140.dll
 0000:fffc3000       .debug$S                   0000000140000000     msvcprt:MSVCP140.dll
 0000:fffc3000       .debug$S                   0000000140000000     msvcprt:MSVCP140.dll
 0000:fffc3000       .debug$S                   0000000140000000     msvcprt:MSVCP140.dll
 0000:fffc3000       .debug$S                   0000000140000000     msvcprt:MSVCP140.dll
 0000:fffc3000       .debug$S                   0000000140000000     msvcprt:MSVCP140.dll
 0000:fffc3000       .debug$S                   0000000140000000     msvcprt:MSVCP140.dll
 0000:fffc3000       .debug$S                   0000000140000000     msvcprt:MSVCP140.dll
 0000:fffc3000       .debug$S                   0000000140000000     msvcprt:MSVCP140.dll
 0000:fffc3000       .debug$S                   0000000140000000     msvcprt:MSVCP140.dll
 0000:fffc3000       .debug$S                   0000000140000000     msvcprt:MSVCP140.dll
 0000:fffc3000       .debug$S                   0000000140000000     msvcprt:MSVCP140.dll
 0000:fffc3000       .debug$S                   0000000140000000     msvcprt:MSVCP140.dll
 0000:fffc3000       .debug$S                   0000000140000000     msvcprt:MSVCP140.dll
 0000:fffc3000       .debug$S                   0000000140000000     msvcprt:MSVCP140.dll
 0000:fffc3000       .debug$S                   0000000140000000     msvcprt:MSVCP140.dll
 0000:fffc3000       .debug$S                   0000000140000000     msvcprt:MSVCP140.dll
 0000:fffc3000       .debug$S                   0000000140000000     msvcprt:MSVCP140.dll
 0000:fffc3000       .debug$S                   0000000140000000     msvcprt:MSVCP140.dll
 0000:fffc3000       .debug$S                   0000000140000000     msvcprt:MSVCP140.dll
 0000:fffc3000       .debug$S                   0000000140000000     vcruntime:VCRUNTIME140.dll
 0000:fffc3000       .debug$S                   0000000140000000     vcruntime:VCRUNTIME140.dll
 0000:fffc3000       .debug$S                   0000000140000000     vcruntime:VCRUNTIME140.dll
 0000:fffc3000       .debug$S                   0000000140000000     vcruntime:VCRUNTIME140.dll
 0000:fffc3000       .debug$S                   0000000140000000     vcruntime:VCRUNTIME140.dll
 0000:fffc3000       .debug$S                   0000000140000000     vcruntime:VCRUNTIME140.dll
 0000:fffc3000       .debug$S                   0000000140000000     vcruntime:VCRUNTIME140.dll
 0000:fffc3000       .debug$S                   0000000140000000     vcruntime:VCRUNTIME140.dll
 0000:fffc3000       .debug$S                   0000000140000000     vcruntime:VCRUNTIME140.dll
 0000:fffc3000       .debug$S                   0000000140000000     vcruntime:VCRUNTIME140.dll
 0000:fffc3000       .debug$S                   0000000140000000     vcruntime:VCRUNTIME140.dll
 0000:fffc3000       .debug$S                   0000000140000000     vcruntime:VCRUNTIME140.dll
 0000:fffc3000       .debug$S                   0000000140000000     vcruntime:VCRUNTIME140.dll
 0000:fffc3000       .debug$S                   0000000140000000     vcruntime:VCRUNTIME140.dll
 0000:fffc3000       .debug$S                   0000000140000000     vcruntime:VCRUNTIME140.dll
 0000:fffc3000       .debug$S                   0000000140000000     vcruntime:VCRUNTIME140.dll
 0000:fffc3000       .debug$S                   0000000140000000     vcruntime:VCRUNTIME140_1.dll
 0000:fffc3000       .debug$S                   0000000140000000     MNSC:MNSC.dll
 0000:fffc3000       .debug$S                   0000000140000000     MNSC:MNSC.dll
 0000:fffc3000       .debug$S                   0000000140000000     MNSC:MNSC.dll
 0000:fffc3000       .debug$S                   0000000140000000     MNSC:MNSC.dll
 0000:fffc3000       .debug$S                   0000000140000000     MNSC:MNSC.dll
 0001:00000000       ??__EtheApp@@YAXXZ         0000000140001000 f   MFCEdit.obj
 0001:00000050       ??__E_AtlBaseModule@ATL@@YAXXZ 0000000140001050 f   atls:atlbase.obj
 0001:00000070       ??__EvtMissing@@YAXXZ      0000000140001070 f   comsuppw:comutil.obj
 0001:0000007c       ??__E_Fac_tidy_reg@std@@YAXXZ 000000014000107c f   msvcprt:locale0_implib.obj
 0001:00000088       ??__E_afxInitAppState@@YAXXZ 0000000140001088 f   mfcs140u:appmodul.obj
 0001:000018c0       $LN40                      00000001400028c0     MFCEditView.obj
 0001:000018dc       $LN39                      00000001400028dc     MFCEditView.obj
 0001:00009ce8       $LN268                     000000014000ace8     MFCEditView.obj
 0001:0000b2e0       $LN687                     000000014000c2e0     MFCEditView.obj
 0001:0000c9c8       $LN79                      000000014000d9c8     MFCEditView.obj
 0001:0000c9f0       $LN78                      000000014000d9f0     MFCEditView.obj
 0001:0000fd98       $LN221                     0000000140010d98     MFCEditView.obj
 0001:0000fda0       $LN220                     0000000140010da0     MFCEditView.obj
 0001:0000fdd4       $LN219                     0000000140010dd4     MFCEditView.obj
 0001:0000fde4       $LN218                     0000000140010de4     MFCEditView.obj
 0001:000127f4       ?pre_c_initialization@@YAHXZ 00000001400137f4 f   msvcrt:exe_wwinmain.obj
 0001:000128ac       ?post_pgo_initialization@@YAHXZ 00000001400138ac f   msvcrt:exe_wwinmain.obj
 0001:000128bc       ?pre_cpp_initialization@@YAXXZ 00000001400138bc f   msvcrt:exe_wwinmain.obj
 0001:000128d8       ?__scrt_common_main_seh@@YAHXZ 00000001400138d8 f   msvcrt:exe_wwinmain.obj
 0001:00012a60       $$000000                   0000000140013a60     msvcrt:amdsecgs.obj
 0001:00013278       capture_previous_context   0000000140014278 f   msvcrt:gs_report.obj
 0001:00013ad0       ??$__std_find_trivial_impl@U_Find_traits_2@?A0x8417fefe@@G@?A0x8417fefe@@YAPEBXPEBX0G@Z 0000000140014ad0 f   msvcprt:vector_algorithms.obj
 0001:00013be0       ??$__std_find_trivial_impl@U_Find_traits_4@?A0x8417fefe@@I@?A0x8417fefe@@YAPEBXPEBX0I@Z 0000000140014be0 f   msvcprt:vector_algorithms.obj
 0001:00013e40       $$000000                   0000000140014e40     msvcrt:chkstk.obj
 0001:00013f30       $$000000                   0000000140014f30     msvcrt:guard_dispatch.obj
 0001:00013f50       $$000000                   0000000140014f50     msvcrt:guard_xfg_dispatch.obj
 0001:00013f70       ?dtor$0@?0??InitInstance@CMFCEditApp@@UEAAHXZ@4HA 0000000140014f70 f   MFCEdit.obj
 0001:00013f7c       ?dtor$1@?0??InitInstance@CMFCEditApp@@UEAAHXZ@4HA 0000000140014f7c f   MFCEdit.obj
 0001:00013f90       ?dtor$0@?0??OnAppAbout@CMFCEditApp@@QEAAXXZ@4HA 0000000140014f90 f   MFCEdit.obj
 0001:00013fa0       ?catch$1@?0???1CGdiObject@@UEAA@XZ@4HA 0000000140014fa0 f   MFCEdit.obj
 0001:00013fae       __catch$??1CGdiObject@@UEAA@XZ$0 0000000140014fae f   MFCEdit.obj
 0001:00014059       ?dtor$0@?0???1CGdiObject@@UEAA@XZ@4HA 0000000140015059 f   MFCEdit.obj
 0001:00014070       ?catch$1@?0??GetAdapter@CDocument@@UEAAPEAUIDocument@ATL@@XZ@4HA 0000000140015070 f   MFCEditDoc.obj
 0001:0001407d       __catch$?GetAdapter@CDocument@@UEAAPEAUIDocument@ATL@@XZ$0 000000014001507d f   MFCEditDoc.obj
 0001:000140a0       ?dtor$3@?0??PasteTemplate@@YAXAEAVCEdit@@@Z@4HA 00000001400150a0 f   MFCEditView.obj
 0001:000140ce       ?dtor$4@?0??PasteTemplate@@YAXAEAVCEdit@@@Z@4HA 00000001400150ce f   MFCEditView.obj
 0001:000140e0       ?dtor$0@?0??PasteTemplate@@YAXAEAVCEdit@@@Z@4HA 00000001400150e0 f   MFCEditView.obj
 0001:000140ec       ?dtor$1@?0??PasteTemplate@@YAXAEAVCEdit@@@Z@4HA 00000001400150ec f   MFCEditView.obj
 0001:000140fa       ?dtor$8@?0??PasteTemplate@@YAXAEAVCEdit@@@Z@4HA 00000001400150fa f   MFCEditView.obj
 0001:00014120       ?dtor$2@?0??PasteTemplate@@YAXAEAVCEdit@@@Z@4HA 0000000140015120 f   MFCEditView.obj
 0001:00014130       ?dtor$0@?0??PreTranslateMessage@CMFCEditView@@MEAAHPEAUtagMSG@@@Z@4HA 0000000140015130 f   MFCEditView.obj
 0001:0001413e       ?dtor$1@?0??PreTranslateMessage@CMFCEditView@@MEAAHPEAUtagMSG@@@Z@4HA 000000014001513e f   MFCEditView.obj
 0001:00014150       ?dtor$0@?0??OnDestroy@CMFCEditView@@QEAAXXZ@4HA 0000000140015150 f   MFCEditView.obj
 0001:00014150       ?dtor$0@?0??OnInitialUpdate@CMFCEditView@@MEAAXXZ@4HA 0000000140015150 f   MFCEditView.obj
 0001:0001415e       ?dtor$1@?0??OnDestroy@CMFCEditView@@QEAAXXZ@4HA 000000014001515e f   MFCEditView.obj
 0001:0001415e       ?dtor$1@?0??OnInitialUpdate@CMFCEditView@@MEAAXXZ@4HA 000000014001515e f   MFCEditView.obj
 0001:00014170       ?dtor$0@?0??SetFont@CMFCEditView@@QEAAXH@Z@4HA 0000000140015170 f   MFCEditView.obj
 0001:00014180       ?dtor$0@?0??inetGet@CVARIANTTool@@IEAA?AUtagVARIANT@@U2@@Z@4HA 0000000140015180 f   MFCEditView.obj
 0001:0001418c       ?dtor$1@?0??inetGet@CVARIANTTool@@IEAA?AUtagVARIANT@@U2@@Z@4HA 000000014001518c f   MFCEditView.obj
 0001:00014198       ?dtor$2@?0??inetGet@CVARIANTTool@@IEAA?AUtagVARIANT@@U2@@Z@4HA 0000000140015198 f   MFCEditView.obj
 0001:000141a4       ?dtor$3@?0??inetGet@CVARIANTTool@@IEAA?AUtagVARIANT@@U2@@Z@4HA 00000001400151a4 f   MFCEditView.obj
 0001:000141b0       ?dtor$4@?0??inetGet@CVARIANTTool@@IEAA?AUtagVARIANT@@U2@@Z@4HA 00000001400151b0 f   MFCEditView.obj
 0001:000141bc       ?dtor$5@?0??inetGet@CVARIANTTool@@IEAA?AUtagVARIANT@@U2@@Z@4HA 00000001400151bc f   MFCEditView.obj
 0001:000141c8       ?dtor$29@?0??inetGet@CVARIANTTool@@IEAA?AUtagVARIANT@@U2@@Z@4HA 00000001400151c8 f   MFCEditView.obj
 0001:000141e5       ?dtor$6@?0??inetGet@CVARIANTTool@@IEAA?AUtagVARIANT@@U2@@Z@4HA 00000001400151e5 f   MFCEditView.obj
 0001:000141f1       ?dtor$27@?0??inetGet@CVARIANTTool@@IEAA?AUtagVARIANT@@U2@@Z@4HA 00000001400151f1 f   MFCEditView.obj
 0001:0001420e       ?dtor$7@?0??inetGet@CVARIANTTool@@IEAA?AUtagVARIANT@@U2@@Z@4HA 000000014001520e f   MFCEditView.obj
 0001:0001421a       ?dtor$28@?0??inetGet@CVARIANTTool@@IEAA?AUtagVARIANT@@U2@@Z@4HA 000000014001521a f   MFCEditView.obj
 0001:00014237       ?dtor$8@?0??inetGet@CVARIANTTool@@IEAA?AUtagVARIANT@@U2@@Z@4HA 0000000140015237 f   MFCEditView.obj
 0001:00014243       ?dtor$9@?0??inetGet@CVARIANTTool@@IEAA?AUtagVARIANT@@U2@@Z@4HA 0000000140015243 f   MFCEditView.obj
 0001:0001424f       ?dtor$35@?0??inetGet@CVARIANTTool@@IEAA?AUtagVARIANT@@U2@@Z@4HA 000000014001524f f   MFCEditView.obj
 0001:0001426c       ?dtor$34@?0??inetGet@CVARIANTTool@@IEAA?AUtagVARIANT@@U2@@Z@4HA 000000014001526c f   MFCEditView.obj
 0001:00014289       ?dtor$10@?0??inetGet@CVARIANTTool@@IEAA?AUtagVARIANT@@U2@@Z@4HA 0000000140015289 f   MFCEditView.obj
 0001:00014295       ?dtor$11@?0??inetGet@CVARIANTTool@@IEAA?AUtagVARIANT@@U2@@Z@4HA 0000000140015295 f   MFCEditView.obj
 0001:000142a1       ?dtor$12@?0??inetGet@CVARIANTTool@@IEAA?AUtagVARIANT@@U2@@Z@4HA 00000001400152a1 f   MFCEditView.obj
 0001:000142ad       ?dtor$14@?0??inetGet@CVARIANTTool@@IEAA?AUtagVARIANT@@U2@@Z@4HA 00000001400152ad f   MFCEditView.obj
 0001:000142b9       ?dtor$15@?0??inetGet@CVARIANTTool@@IEAA?AUtagVARIANT@@U2@@Z@4HA 00000001400152b9 f   MFCEditView.obj
 0001:000142c5       ?dtor$17@?0??inetGet@CVARIANTTool@@IEAA?AUtagVARIANT@@U2@@Z@4HA 00000001400152c5 f   MFCEditView.obj
 0001:000142d1       ?dtor$18@?0??inetGet@CVARIANTTool@@IEAA?AUtagVARIANT@@U2@@Z@4HA 00000001400152d1 f   MFCEditView.obj
 0001:000142dd       ?dtor$19@?0??inetGet@CVARIANTTool@@IEAA?AUtagVARIANT@@U2@@Z@4HA 00000001400152dd f   MFCEditView.obj
 0001:000142e9       ?dtor$20@?0??inetGet@CVARIANTTool@@IEAA?AUtagVARIANT@@U2@@Z@4HA 00000001400152e9 f   MFCEditView.obj
 0001:000142f5       ?dtor$21@?0??inetGet@CVARIANTTool@@IEAA?AUtagVARIANT@@U2@@Z@4HA 00000001400152f5 f   MFCEditView.obj
 0001:00014310       ?dtor$0@?0??Value@CVARIANTTool@@IEAA?AUtagVARIANT@@U2@0@Z@4HA 0000000140015310 f   MFCEditView.obj
 0001:0001431c       ?dtor$1@?0??Value@CVARIANTTool@@IEAA?AUtagVARIANT@@U2@0@Z@4HA 000000014001531c f   MFCEditView.obj
 0001:00014328       ?dtor$27@?0??Value@CVARIANTTool@@IEAA?AUtagVARIANT@@U2@0@Z@4HA 0000000140015328 f   MFCEditView.obj
 0001:00014359       ?dtor$28@?0??Value@CVARIANTTool@@IEAA?AUtagVARIANT@@U2@0@Z@4HA 0000000140015359 f   MFCEditView.obj
 0001:0001436b       ?dtor$2@?0??Value@CVARIANTTool@@IEAA?AUtagVARIANT@@U2@0@Z@4HA 000000014001536b f   MFCEditView.obj
 0001:00014377       ?dtor$11@?0??Value@CVARIANTTool@@IEAA?AUtagVARIANT@@U2@0@Z@4HA 0000000140015377 f   MFCEditView.obj
 0001:0001439d       ?dtor$4@?0??Value@CVARIANTTool@@IEAA?AUtagVARIANT@@U2@0@Z@4HA 000000014001539d f   MFCEditView.obj
 0001:000143a9       ?dtor$39@?0??Value@CVARIANTTool@@IEAA?AUtagVARIANT@@U2@0@Z@4HA 00000001400153a9 f   MFCEditView.obj
 0001:000143da       ?dtor$40@?0??Value@CVARIANTTool@@IEAA?AUtagVARIANT@@U2@0@Z@4HA 00000001400153da f   MFCEditView.obj
 0001:000143ec       ?dtor$5@?0??Value@CVARIANTTool@@IEAA?AUtagVARIANT@@U2@0@Z@4HA 00000001400153ec f   MFCEditView.obj
 0001:000143f8       ?dtor$44@?0??Value@CVARIANTTool@@IEAA?AUtagVARIANT@@U2@0@Z@4HA 00000001400153f8 f   MFCEditView.obj
 0001:00014423       ?dtor$7@?0??Value@CVARIANTTool@@IEAA?AUtagVARIANT@@U2@0@Z@4HA 0000000140015423 f   MFCEditView.obj
 0001:0001442f       ?dtor$8@?0??Value@CVARIANTTool@@IEAA?AUtagVARIANT@@U2@0@Z@4HA 000000014001542f f   MFCEditView.obj
 0001:0001443b       ?dtor$9@?0??Value@CVARIANTTool@@IEAA?AUtagVARIANT@@U2@0@Z@4HA 000000014001543b f   MFCEditView.obj
 0001:00014450       ?dtor$0@?0??OpenTextFile@CVARIANTTool@@IEAA?AUtagVARIANT@@U2@@Z@4HA 0000000140015450 f   MFCEditView.obj
 0001:0001445c       ?dtor$1@?0??OpenTextFile@CVARIANTTool@@IEAA?AUtagVARIANT@@U2@@Z@4HA 000000014001545c f   MFCEditView.obj
 0001:0001446a       ?dtor$5@?0??OpenTextFile@CVARIANTTool@@IEAA?AUtagVARIANT@@U2@@Z@4HA 000000014001546a f   MFCEditView.obj
 0001:0001449b       ?dtor$6@?0??OpenTextFile@CVARIANTTool@@IEAA?AUtagVARIANT@@U2@@Z@4HA 000000014001549b f   MFCEditView.obj
 0001:000144ad       ?dtor$2@?0??OpenTextFile@CVARIANTTool@@IEAA?AUtagVARIANT@@U2@@Z@4HA 00000001400154ad f   MFCEditView.obj
 0001:000144b9       ?dtor$10@?0??OpenTextFile@CVARIANTTool@@IEAA?AUtagVARIANT@@U2@@Z@4HA 00000001400154b9 f   MFCEditView.obj
 0001:000144df       ?dtor$3@?0??OpenTextFile@CVARIANTTool@@IEAA?AUtagVARIANT@@U2@@Z@4HA 00000001400154df f   MFCEditView.obj
 0001:000144f0       ?dtor$0@?0??Invoke@CVARIANTTool@@UEAA?AUtagVARIANT@@PEB_WPEAU2@H@Z@4HA 00000001400154f0 f   MFCEditView.obj
 0001:000144f0       ?dtor$0@?0??Invoke@IVARIANTApplication@@UEAA?AUtagVARIANT@@PEB_WPEAU2@H@Z@4HA 00000001400154f0 f   MFCEditView.obj
 0001:00014500       ?dtor$0@?0??Test@IVARIANTApplication@@QEAA?AUtagVARIANT@@U2@@Z@4HA 0000000140015500 f   MFCEditView.obj
 0001:0001450c       ?dtor$10@?0??Test@IVARIANTApplication@@QEAA?AUtagVARIANT@@U2@@Z@4HA 000000014001550c f   MFCEditView.obj
 0001:00014532       ?dtor$11@?0??Test@IVARIANTApplication@@QEAA?AUtagVARIANT@@U2@@Z@4HA 0000000140015532 f   MFCEditView.obj
 0001:00014540       ?dtor$0@?0??OnBnClickedBtnRun@CMFCEditView@@QEAAXXZ@4HA 0000000140015540 f   MFCEditView.obj
 0001:0001454c       ?dtor$8@?0??OnBnClickedBtnRun@CMFCEditView@@QEAAXXZ@4HA 000000014001554c f   MFCEditView.obj
 0001:0001457d       ?dtor$9@?0??OnBnClickedBtnRun@CMFCEditView@@QEAAXXZ@4HA 000000014001557d f   MFCEditView.obj
 0001:0001458f       ?dtor$1@?0??OnBnClickedBtnRun@CMFCEditView@@QEAAXXZ@4HA 000000014001558f f   MFCEditView.obj
 0001:0001459b       ?dtor$3@?0??OnBnClickedBtnRun@CMFCEditView@@QEAAXXZ@4HA 000000014001559b f   MFCEditView.obj
 0001:000145a9       ?dtor$4@?0??OnBnClickedBtnRun@CMFCEditView@@QEAAXXZ@4HA 00000001400155a9 f   MFCEditView.obj
 0001:000145b5       ?dtor$5@?0??OnBnClickedBtnRun@CMFCEditView@@QEAAXXZ@4HA 00000001400155b5 f   MFCEditView.obj
 0001:000145c1       ?dtor$20@?0??OnBnClickedBtnRun@CMFCEditView@@QEAAXXZ@4HA 00000001400155c1 f   MFCEditView.obj
 0001:000145ea       ?dtor$6@?0??OnBnClickedBtnRun@CMFCEditView@@QEAAXXZ@4HA 00000001400155ea f   MFCEditView.obj
 0001:000145f6       ?dtor$7@?0??OnBnClickedBtnRun@CMFCEditView@@QEAAXXZ@4HA 00000001400155f6 f   MFCEditView.obj
 0001:00014610       ?dtor$0@?0??OnBnClickedBtnSave@CMFCEditView@@QEAAXXZ@4HA 0000000140015610 f   MFCEditView.obj
 0001:0001461e       ?dtor$1@?0??OnBnClickedBtnSave@CMFCEditView@@QEAAXXZ@4HA 000000014001561e f   MFCEditView.obj
 0001:0001462c       ?dtor$2@?0??OnBnClickedBtnSave@CMFCEditView@@QEAAXXZ@4HA 000000014001562c f   MFCEditView.obj
 0001:00014640       ?dtor$0@?0??OnSelchangeCombo1@CMFCEditView@@QEAAXXZ@4HA 0000000140015640 f   MFCEditView.obj
 0001:0001464e       ?dtor$1@?0??OnSelchangeCombo1@CMFCEditView@@QEAAXXZ@4HA 000000014001564e f   MFCEditView.obj
 0001:0001465c       ?dtor$2@?0??OnSelchangeCombo1@CMFCEditView@@QEAAXXZ@4HA 000000014001565c f   MFCEditView.obj
 0001:0001466a       ?dtor$4@?0??OnSelchangeCombo1@CMFCEditView@@QEAAXXZ@4HA 000000014001566a f   MFCEditView.obj
 0001:00014680       ?dtor$0@?0??OnSelchangeCmbFont@CMFCEditView@@QEAAXXZ@4HA 0000000140015680 f   MFCEditView.obj
 0001:0001468e       ?dtor$1@?0??OnSelchangeCmbFont@CMFCEditView@@QEAAXXZ@4HA 000000014001568e f   MFCEditView.obj
 0001:000146a0       ?dtor$0@?0??OnSetfocusEdInput@CMFCEditView@@QEAAXXZ@4HA 00000001400156a0 f   MFCEditView.obj
 0001:000146b0       ?dtor$0@?0??WriteUtf8File@@YA_NAEBV?$CStringT@_WV?$StrTraitMFC_DLL@_WV?$ChTraitsCRT@_W@ATL@@@@@ATL@@0@Z@4HA 00000001400156b0 f   MFCEditView.obj
 0001:000146c0       ?dtor$0@?0??Split@@YA?AV?$vector@V?$basic_string@_WU?$char_traits@_W@std@@V?$allocator@_W@2@@std@@V?$allocator@V?$basic_string@_WU?$char_traits@_W@std@@V?$allocator@_W@2@@std@@@2@@std@@V?$basic_string@_WU?$char_traits@_W@std@@V?$allocator@_W@2@@2@0@Z@4HA 00000001400156c0 f   MFCEditView.obj
 0001:000146cc       ?dtor$1@?0??Split@@YA?AV?$vector@V?$basic_string@_WU?$char_traits@_W@std@@V?$allocator@_W@2@@std@@V?$allocator@V?$basic_string@_WU?$char_traits@_W@std@@V?$allocator@_W@2@@std@@@2@@std@@V?$basic_string@_WU?$char_traits@_W@std@@V?$allocator@_W@2@@2@0@Z@4HA 00000001400156cc f   MFCEditView.obj
 0001:000146d8       ?dtor$2@?0??Split@@YA?AV?$vector@V?$basic_string@_WU?$char_traits@_W@std@@V?$allocator@_W@2@@std@@V?$allocator@V?$basic_string@_WU?$char_traits@_W@std@@V?$allocator@_W@2@@std@@@2@@std@@V?$basic_string@_WU?$char_traits@_W@std@@V?$allocator@_W@2@@2@0@Z@4HA 00000001400156d8 f   MFCEditView.obj
 0001:000146fe       ?dtor$3@?0??Split@@YA?AV?$vector@V?$basic_string@_WU?$char_traits@_W@std@@V?$allocator@_W@2@@std@@V?$allocator@V?$basic_string@_WU?$char_traits@_W@std@@V?$allocator@_W@2@@std@@@2@@std@@V?$basic_string@_WU?$char_traits@_W@std@@V?$allocator@_W@2@@2@0@Z@4HA 00000001400156fe f   MFCEditView.obj
 0001:0001470a       ?dtor$4@?0??Split@@YA?AV?$vector@V?$basic_string@_WU?$char_traits@_W@std@@V?$allocator@_W@2@@std@@V?$allocator@V?$basic_string@_WU?$char_traits@_W@std@@V?$allocator@_W@2@@std@@@2@@std@@V?$basic_string@_WU?$char_traits@_W@std@@V?$allocator@_W@2@@2@0@Z@4HA 000000014001570a f   MFCEditView.obj
 0001:00014716       ?dtor$5@?0??Split@@YA?AV?$vector@V?$basic_string@_WU?$char_traits@_W@std@@V?$allocator@_W@2@@std@@V?$allocator@V?$basic_string@_WU?$char_traits@_W@std@@V?$allocator@_W@2@@std@@@2@@std@@V?$basic_string@_WU?$char_traits@_W@std@@V?$allocator@_W@2@@2@0@Z@4HA 0000000140015716 f   MFCEditView.obj
 0001:00014722       ?dtor$8@?0??Split@@YA?AV?$vector@V?$basic_string@_WU?$char_traits@_W@std@@V?$allocator@_W@2@@std@@V?$allocator@V?$basic_string@_WU?$char_traits@_W@std@@V?$allocator@_W@2@@std@@@2@@std@@V?$basic_string@_WU?$char_traits@_W@std@@V?$allocator@_W@2@@2@0@Z@4HA 0000000140015722 f   MFCEditView.obj
 0001:00014748       ?dtor$7@?0??Split@@YA?AV?$vector@V?$basic_string@_WU?$char_traits@_W@std@@V?$allocator@_W@2@@std@@V?$allocator@V?$basic_string@_WU?$char_traits@_W@std@@V?$allocator@_W@2@@std@@@2@@std@@V?$basic_string@_WU?$char_traits@_W@std@@V?$allocator@_W@2@@2@0@Z@4HA 0000000140015748 f   MFCEditView.obj
 0001:00014760       ?dtor$0@?0??inetStockData_YahooFinanceUri@@YA?AV?$basic_string@_WU?$char_traits@_W@std@@V?$allocator@_W@2@@std@@V12@H@Z@4HA 0000000140015760 f   MFCEditView.obj
 0001:0001476c       ?dtor$3@?0??inetStockData_YahooFinanceUri@@YA?AV?$basic_string@_WU?$char_traits@_W@std@@V?$allocator@_W@2@@std@@V12@H@Z@4HA 000000014001576c f   MFCEditView.obj
 0001:0001479a       ?dtor$4@?0??inetStockData_YahooFinanceUri@@YA?AV?$basic_string@_WU?$char_traits@_W@std@@V?$allocator@_W@2@@std@@V12@H@Z@4HA 000000014001579a f   MFCEditView.obj
 0001:000147ac       ?dtor$1@?0??inetStockData_YahooFinanceUri@@YA?AV?$basic_string@_WU?$char_traits@_W@std@@V?$allocator@_W@2@@std@@V12@H@Z@4HA 00000001400157ac f   MFCEditView.obj
 0001:000147b8       ?dtor$8@?0??inetStockData_YahooFinanceUri@@YA?AV?$basic_string@_WU?$char_traits@_W@std@@V?$allocator@_W@2@@std@@V12@H@Z@4HA 00000001400157b8 f   MFCEditView.obj
 0001:000147e0       ?dtor$2@?0???0?$regex_token_iterator@V?$_String_const_iterator@V?$_String_val@U?$_Simple_types@_W@std@@@std@@@std@@_WV?$regex_traits@_W@2@@std@@QEAA@V?$_String_const_iterator@V?$_String_val@U?$_Simple_types@_W@std@@@std@@@1@0AEBV?$basic_regex@_WV?$regex_traits@_W@std@@@1@HW4match_flag_type@regex_constants@1@@Z@4HA 00000001400157e0 f   MFCEditView.obj
 0001:000147f0       ?dtor$0@?0???0?$regex_token_iterator@V?$_String_const_iterator@V?$_String_val@U?$_Simple_types@_W@std@@@std@@@std@@_WV?$regex_traits@_W@2@@std@@QEAA@V?$_String_const_iterator@V?$_String_val@U?$_Simple_types@_W@std@@@std@@@1@0AEBV?$basic_regex@_WV?$regex_traits@_W@std@@@1@HW4match_flag_type@regex_constants@1@@Z@4HA 00000001400157f0 f   MFCEditView.obj
 0001:00014800       ?dtor$0@?0??do_transform@?$collate@_W@std@@MEBA?AV?$basic_string@_WU?$char_traits@_W@std@@V?$allocator@_W@2@@2@PEB_W0@Z@4HA 0000000140015800 f   MFCEditView.obj
 0001:00014830       ?dtor$0@?0???E?$regex_token_iterator@V?$_String_const_iterator@V?$_String_val@U?$_Simple_types@_W@std@@@std@@@std@@_WV?$regex_traits@_W@2@@std@@QEAAAEAV01@XZ@4HA 0000000140015830 f   MFCEditView.obj
 0001:00014840       ?dtor$0@?0???0?$regex_token_iterator@V?$_String_const_iterator@V?$_String_val@U?$_Simple_types@_W@std@@@std@@@std@@_WV?$regex_traits@_W@2@@std@@QEAA@AEBV01@@Z@4HA 0000000140015840 f   MFCEditView.obj
 0001:00014850       ?dtor$11@?0???$?6_WU?$char_traits@_W@std@@@std@@YAAEAV?$basic_ostream@_WU?$char_traits@_W@std@@@0@AEAV10@PEB_W@Z@4HA 0000000140015850 f   MFCEditView.obj
 0001:00014850       ?dtor$11@?0???$_Insert_string@_WU?$char_traits@_W@std@@_K@std@@YAAEAV?$basic_ostream@_WU?$char_traits@_W@std@@@0@AEAV10@QEB_W_K@Z@4HA 0000000140015850 f   MFCEditView.obj
 0001:00014850       ?dtor$8@?0???$?6_WU?$char_traits@_W@std@@@std@@YAAEAV?$basic_ostream@_WU?$char_traits@_W@std@@@0@AEAV10@_W@Z@4HA 0000000140015850 f   MFCEditView.obj
 0001:0001485c       ?dtor$0@?0???$?6_WU?$char_traits@_W@std@@@std@@YAAEAV?$basic_ostream@_WU?$char_traits@_W@std@@@0@AEAV10@PEB_W@Z@4HA 000000014001585c f   MFCEditView.obj
 0001:0001485c       ?dtor$0@?0???$?6_WU?$char_traits@_W@std@@@std@@YAAEAV?$basic_ostream@_WU?$char_traits@_W@std@@@0@AEAV10@_W@Z@4HA 000000014001585c f   MFCEditView.obj
 0001:0001485c       ?dtor$0@?0???$_Insert_string@_WU?$char_traits@_W@std@@_K@std@@YAAEAV?$basic_ostream@_WU?$char_traits@_W@std@@@0@AEAV10@QEB_W_K@Z@4HA 000000014001585c f   MFCEditView.obj
 0001:00014868       ?catch$16@?0???$?6_WU?$char_traits@_W@std@@@std@@YAAEAV?$basic_ostream@_WU?$char_traits@_W@std@@@0@AEAV10@_W@Z@4HA 0000000140015868 f   MFCEditView.obj
 0001:00014868       ?catch$17@?0???$?6_WU?$char_traits@_W@std@@@std@@YAAEAV?$basic_ostream@_WU?$char_traits@_W@std@@@0@AEAV10@PEB_W@Z@4HA 0000000140015868 f   MFCEditView.obj
 0001:00014868       ?catch$17@?0???$_Insert_string@_WU?$char_traits@_W@std@@_K@std@@YAAEAV?$basic_ostream@_WU?$char_traits@_W@std@@@0@AEAV10@QEB_W_K@Z@4HA 0000000140015868 f   MFCEditView.obj
 0001:00014875       __catch$??$?6_WU?$char_traits@_W@std@@@std@@YAAEAV?$basic_ostream@_WU?$char_traits@_W@std@@@0@AEAV10@PEB_W@Z$0 0000000140015875 f   MFCEditView.obj
 0001:00014875       __catch$??$?6_WU?$char_traits@_W@std@@@std@@YAAEAV?$basic_ostream@_WU?$char_traits@_W@std@@@0@AEAV10@_W@Z$0 0000000140015875 f   MFCEditView.obj
 0001:00014875       __catch$??$_Insert_string@_WU?$char_traits@_W@std@@_K@std@@YAAEAV?$basic_ostream@_WU?$char_traits@_W@std@@@0@AEAV10@QEB_W_K@Z$0 0000000140015875 f   MFCEditView.obj
 0001:000148b0       ?dtor$11@?0???$?6U?$char_traits@D@std@@@std@@YAAEAV?$basic_ostream@DU?$char_traits@D@std@@@0@AEAV10@PEBD@Z@4HA 00000001400158b0 f   MFCEditView.obj
 0001:000148bc       ?dtor$0@?0???$?6U?$char_traits@D@std@@@std@@YAAEAV?$basic_ostream@DU?$char_traits@D@std@@@0@AEAV10@PEBD@Z@4HA 00000001400158bc f   MFCEditView.obj
 0001:000148c8       ?catch$17@?0???$?6U?$char_traits@D@std@@@std@@YAAEAV?$basic_ostream@DU?$char_traits@D@std@@@0@AEAV10@PEBD@Z@4HA 00000001400158c8 f   MFCEditView.obj
 0001:000148d5       __catch$??$?6U?$char_traits@D@std@@@std@@YAAEAV?$basic_ostream@DU?$char_traits@D@std@@@0@AEAV10@PEBD@Z$0 00000001400158d5 f   MFCEditView.obj
 0001:00014910       ?dtor$2@?0???$?0U?$char_traits@_W@std@@V?$allocator@_W@1@@?$basic_regex@_WV?$regex_traits@_W@std@@@std@@QEAA@AEBV?$basic_string@_WU?$char_traits@_W@std@@V?$allocator@_W@2@@1@W4syntax_option_type@regex_constants@1@@Z@4HA 0000000140015910 f   MFCEditView.obj
 0001:00014920       ?dtor$4@?0???$?0U?$char_traits@_W@std@@V?$allocator@_W@1@@?$basic_regex@_WV?$regex_traits@_W@std@@@std@@QEAA@AEBV?$basic_string@_WU?$char_traits@_W@std@@V?$allocator@_W@2@@1@W4syntax_option_type@regex_constants@1@@Z@4HA 0000000140015920 f   MFCEditView.obj
 0001:0001492e       ?dtor$5@?0???$?0U?$char_traits@_W@std@@V?$allocator@_W@1@@?$basic_regex@_WV?$regex_traits@_W@std@@@std@@QEAA@AEBV?$basic_string@_WU?$char_traits@_W@std@@V?$allocator@_W@2@@1@W4syntax_option_type@regex_constants@1@@Z@4HA 000000014001592e f   MFCEditView.obj
 0001:0001493a       ?dtor$0@?0???$?0U?$char_traits@_W@std@@V?$allocator@_W@1@@?$basic_regex@_WV?$regex_traits@_W@std@@@std@@QEAA@AEBV?$basic_string@_WU?$char_traits@_W@std@@V?$allocator@_W@2@@1@W4syntax_option_type@regex_constants@1@@Z@4HA 000000014001593a f   MFCEditView.obj
 0001:0001494a       ?dtor$7@?0???$?0U?$char_traits@_W@std@@V?$allocator@_W@1@@?$basic_regex@_WV?$regex_traits@_W@std@@@std@@QEAA@AEBV?$basic_string@_WU?$char_traits@_W@std@@V?$allocator@_W@2@@1@W4syntax_option_type@regex_constants@1@@Z@4HA 000000014001594a f   MFCEditView.obj
 0001:0001495a       ?dtor$6@?0???$?0U?$char_traits@_W@std@@V?$allocator@_W@1@@?$basic_regex@_WV?$regex_traits@_W@std@@@std@@QEAA@AEBV?$basic_string@_WU?$char_traits@_W@std@@V?$allocator@_W@2@@1@W4syntax_option_type@regex_constants@1@@Z@4HA 000000014001595a f   MFCEditView.obj
 0001:00014970       ?dtor$0@?0???$_Regex_search2@V?$_String_const_iterator@V?$_String_val@U?$_Simple_types@_W@std@@@std@@@std@@V?$allocator@V?$sub_match@V?$_String_const_iterator@V?$_String_val@U?$_Simple_types@_W@std@@@std@@@std@@@std@@@2@_WV?$regex_traits@_W@2@V12@@std@@YA_NV?$_String_const_iterator@V?$_String_val@U?$_Simple_types@_W@std@@@std@@@0@0PEAV?$match_results@V?$_String_const_iterator@V?$_String_val@U?$_Simple_types@_W@std@@@std@@@std@@V?$allocator@V?$sub_match@V?$_String_const_iterator@V?$_String_val@U?$_Simple_types@_W@std@@@std@@@std@@@std@@@2@@0@AEBV?$basic_regex@_WV?$regex_traits@_W@std@@@0@W4match_flag_type@regex_constants@0@0@Z@4HA 0000000140015970 f   MFCEditView.obj
 0001:00014980       ?dtor$0@?0???0?$_Matcher@V?$_String_const_iterator@V?$_String_val@U?$_Simple_types@_W@std@@@std@@@std@@_WV?$regex_traits@_W@2@V12@@std@@QEAA@V?$_String_const_iterator@V?$_String_val@U?$_Simple_types@_W@std@@@std@@@1@0AEBV?$regex_traits@_W@1@PEAV_Root_node@1@IW4syntax_option_type@regex_constants@1@W4match_flag_type@61@@Z@4HA 0000000140015980 f   MFCEditView.obj
 0001:0001498c       ?dtor$1@?0???0?$_Matcher@V?$_String_const_iterator@V?$_String_val@U?$_Simple_types@_W@std@@@std@@@std@@_WV?$regex_traits@_W@2@V12@@std@@QEAA@V?$_String_const_iterator@V?$_String_val@U?$_Simple_types@_W@std@@@std@@@1@0AEBV?$regex_traits@_W@1@PEAV_Root_node@1@IW4syntax_option_type@regex_constants@1@W4match_flag_type@61@@Z@4HA 000000014001598c f   MFCEditView.obj
 0001:0001499c       ?dtor$2@?0???0?$_Matcher@V?$_String_const_iterator@V?$_String_val@U?$_Simple_types@_W@std@@@std@@@std@@_WV?$regex_traits@_W@2@V12@@std@@QEAA@V?$_String_const_iterator@V?$_String_val@U?$_Simple_types@_W@std@@@std@@@1@0AEBV?$regex_traits@_W@1@PEAV_Root_node@1@IW4syntax_option_type@regex_constants@1@W4match_flag_type@61@@Z@4HA 000000014001599c f   MFCEditView.obj
 0001:000149b0       ?dtor$0@?0???$_Emplace_reallocate@AEBV_variant_t@@@?$vector@V_variant_t@@V?$allocator@V_variant_t@@@std@@@std@@AEAAPEAV_variant_t@@QEAV2@AEBV2@@Z@4HA 00000001400159b0 f   MFCEditView.obj
 0001:000149bc       ?dtor$1@?0???$_Emplace_reallocate@AEBV_variant_t@@@?$vector@V_variant_t@@V?$allocator@V_variant_t@@@std@@@std@@AEAAPEAV_variant_t@@QEAV2@AEBV2@@Z@4HA 00000001400159bc f   MFCEditView.obj
 0001:000149c8       ?dtor$2@?0???$_Emplace_reallocate@AEBV_variant_t@@@?$vector@V_variant_t@@V?$allocator@V_variant_t@@@std@@@std@@AEAAPEAV_variant_t@@QEAV2@AEBV2@@Z@4HA 00000001400159c8 f   MFCEditView.obj
 0001:000149d4       ?dtor$3@?0???$_Emplace_reallocate@AEBV_variant_t@@@?$vector@V_variant_t@@V?$allocator@V_variant_t@@@std@@@std@@AEAAPEAV_variant_t@@QEAV2@AEBV2@@Z@4HA 00000001400159d4 f   MFCEditView.obj
 0001:000149e0       ?dtor$0@?0???$use_facet@V?$collate@_W@std@@@std@@YAAEBV?$collate@_W@0@AEBVlocale@0@@Z@4HA 00000001400159e0 f   MFCEditView.obj
 0001:000149ee       ?dtor$2@?0???$use_facet@V?$collate@_W@std@@@std@@YAAEBV?$collate@_W@0@AEBVlocale@0@@Z@4HA 00000001400159ee f   MFCEditView.obj
 0001:00014a0e       ?dtor$3@?0???$use_facet@V?$collate@_W@std@@@std@@YAAEBV?$collate@_W@0@AEBVlocale@0@@Z@4HA 0000000140015a0e f   MFCEditView.obj
 0001:00014a34       ?dtor$4@?0???$use_facet@V?$collate@_W@std@@@std@@YAAEBV?$collate@_W@0@AEBVlocale@0@@Z@4HA 0000000140015a34 f   MFCEditView.obj
 0001:00014a5b       ?dtor$5@?0???$use_facet@V?$collate@_W@std@@@std@@YAAEBV?$collate@_W@0@AEBVlocale@0@@Z@4HA 0000000140015a5b f   MFCEditView.obj
 0001:00014a69       ?dtor$1@?0???$use_facet@V?$collate@_W@std@@@std@@YAAEBV?$collate@_W@0@AEBVlocale@0@@Z@4HA 0000000140015a69 f   MFCEditView.obj
 0001:00014a80       ?dtor$0@?0??_Match_pat@?$_Matcher@V?$_String_const_iterator@V?$_String_val@U?$_Simple_types@_W@std@@@std@@@std@@_WV?$regex_traits@_W@2@V12@@std@@AEAA_NPEAV_Node_base@2@@Z@4HA 0000000140015a80 f   MFCEditView.obj
 0001:00014a90       ?dtor$0@?0??_Compile@?$_Parser@PEB_W_WV?$regex_traits@_W@std@@@std@@QEAAPEAV_Root_node@2@XZ@4HA 0000000140015a90 f   MFCEditView.obj
 0001:00014aa0       ?dtor$0@?0???$_Lookup_equiv@_WV?$regex_traits@_W@std@@@std@@YA_NGPEBU?$_Sequence@_W@0@AEBV?$regex_traits@_W@0@@Z@4HA 0000000140015aa0 f   MFCEditView.obj
 0001:00014aac       ?dtor$1@?0???$_Lookup_equiv@_WV?$regex_traits@_W@std@@@std@@YA_NGPEBU?$_Sequence@_W@0@AEBV?$regex_traits@_W@0@@Z@4HA 0000000140015aac f   MFCEditView.obj
 0001:00014ac0       ?dtor$0@?0??_Do_if@?$_Matcher@V?$_String_const_iterator@V?$_String_val@U?$_Simple_types@_W@std@@@std@@@std@@_WV?$regex_traits@_W@2@V12@@std@@AEAA_NPEAV_Node_if@2@@Z@4HA 0000000140015ac0 f   MFCEditView.obj
 0001:00014acc       ?dtor$1@?0??_Do_if@?$_Matcher@V?$_String_const_iterator@V?$_String_val@U?$_Simple_types@_W@std@@@std@@@std@@_WV?$regex_traits@_W@2@V12@@std@@AEAA_NPEAV_Node_if@2@@Z@4HA 0000000140015acc f   MFCEditView.obj
 0001:00014ae0       ?dtor$0@?0??_Do_rep@?$_Matcher@V?$_String_const_iterator@V?$_String_val@U?$_Simple_types@_W@std@@@std@@@std@@_WV?$regex_traits@_W@2@V12@@std@@AEAA_NPEAV_Node_rep@2@_NH@Z@4HA 0000000140015ae0 f   MFCEditView.obj
 0001:00014af0       ?dtor$0@?0???$transform_primary@PEA_W@?$_Regex_traits@_W@std@@QEBA?AV?$basic_string@_WU?$char_traits@_W@std@@V?$allocator@_W@2@@1@PEA_W0@Z@4HA 0000000140015af0 f   MFCEditView.obj
 0001:00014af0       ?dtor$0@?0???$transform_primary@PEB_W@?$_Regex_traits@_W@std@@QEBA?AV?$basic_string@_WU?$char_traits@_W@std@@V?$allocator@_W@2@@1@PEB_W0@Z@4HA 0000000140015af0 f   MFCEditView.obj
 0001:00014af0       ?dtor$0@?0???$transform_primary@V?$_String_iterator@V?$_String_val@U?$_Simple_types@_W@std@@@std@@@std@@@?$_Regex_traits@_W@std@@QEBA?AV?$basic_string@_WU?$char_traits@_W@std@@V?$allocator@_W@2@@1@V?$_String_iterator@V?$_String_val@U?$_Simple_types@_W@std@@@std@@@1@0@Z@4HA 0000000140015af0 f   MFCEditView.obj
 0001:00014b16       ?dtor$1@?0???$transform_primary@PEA_W@?$_Regex_traits@_W@std@@QEBA?AV?$basic_string@_WU?$char_traits@_W@std@@V?$allocator@_W@2@@1@PEA_W0@Z@4HA 0000000140015b16 f   MFCEditView.obj
 0001:00014b16       ?dtor$1@?0???$transform_primary@PEB_W@?$_Regex_traits@_W@std@@QEBA?AV?$basic_string@_WU?$char_traits@_W@std@@V?$allocator@_W@2@@1@PEB_W0@Z@4HA 0000000140015b16 f   MFCEditView.obj
 0001:00014b16       ?dtor$1@?0???$transform_primary@V?$_String_iterator@V?$_String_val@U?$_Simple_types@_W@std@@@std@@@std@@@?$_Regex_traits@_W@std@@QEBA?AV?$basic_string@_WU?$char_traits@_W@std@@V?$allocator@_W@2@@1@V?$_String_iterator@V?$_String_val@U?$_Simple_types@_W@std@@@std@@@1@0@Z@4HA 0000000140015b16 f   MFCEditView.obj
 0001:00014b30       ?dtor$0@?0???0?$_Tgt_state_t@V?$_String_const_iterator@V?$_String_val@U?$_Simple_types@_W@std@@@std@@@std@@@std@@QEAA@AEBV01@@Z@4HA 0000000140015b30 f   MFCEditView.obj
 0001:00014b40       ?dtor$0@?0??_Do_rep0@?$_Matcher@V?$_String_const_iterator@V?$_String_val@U?$_Simple_types@_W@std@@@std@@@std@@_WV?$regex_traits@_W@2@V12@@std@@AEAA_NPEAV_Node_rep@2@_N@Z@4HA 0000000140015b40 f   MFCEditView.obj
 0001:00014b4c       ?dtor$1@?0??_Do_rep0@?$_Matcher@V?$_String_const_iterator@V?$_String_val@U?$_Simple_types@_W@std@@@std@@@std@@_WV?$regex_traits@_W@2@V12@@std@@AEAA_NPEAV_Node_rep@2@_N@Z@4HA 0000000140015b4c f   MFCEditView.obj
 0001:00014b60       ?dtor$1@?0??_Do_assert_group@?$_Parser@PEB_W_WV?$regex_traits@_W@std@@@std@@AEAAX_N@Z@4HA 0000000140015b60 f   MFCEditView.obj
 0001:00014b70       ?dtor$0@?0??_Add_equiv@?$_Builder@PEB_W_WV?$regex_traits@_W@std@@@std@@QEAAXPEB_W0_J@Z@4HA 0000000140015b70 f   MFCEditView.obj
 0001:00014b80       ?dtor$0@?0???HATL@@YA?AV?$CStringT@_WV?$StrTraitMFC_DLL@_WV?$ChTraitsCRT@_W@ATL@@@@@0@AEBV10@PEB_W@Z@4HA 0000000140015b80 f   MFCEditView.obj
 0001:00014b80       ?dtor$0@?0???HATL@@YA?AV?$CStringT@_WV?$StrTraitMFC_DLL@_WV?$ChTraitsCRT@_W@ATL@@@@@0@PEB_WAEBV10@@Z@4HA 0000000140015b80 f   MFCEditView.obj
 0001:00014bb0       ?catch$1@?0???1CWaitCursor@@QEAA@XZ@4HA 0000000140015bb0 f   MFCEditView.obj
 0001:00014bbe       __catch$??1CWaitCursor@@QEAA@XZ$0 0000000140015bbe f   MFCEditView.obj
 0001:00014c69       ?dtor$0@?0???1CWaitCursor@@QEAA@XZ@4HA 0000000140015c69 f   MFCEditView.obj
 0001:00014c77       ?filt$0@?0??__scrt_common_main_seh@@YAHXZ@4HA 0000000140015c77 f   msvcrt:exe_wwinmain.obj
 0001:00014c95       __scrt_is_nonwritable_in_current_image$filt$0 0000000140015c95 f   msvcrt:utility.obj
 0001:00014cb0       ??__FtheApp@@YAXXZ         0000000140015cb0 f   MFCEdit.obj
 0001:00014cc0       ??__F_AtlBaseModule@ATL@@YAXXZ 0000000140015cc0 f   atls:atlbase.obj
 0001:00014cd0       ??__FvtMissing@@YAXXZ      0000000140015cd0 f   comsuppw:comutil.obj
 0001:00014ce0       ??__F_Fac_tidy_reg@std@@YAXXZ 0000000140015ce0 f   msvcprt:locale0_implib.obj
 0002:00001148       ?pre_cpp_initializer@@3P6AXXZEA 0000000140017148     msvcrt:exe_wwinmain.obj
 0002:00001150       ?_AtlBaseModule$initializer$@ATL@@3P6AXXZEA 0000000140017150     atls:atlbase.obj
 0002:00001158       ?_Fac_tidy_reg$initializer$@std@@3P6AXXZEA 0000000140017158     msvcprt:locale0_implib.obj
 0002:00001160       ?_afxInitAppState$initializer$@@3P6AXXZEA 0000000140017160     mfcs140u:appmodul.obj
 0002:00001168       ?vtMissing$initializer$@@3P6AXXZEA 0000000140017168     comsuppw:comutil.obj
 0002:00001170       ?theApp$initializer$@@3P6AXXZEA 0000000140017170     MFCEdit.obj
 0002:00001188       ?pre_c_initializer@@3P6AHXZEA 0000000140017188     msvcrt:exe_wwinmain.obj
 0002:00001190       ?post_pgo_initializer@@3P6AHXZEA 0000000140017190     msvcrt:exe_wwinmain.obj
 0002:00001200       GS_ExceptionPointers       0000000140017200     msvcrt:gs_report.obj
 0002:000012c0       ?_Remove_tables_1_sse@?A0x8417fefe@@3U?$_Remove_tables@$0BAA@$07@1@B 00000001400172c0     msvcprt:vector_algorithms.obj
 0002:00001bc0       ?_Remove_tables_2_sse@?A0x8417fefe@@3U?$_Remove_tables@$0BAA@$0BA@@1@B 0000000140017bc0     msvcprt:vector_algorithms.obj
 0002:00002cc0       ?_Remove_tables_4_sse@?A0x8417fefe@@3U?$_Remove_tables@$0BA@$0BA@@1@B 0000000140018cc0     msvcprt:vector_algorithms.obj
 0002:00002dd0       ?_Remove_tables_4_avx@?A0x8417fefe@@3U?$_Remove_tables@$0BAA@$07@1@B 0000000140018dd0     msvcprt:vector_algorithms.obj
 0002:000036d0       ?_Remove_tables_8_sse@?A0x8417fefe@@3U?$_Remove_tables@$03$0BA@@1@B 00000001400196d0     msvcprt:vector_algorithms.obj
 0002:00003720       ?_Remove_tables_8_avx@?A0x8417fefe@@3U?$_Remove_tables@$0BA@$07@1@B 0000000140019720     msvcprt:vector_algorithms.obj
 0002:000037b0       ?_Tail_masks@?1??_Avx2_tail_mask_32@?A0x8417fefe@@YA?AT__m256i@@_K@Z@4QBIB 00000001400197b0     msvcprt:vector_algorithms.obj
 0002:00003ba8       ?messageMap@?1??GetThisMessageMap@CMainFrame@@KAPEBUAFX_MSGMAP@@XZ@4U3@B 0000000140019ba8     MainFrm.obj
 0002:00003bc0       ?_messageEntries@?1??GetThisMessageMap@CMainFrame@@KAPEBUAFX_MSGMAP@@XZ@4QBUAFX_MSGMAP_ENTRY@@B 0000000140019bc0     MainFrm.obj
 0002:00003ca8       ?messageMap@?1??GetThisMessageMap@CAboutDlg@@KAPEBUAFX_MSGMAP@@XZ@4U3@B 0000000140019ca8     MFCEdit.obj
 0002:00003cb8       ?_messageEntries@?1??GetThisMessageMap@CAboutDlg@@KAPEBUAFX_MSGMAP@@XZ@4QBUAFX_MSGMAP_ENTRY@@B 0000000140019cb8     MFCEdit.obj
 0002:00004408       ?messageMap@?1??GetThisMessageMap@CMFCEditApp@@KAPEBUAFX_MSGMAP@@XZ@4U3@B 000000014001a408     MFCEdit.obj
 0002:00004420       ?_messageEntries@?1??GetThisMessageMap@CMFCEditApp@@KAPEBUAFX_MSGMAP@@XZ@4QBUAFX_MSGMAP_ENTRY@@B 000000014001a420     MFCEdit.obj
 0002:000047e8       ?messageMap@?1??GetThisMessageMap@CMFCEditDoc@@KAPEBUAFX_MSGMAP@@XZ@4U3@B 000000014001a7e8     MFCEditDoc.obj
 0002:000047f8       ?_messageEntries@?1??GetThisMessageMap@CMFCEditDoc@@KAPEBUAFX_MSGMAP@@XZ@4QBUAFX_MSGMAP_ENTRY@@B 000000014001a7f8     MFCEditDoc.obj
 0002:00005568       ?_Fake_alloc@std@@3U_Fake_allocator@1@B 000000014001b568     MFCEditView.obj
 0002:00005569       ?_Fake_alloc@std@@3U_Fake_allocator@1@B 000000014001b569     pch.obj
 0002:00005570       ?_Valid_strftime_specifiers@std@@3QBDB 000000014001b570     MFCEditView.obj
 0002:00005c70       ?messageMap@?1??GetThisMessageMap@CMFCEditView@@KAPEBUAFX_MSGMAP@@XZ@4U3@B 000000014001bc70     MFCEditView.obj
 0002:00005c80       ?_messageEntries@?1??GetThisMessageMap@CMFCEditView@@KAPEBUAFX_MSGMAP@@XZ@4QBUAFX_MSGMAP_ENTRY@@B 000000014001bc80     MFCEditView.obj
 0002:00005e50       ?messageMap@?1??GetThisMessageMap@CSimpleEdit@@KAPEBUAFX_MSGMAP@@XZ@4U3@B 000000014001be50     MFCEditView.obj
 0002:00005e60       ?_messageEntries@?1??GetThisMessageMap@CSimpleEdit@@KAPEBUAFX_MSGMAP@@XZ@4QBUAFX_MSGMAP_ENTRY@@B 000000014001be60     MFCEditView.obj
 0002:00008890       $unwind$?CreateObject@CMainFrame@@SAPEAVCObject@@XZ 000000014001e890     MainFrm.obj
 0002:000088a0       $cppxdata$?CreateObject@CMainFrame@@SAPEAVCObject@@XZ 000000014001e8a0     MainFrm.obj
 0002:000088a9       $stateUnwindMap$??__EtheApp@@YAXXZ 000000014001e8a9     MFCEdit.obj
 0002:000088a9       $stateUnwindMap$?CreateObject@CMFCEditDoc@@SAPEAVCObject@@XZ 000000014001e8a9     MFCEditDoc.obj
 0002:000088a9       $stateUnwindMap$??1sentry@?$basic_ostream@DU?$char_traits@D@std@@@std@@QEAA@XZ 000000014001e8a9     MFCEditView.obj
 0002:000088a9       $stateUnwindMap$??1sentry@?$basic_ostream@_WU?$char_traits@_W@std@@@std@@QEAA@XZ 000000014001e8a9     MFCEditView.obj
 0002:000088a9       $stateUnwindMap$?CreateObject@CMFCEditView@@SAPEAVCObject@@XZ 000000014001e8a9     MFCEditView.obj
 0002:000088a9       $stateUnwindMap$?CreateObject@CMainFrame@@SAPEAVCObject@@XZ 000000014001e8a9     MainFrm.obj
 0002:000088a9       $stateUnwindMap$??_G_com_error@@UEAAPEAXI@Z 000000014001e8a9     comsuppw:comraise.obj
 0002:000088af       $ip2state$?CreateObject@CMainFrame@@SAPEAVCObject@@XZ 000000014001e8af     MainFrm.obj
 0002:000088b8       $unwind$??_GCAboutDlg@@UEAAPEAXI@Z 000000014001e8b8     MFCEdit.obj
 0002:000088b8       $unwind$??_GCBrush@@UEAAPEAXI@Z 000000014001e8b8     MFCEdit.obj
 0002:000088b8       $unwind$??_GCGdiObject@@UEAAPEAXI@Z 000000014001e8b8     MFCEdit.obj
 0002:000088b8       $unwind$??_GCMFCEditApp@@UEAAPEAXI@Z 000000014001e8b8     MFCEdit.obj
 0002:000088b8       $unwind$??_GCDocumentAdapter@CDocument@@UEAAPEAXI@Z 000000014001e8b8     MFCEditDoc.obj
 0002:000088b8       $unwind$??_GCMFCEditDoc@@UEAAPEAXI@Z 000000014001e8b8     MFCEditDoc.obj
 0002:000088b8       $unwind$??1?$_Uninitialized_backout_al@V?$allocator@V_variant_t@@@std@@@std@@QEAA@XZ 000000014001e8b8     MFCEditView.obj
 0002:000088b8       $unwind$??_G?$_Node_str@_W@std@@UEAAPEAXI@Z 000000014001e8b8     MFCEditView.obj
 0002:000088b8       $unwind$??_G?$basic_stringbuf@DU?$char_traits@D@std@@V?$allocator@D@2@@std@@UEAAPEAXI@Z 000000014001e8b8     MFCEditView.obj
 0002:000088b8       $unwind$??_G?$basic_stringbuf@_WU?$char_traits@_W@std@@V?$allocator@_W@2@@std@@UEAAPEAXI@Z 000000014001e8b8     MFCEditView.obj
 0002:000088b8       $unwind$??_G?$collate@_W@std@@MEAAPEAXI@Z 000000014001e8b8     MFCEditView.obj
 0002:000088b8       $unwind$??_GCComboBox@@UEAAPEAXI@Z 000000014001e8b8     MFCEditView.obj
 0002:000088b8       $unwind$??_GCFont@@UEAAPEAXI@Z 000000014001e8b8     MFCEditView.obj
 0002:000088b8       $unwind$??_GCMFCEditView@@UEAAPEAXI@Z 000000014001e8b8     MFCEditView.obj
 0002:000088b8       $unwind$??_GCSimpleEdit@@UEAAPEAXI@Z 000000014001e8b8     MFCEditView.obj
 0002:000088b8       $unwind$??_Gbad_alloc@std@@UEAAPEAXI@Z 000000014001e8b8     MFCEditView.obj
 0002:000088b8       $unwind$??_Gbad_array_new_length@std@@UEAAPEAXI@Z 000000014001e8b8     MFCEditView.obj
 0002:000088b8       $unwind$??_Gbad_cast@std@@UEAAPEAXI@Z 000000014001e8b8     MFCEditView.obj
 0002:000088b8       $unwind$??_Gexception@std@@UEAAPEAXI@Z 000000014001e8b8     MFCEditView.obj
 0002:000088b8       $unwind$?DoDataExchange@CMFCEditView@@MEAAXPEAVCDataExchange@@@Z 000000014001e8b8     MFCEditView.obj
 0002:000088b8       $unwind$?_Buy_raw@?$vector@IV?$allocator@I@std@@@std@@AEAAX_K@Z 000000014001e8b8     MFCEditView.obj
 0002:000088b8       $unwind$?_Buy_raw@?$vector@U_Grp_t@?$_Tgt_state_t@V?$_String_const_iterator@V?$_String_val@U?$_Simple_types@_W@std@@@std@@@std@@@std@@V?$allocator@U_Grp_t@?$_Tgt_state_t@V?$_String_const_iterator@V?$_String_val@U?$_Simple_types@_W@std@@@std@@@std@@@std@@@3@@std@@AEAAX_K@Z 000000014001e8b8     MFCEditView.obj
 0002:000088b8       $unwind$?_ClassAtom@?$_Parser@PEB_W_WV?$regex_traits@_W@std@@@std@@AEAA?AW4_Prs_ret@2@XZ 000000014001e8b8     MFCEditView.obj
 0002:000088b8       $unwind$?_New_node@?$_Builder@PEB_W_WV?$regex_traits@_W@std@@@std@@AEAAPEAV_Node_base@2@W4_Node_type@2@@Z 000000014001e8b8     MFCEditView.obj
 0002:000088b8       $unwind$??_GCMainFrame@@UEAAPEAXI@Z 000000014001e8b8     MainFrm.obj
 0002:000088b8       $unwind$??0CAtlBaseModule@ATL@@QEAA@XZ 000000014001e8b8     atls:atlbase.obj
 0002:000088b8       $unwind$?AfxInitialize@@YAHHK@Z 000000014001e8b8     mfcs140u:appmodul.obj
 0002:000088b8       $unwind$_RTC_Initialize    000000014001e8b8     msvcrt:initsect.obj
 0002:000088b8       $unwind$_RTC_Terminate     000000014001e8b8     msvcrt:initsect.obj
 0002:000088b8       $unwind$__scrt_unhandled_exception_filter 000000014001e8b8     msvcrt:utility_desktop.obj
 0002:000088c4       $unwind$?OnCreate@CMainFrame@@IEAAHPEAUtagCREATESTRUCTW@@@Z 000000014001e8c4     MainFrm.obj
 0002:000088d4       $unwind$?OnNewDocument@CMFCEditDoc@@UEAAHXZ 000000014001e8d4     MFCEditDoc.obj
 0002:000088d4       $unwind$?Release@IDocument@ATL@@UEAAJXZ 000000014001e8d4     MFCEditDoc.obj
 0002:000088d4       $unwind$??1?$basic_regex@_WV?$regex_traits@_W@std@@@std@@QEAA@XZ 000000014001e8d4     MFCEditView.obj
 0002:000088d4       $unwind$??1?$regex_traits@_W@std@@QEAA@XZ 000000014001e8d4     MFCEditView.obj
 0002:000088d4       $unwind$??1locale@std@@QEAA@XZ 000000014001e8d4     MFCEditView.obj
 0002:000088d4       $unwind$?OnKillfocusEdInput@CMFCEditView@@QEAAXXZ 000000014001e8d4     MFCEditView.obj
 0002:000088d4       $unwind$?QueryInterface@CVARIANTTool@@UEAAJAEBU_GUID@@PEAPEAX@Z 000000014001e8d4     MFCEditView.obj
 0002:000088d4       $unwind$?QueryInterface@IVARIANTApplication@@UEAAJAEBU_GUID@@PEAPEAX@Z 000000014001e8d4     MFCEditView.obj
 0002:000088d4       $unwind$?_Error@?$_Parser@PEB_W_WV?$regex_traits@_W@std@@@std@@AEAAXW4error_type@regex_constants@2@@Z 000000014001e8d4     MFCEditView.obj
 0002:000088d4       $unwind$?_Xlen@?$deque@V?$shared_ptr@Ust@?1??Value@CVARIANTTool@@IEAA?AUtagVARIANT@@U4@0@Z@@std@@V?$allocator@V?$shared_ptr@Ust@?1??Value@CVARIANTTool@@IEAA?AUtagVARIANT@@U4@0@Z@@std@@@2@@std@@CAXXZ 000000014001e8d4     MFCEditView.obj
 0002:000088d4       $unwind$?_Xlen@?$vector@_NV?$allocator@_N@std@@@std@@SAXXZ 000000014001e8d4     MFCEditView.obj
 0002:000088d4       $unwind$?_Xlen_string@std@@YAXXZ 000000014001e8d4     MFCEditView.obj
 0002:000088d4       $unwind$?_Xlength@?$vector@DV?$allocator@D@std@@@std@@CAXXZ 000000014001e8d4     MFCEditView.obj
 0002:000088d4       $unwind$?_Xlength@?$vector@HV?$allocator@H@std@@@std@@CAXXZ 000000014001e8d4     MFCEditView.obj
 0002:000088d4       $unwind$?_Xlength@?$vector@IV?$allocator@I@std@@@std@@CAXXZ 000000014001e8d4     MFCEditView.obj
 0002:000088d4       $unwind$?_Xlength@?$vector@U_Grp_t@?$_Tgt_state_t@V?$_String_const_iterator@V?$_String_val@U?$_Simple_types@_W@std@@@std@@@std@@@std@@V?$allocator@U_Grp_t@?$_Tgt_state_t@V?$_String_const_iterator@V?$_String_val@U?$_Simple_types@_W@std@@@std@@@std@@@std@@@3@@std@@CAXXZ 000000014001e8d4     MFCEditView.obj
 0002:000088d4       $unwind$?_Xlength@?$vector@U_Loop_vals_t@std@@V?$allocator@U_Loop_vals_t@std@@@2@@std@@CAXXZ 000000014001e8d4     MFCEditView.obj
 0002:000088d4       $unwind$?_Xlength@?$vector@V?$basic_string@_WU?$char_traits@_W@std@@V?$allocator@_W@2@@std@@V?$allocator@V?$basic_string@_WU?$char_traits@_W@std@@V?$allocator@_W@2@@std@@@2@@std@@CAXXZ 000000014001e8d4     MFCEditView.obj
 0002:000088d4       $unwind$?_Xlength@?$vector@V?$sub_match@V?$_String_const_iterator@V?$_String_val@U?$_Simple_types@_W@std@@@std@@@std@@@std@@V?$allocator@V?$sub_match@V?$_String_const_iterator@V?$_String_val@U?$_Simple_types@_W@std@@@std@@@std@@@std@@@2@@std@@CAXXZ 000000014001e8d4     MFCEditView.obj
 0002:000088d4       $unwind$?_Xlength@?$vector@V_variant_t@@V?$allocator@V_variant_t@@@std@@@std@@CAXXZ 000000014001e8d4     MFCEditView.obj
 0002:000088d4       $unwind$?_Xlength@?$vector@_WV?$allocator@_W@std@@@std@@CAXXZ 000000014001e8d4     MFCEditView.obj
 0002:000088d4       $unwind$?PreCreateWindow@CMainFrame@@UEAAHAEAUtagCREATESTRUCTW@@@Z 000000014001e8d4     MainFrm.obj
 0002:000088d4       $unwind$??__E_AtlBaseModule@ATL@@YAXXZ 000000014001e8d4     atls:atlbase.obj
 0002:000088d4       $unwind$??__E_afxInitAppState@@YAXXZ 000000014001e8d4     mfcs140u:appmodul.obj
 0002:000088d4       $unwind$__scrt_initialize_default_local_stdio_options 000000014001e8d4     msvcrt:default_local_stdio_options.obj
 0002:000088d4       $unwind$?post_pgo_initialization@@YAHXZ 000000014001e8d4     msvcrt:exe_wwinmain.obj
 0002:000088d4       $unwind$?pre_cpp_initialization@@YAXXZ 000000014001e8d4     msvcrt:exe_wwinmain.obj
 0002:000088d4       $unwind$wWinMainCRTStartup 000000014001e8d4     msvcrt:exe_wwinmain.obj
 0002:000088d4       $unwind$__GSHandlerCheck   000000014001e8d4     msvcrt:gshandler.obj
 0002:000088d4       $unwind$__scrt_acquire_startup_lock 000000014001e8d4     msvcrt:utility.obj
 0002:000088d4       $unwind$__scrt_initialize_crt 000000014001e8d4     msvcrt:utility.obj
 0002:000088d4       $unwind$atexit             000000014001e8d4     msvcrt:utility.obj
 0002:000088d4       $unwind$__scrt_is_managed_app 000000014001e8d4     msvcrt:utility_desktop.obj
 0002:000088dc       $unwind$??__EtheApp@@YAXXZ 000000014001e8dc     MFCEdit.obj
 0002:000088ec       $cppxdata$??__EtheApp@@YAXXZ 000000014001e8ec     MFCEdit.obj
 0002:000088f5       $ip2state$??__EtheApp@@YAXXZ 000000014001e8f5     MFCEdit.obj
 0002:000088fc       $unwind$?InitInstance@CMFCEditApp@@UEAAHXZ 000000014001e8fc     MFCEdit.obj
 0002:0000891c       $cppxdata$?InitInstance@CMFCEditApp@@UEAAHXZ 000000014001e91c     MFCEdit.obj
 0002:00008925       $stateUnwindMap$?InitInstance@CMFCEditApp@@UEAAHXZ 000000014001e925     MFCEdit.obj
 0002:00008932       $ip2state$?InitInstance@CMFCEditApp@@UEAAHXZ 000000014001e932     MFCEdit.obj
 0002:00008940       $unwind$??1CAboutDlg@@UEAA@XZ 000000014001e940     MFCEdit.obj
 0002:00008940       $unwind$?ExitInstance@CMFCEditApp@@UEAAHXZ 000000014001e940     MFCEdit.obj
 0002:00008940       $unwind$??_GIDocument@ATL@@UEAAPEAXI@Z 000000014001e940     MFCEditDoc.obj
 0002:00008940       $unwind$??0?$basic_string@_WU?$char_traits@_W@std@@V?$allocator@_W@2@@std@@QEAA@QEB_W@Z 000000014001e940     MFCEditView.obj
 0002:00008940       $unwind$??0bad_alloc@std@@QEAA@AEBV01@@Z 000000014001e940     MFCEditView.obj
 0002:00008940       $unwind$??0bad_array_new_length@std@@QEAA@AEBV01@@Z 000000014001e940     MFCEditView.obj
 0002:00008940       $unwind$??0bad_cast@std@@QEAA@AEBV01@@Z 000000014001e940     MFCEditView.obj
 0002:00008940       $unwind$??0exception@std@@QEAA@AEBV01@@Z 000000014001e940     MFCEditView.obj
 0002:00008940       $unwind$??1?$_Bt_state_t@V?$_String_const_iterator@V?$_String_val@U?$_Simple_types@_W@std@@@std@@@std@@@std@@QEAA@XZ 000000014001e940     MFCEditView.obj
 0002:00008940       $unwind$??1?$_Matcher@V?$_String_const_iterator@V?$_String_val@U?$_Simple_types@_W@std@@@std@@@std@@_WV?$regex_traits@_W@2@V12@@std@@QEAA@XZ 000000014001e940     MFCEditView.obj
 0002:00008940       $unwind$??1?$_Parser@PEB_W_WV?$regex_traits@_W@std@@@std@@QEAA@XZ 000000014001e940     MFCEditView.obj
 0002:00008940       $unwind$??1?$basic_string@DU?$char_traits@D@std@@V?$allocator@D@2@@std@@QEAA@XZ 000000014001e940     MFCEditView.obj
 0002:00008940       $unwind$??1?$basic_string@_WU?$char_traits@_W@std@@V?$allocator@_W@2@@std@@QEAA@XZ 000000014001e940     MFCEditView.obj
 0002:00008940       $unwind$??1?$basic_stringbuf@DU?$char_traits@D@std@@V?$allocator@D@2@@std@@UEAA@XZ 000000014001e940     MFCEditView.obj
 0002:00008940       $unwind$??1?$basic_stringbuf@_WU?$char_traits@_W@std@@V?$allocator@_W@2@@std@@UEAA@XZ 000000014001e940     MFCEditView.obj
 0002:00008940       $unwind$??1?$regex_token_iterator@V?$_String_const_iterator@V?$_String_val@U?$_Simple_types@_W@std@@@std@@@std@@_WV?$regex_traits@_W@2@@std@@QEAA@XZ 000000014001e940     MFCEditView.obj
 0002:00008940       $unwind$??1?$shared_ptr@Ust@?1??Value@CVARIANTTool@@IEAA?AUtagVARIANT@@U4@0@Z@@std@@QEAA@XZ 000000014001e940     MFCEditView.obj
 0002:00008940       $unwind$??1?$vector@DV?$allocator@D@std@@@std@@QEAA@XZ 000000014001e940     MFCEditView.obj
 0002:00008940       $unwind$??1?$vector@U_Loop_vals_t@std@@V?$allocator@U_Loop_vals_t@std@@@2@@std@@QEAA@XZ 000000014001e940     MFCEditView.obj
 0002:00008940       $unwind$??1?$vector@V?$basic_string@_WU?$char_traits@_W@std@@V?$allocator@_W@2@@std@@V?$allocator@V?$basic_string@_WU?$char_traits@_W@std@@V?$allocator@_W@2@@std@@@2@@std@@QEAA@XZ 000000014001e940     MFCEditView.obj
 0002:00008940       $unwind$??1?$vector@_NV?$allocator@_N@std@@@std@@QEAA@XZ 000000014001e940     MFCEditView.obj
 0002:00008940       $unwind$??1?$vector@_WV?$allocator@_W@std@@@std@@QEAA@XZ 000000014001e940     MFCEditView.obj
 0002:00008940       $unwind$??_D?$basic_stringstream@DU?$char_traits@D@std@@V?$allocator@D@2@@std@@QEAAXXZ 000000014001e940     MFCEditView.obj
 0002:00008940       $unwind$??_D?$basic_stringstream@_WU?$char_traits@_W@std@@V?$allocator@_W@2@@std@@QEAAXXZ 000000014001e940     MFCEditView.obj
 0002:00008940       $unwind$??_G?$_Ref_count_obj2@Ust@?1??Value@CVARIANTTool@@IEAA?AUtagVARIANT@@U4@0@Z@@std@@UEAAPEAXI@Z 000000014001e940     MFCEditView.obj
 0002:00008940       $unwind$??_GCVARIANTTool@@UEAAPEAXI@Z 000000014001e940     MFCEditView.obj
 0002:00008940       $unwind$??_GIVARIANTAbstract@@UEAAPEAXI@Z 000000014001e940     MFCEditView.obj
 0002:00008940       $unwind$??_GIVARIANTApplication@@UEAAPEAXI@Z 000000014001e940     MFCEditView.obj
 0002:00008940       $unwind$??_G_Node_back@std@@UEAAPEAXI@Z 000000014001e940     MFCEditView.obj
 0002:00008940       $unwind$??_G_Node_base@std@@UEAAPEAXI@Z 000000014001e940     MFCEditView.obj
 0002:00008940       $unwind$??_G_Node_capture@std@@UEAAPEAXI@Z 000000014001e940     MFCEditView.obj
 0002:00008940       $unwind$??_G_Node_end_group@std@@UEAAPEAXI@Z 000000014001e940     MFCEditView.obj
 0002:00008940       $unwind$??_G_Node_end_rep@std@@UEAAPEAXI@Z 000000014001e940     MFCEditView.obj
 0002:00008940       $unwind$??_G_Node_endif@std@@UEAAPEAXI@Z 000000014001e940     MFCEditView.obj
 0002:00008940       $unwind$??_G_Node_rep@std@@UEAAPEAXI@Z 000000014001e940     MFCEditView.obj
 0002:00008940       $unwind$??_G_Root_node@std@@UEAAPEAXI@Z 000000014001e940     MFCEditView.obj
 0002:00008940       $unwind$?OnBnClickedButton2@CMFCEditView@@QEAAXXZ 000000014001e940     MFCEditView.obj
 0002:00008940       $unwind$?Release@IVARIANTAbstract@@UEAAKXZ 000000014001e940     MFCEditView.obj
 0002:00008940       $unwind$?_Add_class@?$_Builder@PEB_W_WV?$regex_traits@_W@std@@@std@@QEAAXXZ 000000014001e940     MFCEditView.obj
 0002:00008940       $unwind$?_AtomEscape@?$_Parser@PEB_W_WV?$regex_traits@_W@std@@@std@@AEAAXXZ 000000014001e940     MFCEditView.obj
 0002:00008940       $unwind$?_CharacterEscape@?$_Parser@PEB_W_WV?$regex_traits@_W@std@@@std@@AEAA_NXZ 000000014001e940     MFCEditView.obj
 0002:00008940       $unwind$?_ClassRanges@?$_Parser@PEB_W_WV?$regex_traits@_W@std@@@std@@AEAAXXZ 000000014001e940     MFCEditView.obj
 0002:00008940       $unwind$?_Destroy@?$_Ref_count_obj2@Ust@?1??Value@CVARIANTTool@@IEAA?AUtagVARIANT@@U4@0@Z@@std@@EEAAXXZ 000000014001e940     MFCEditView.obj
 0002:00008940       $unwind$?_End_group@?$_Builder@PEB_W_WV?$regex_traits@_W@std@@@std@@QEAAXPEAV_Node_base@2@@Z 000000014001e940     MFCEditView.obj
 0002:00008940       $unwind$?_Tidy@?$vector@V?$sub_match@V?$_String_const_iterator@V?$_String_val@U?$_Simple_types@_W@std@@@std@@@std@@@std@@V?$allocator@V?$sub_match@V?$_String_const_iterator@V?$_String_val@U?$_Simple_types@_W@std@@@std@@@std@@@std@@@2@@std@@AEAAXXZ 000000014001e940     MFCEditView.obj
 0002:00008940       $unwind$?get_accChildCount@CFormView@@UEAAJPEAJ@Z 000000014001e940     MFCEditView.obj
 0002:00008940       $unwind$??1CAtlBaseModule@ATL@@QEAA@XZ 000000014001e940     atls:atlbase.obj
 0002:00008940       $unwind$??__F_Fac_tidy_reg@std@@YAXXZ 000000014001e940     msvcprt:locale0_implib.obj
 0002:00008940       $unwind$?_Facet_Register@std@@YAXPEAV_Facet_base@1@@Z 000000014001e940     msvcprt:locale0_implib.obj
 0002:00008940       $unwind$?pre_c_initialization@@YAHXZ 000000014001e940     msvcrt:exe_wwinmain.obj
 0002:00008940       $unwind$__raise_securityfailure 000000014001e940     msvcrt:gs_report.obj
 0002:00008940       $unwind$??_Gtype_info@@UEAAPEAXI@Z 000000014001e940     msvcrt:std_type_info_static.obj
 0002:00008940       $unwind$__scrt_initialize_onexit_tables 000000014001e940     msvcrt:utility.obj
 0002:00008940       $unwind$__scrt_release_startup_lock 000000014001e940     msvcrt:utility.obj
 0002:00008940       $unwind$__scrt_uninitialize_crt 000000014001e940     msvcrt:utility.obj
 0002:00008940       $unwind$_onexit            000000014001e940     msvcrt:utility.obj
 0002:00008948       $unwind$?OnAppAbout@CMFCEditApp@@QEAAXXZ 000000014001e948     MFCEdit.obj
 0002:0000895c       $cppxdata$?OnAppAbout@CMFCEditApp@@QEAAXXZ 000000014001e95c     MFCEdit.obj
 0002:00008965       $stateUnwindMap$?OnAppAbout@CMFCEditApp@@QEAAXXZ 000000014001e965     MFCEdit.obj
 0002:00008971       $ip2state$?OnAppAbout@CMFCEditApp@@QEAAXXZ 000000014001e971     MFCEdit.obj
 0002:00008978       $unwind$??1CGdiObject@@UEAA@XZ 000000014001e978     MFCEdit.obj
 0002:0000898c       $cppxdata$??1CGdiObject@@UEAA@XZ 000000014001e98c     MFCEdit.obj
 0002:00008999       $stateUnwindMap$??1CGdiObject@@UEAA@XZ 000000014001e999     MFCEdit.obj
 0002:00008999       $stateUnwindMap$??1CWaitCursor@@QEAA@XZ 000000014001e999     MFCEditView.obj
 0002:000089a1       $tryMap$??1CGdiObject@@UEAA@XZ 000000014001e9a1     MFCEdit.obj
 0002:000089a9       $handlerMap$??1CGdiObject@@UEAA@XZ 000000014001e9a9     MFCEdit.obj
 0002:000089b5       $ip2state$??1CGdiObject@@UEAA@XZ 000000014001e9b5     MFCEdit.obj
 0002:000089bc       $unwind$?catch$1@?0???1CGdiObject@@UEAA@XZ@4HA 000000014001e9bc     MFCEdit.obj
 0002:000089bc       $unwind$?catch$1@?0???1CWaitCursor@@QEAA@XZ@4HA 000000014001e9bc     MFCEditView.obj
 0002:000089d0       $cppxdata$?catch$1@?0???1CGdiObject@@UEAA@XZ@4HA 000000014001e9d0     MFCEdit.obj
 0002:000089d0       $cppxdata$?catch$1@?0???1CWaitCursor@@QEAA@XZ@4HA 000000014001e9d0     MFCEditView.obj
 0002:000089da       $stateUnwindMap$?catch$1@?0???1CGdiObject@@UEAA@XZ@4HA 000000014001e9da     MFCEdit.obj
 0002:000089da       $stateUnwindMap$?catch$1@?0???1CWaitCursor@@QEAA@XZ@4HA 000000014001e9da     MFCEditView.obj
 0002:000089e2       $ip2state$?catch$1@?0???1CGdiObject@@UEAA@XZ@4HA 000000014001e9e2     MFCEdit.obj
 0002:000089e2       $ip2state$?catch$1@?0???1CWaitCursor@@QEAA@XZ@4HA 000000014001e9e2     MFCEditView.obj
 0002:000089e8       $unwind$?CreateObject@CMFCEditDoc@@SAPEAVCObject@@XZ 000000014001e9e8     MFCEditDoc.obj
 0002:000089f8       $cppxdata$?CreateObject@CMFCEditDoc@@SAPEAVCObject@@XZ 000000014001e9f8     MFCEditDoc.obj
 0002:00008a01       $ip2state$?CreateObject@CMFCEditDoc@@SAPEAVCObject@@XZ 000000014001ea01     MFCEditDoc.obj
 0002:00008a08       $unwind$?LoadFromStream@CDocumentAdapter@CDocument@@UEAAJPEAUIStream@@K@Z 000000014001ea08     MFCEditDoc.obj
 0002:00008a08       $unwind$??_G?$basic_stringstream@DU?$char_traits@D@std@@V?$allocator@D@2@@std@@UEAAPEAXI@Z 000000014001ea08     MFCEditView.obj
 0002:00008a08       $unwind$??_G?$basic_stringstream@_WU?$char_traits@_W@std@@V?$allocator@_W@2@@std@@UEAAPEAXI@Z 000000014001ea08     MFCEditView.obj
 0002:00008a08       $unwind$?_Trans@?$_Parser@PEB_W_WV?$regex_traits@_W@std@@@std@@AEAAXXZ 000000014001ea08     MFCEditView.obj
 0002:00008a18       $unwind$?GetAdapter@CDocument@@UEAAPEAUIDocument@ATL@@XZ 000000014001ea18     MFCEditDoc.obj
 0002:00008a2c       $cppxdata$?GetAdapter@CDocument@@UEAAPEAUIDocument@ATL@@XZ 000000014001ea2c     MFCEditDoc.obj
 0002:00008a39       $stateUnwindMap$?GetAdapter@CDocument@@UEAAPEAUIDocument@ATL@@XZ 000000014001ea39     MFCEditDoc.obj
 0002:00008a3c       $tryMap$?GetAdapter@CDocument@@UEAAPEAUIDocument@ATL@@XZ 000000014001ea3c     MFCEditDoc.obj
 0002:00008a44       $handlerMap$?GetAdapter@CDocument@@UEAAPEAUIDocument@ATL@@XZ 000000014001ea44     MFCEditDoc.obj
 0002:00008a50       $ip2state$?GetAdapter@CDocument@@UEAAPEAUIDocument@ATL@@XZ 000000014001ea50     MFCEditDoc.obj
 0002:00008a58       $unwind$?catch$1@?0??GetAdapter@CDocument@@UEAAPEAUIDocument@ATL@@XZ@4HA 000000014001ea58     MFCEditDoc.obj
 0002:00008a58       $unwind$?catch$16@?0???$?6_WU?$char_traits@_W@std@@@std@@YAAEAV?$basic_ostream@_WU?$char_traits@_W@std@@@0@AEAV10@_W@Z@4HA 000000014001ea58     MFCEditView.obj
 0002:00008a58       $unwind$?catch$17@?0???$?6U?$char_traits@D@std@@@std@@YAAEAV?$basic_ostream@DU?$char_traits@D@std@@@0@AEAV10@PEBD@Z@4HA 000000014001ea58     MFCEditView.obj
 0002:00008a58       $unwind$?catch$17@?0???$?6_WU?$char_traits@_W@std@@@std@@YAAEAV?$basic_ostream@_WU?$char_traits@_W@std@@@0@AEAV10@PEB_W@Z@4HA 000000014001ea58     MFCEditView.obj
 0002:00008a58       $unwind$?catch$17@?0???$_Insert_string@_WU?$char_traits@_W@std@@_K@std@@YAAEAV?$basic_ostream@_WU?$char_traits@_W@std@@@0@AEAV10@QEB_W_K@Z@4HA 000000014001ea58     MFCEditView.obj
 0002:00008a60       $unwind$??1?$_Tidy_guard@V?$_Builder@PEB_W_WV?$regex_traits@_W@std@@@std@@@std@@QEAA@XZ 000000014001ea60     MFCEditView.obj
 0002:00008a60       $unwind$??_G_Node_assert@std@@UEAAPEAXI@Z 000000014001ea60     MFCEditView.obj
 0002:00008a60       $unwind$?_Buy_nonzero@?$vector@HV?$allocator@H@std@@@std@@AEAAX_K@Z 000000014001ea60     MFCEditView.obj
 0002:00008a68       $chain$1$??_G_Node_assert@std@@UEAAPEAXI@Z 000000014001ea68     MFCEditView.obj
 0002:00008a80       $chain$2$??_G_Node_assert@std@@UEAAPEAXI@Z 000000014001ea80     MFCEditView.obj
 0002:00008a94       $chain$3$??_G_Node_assert@std@@UEAAPEAXI@Z 000000014001ea94     MFCEditView.obj
 0002:00008aa4       $chain$4$??_G_Node_assert@std@@UEAAPEAXI@Z 000000014001eaa4     MFCEditView.obj
 0002:00008ab4       $unwind$??_G_Node_if@std@@UEAAPEAXI@Z 000000014001eab4     MFCEditView.obj
 0002:00008abc       $chain$1$??_G_Node_if@std@@UEAAPEAXI@Z 000000014001eabc     MFCEditView.obj
 0002:00008ad4       $chain$4$??_G_Node_if@std@@UEAAPEAXI@Z 000000014001ead4     MFCEditView.obj
 0002:00008af0       $chain$5$??_G_Node_if@std@@UEAAPEAXI@Z 000000014001eaf0     MFCEditView.obj
 0002:00008b00       $chain$6$??_G_Node_if@std@@UEAAPEAXI@Z 000000014001eb00     MFCEditView.obj
 0002:00008b10       $unwind$?_Calculate_loop_simplicity@std@@YAXPEAV_Node_base@1@0PEAV_Node_rep@1@@Z 000000014001eb10     MFCEditView.obj
 0002:00008b20       $chain$1$?_Calculate_loop_simplicity@std@@YAXPEAV_Node_base@1@0PEAV_Node_rep@1@@Z 000000014001eb20     MFCEditView.obj
 0002:00008b38       $chain$2$?_Calculate_loop_simplicity@std@@YAXPEAV_Node_base@1@0PEAV_Node_rep@1@@Z 000000014001eb38     MFCEditView.obj
 0002:00008b48       $unwind$??$_Get_index@$0A@@id@locale@std@@QEAA_KXZ 000000014001eb48     MFCEditView.obj
 0002:00008b48       $unwind$?OnKeyDown@CSimpleEdit@@IEAAXIII@Z 000000014001eb48     MFCEditView.obj
 0002:00008b58       $unwind$?CreateObject@CMFCEditView@@SAPEAVCObject@@XZ 000000014001eb58     MFCEditView.obj
 0002:00008b74       $cppxdata$?CreateObject@CMFCEditView@@SAPEAVCObject@@XZ 000000014001eb74     MFCEditView.obj
 0002:00008b7d       $ip2state$?CreateObject@CMFCEditView@@SAPEAVCObject@@XZ 000000014001eb7d     MFCEditView.obj
 0002:00008b88       $unwind$?PasteTemplate@@YAXAEAVCEdit@@@Z 000000014001eb88     MFCEditView.obj
 0002:00008bac       $cppxdata$?PasteTemplate@@YAXAEAVCEdit@@@Z 000000014001ebac     MFCEditView.obj
 0002:00008bb5       $stateUnwindMap$?PasteTemplate@@YAXAEAVCEdit@@@Z 000000014001ebb5     MFCEditView.obj
 0002:00008bd7       $ip2state$?PasteTemplate@@YAXAEAVCEdit@@@Z 000000014001ebd7     MFCEditView.obj
 0002:00008bec       $unwind$?dtor$0@?0???$transform_primary@PEA_W@?$_Regex_traits@_W@std@@QEBA?AV?$basic_string@_WU?$char_traits@_W@std@@V?$allocator@_W@2@@1@PEA_W0@Z@4HA 000000014001ebec     MFCEditView.obj
 0002:00008bec       $unwind$?dtor$0@?0???$transform_primary@PEB_W@?$_Regex_traits@_W@std@@QEBA?AV?$basic_string@_WU?$char_traits@_W@std@@V?$allocator@_W@2@@1@PEB_W0@Z@4HA 000000014001ebec     MFCEditView.obj
 0002:00008bec       $unwind$?dtor$0@?0???$transform_primary@V?$_String_iterator@V?$_String_val@U?$_Simple_types@_W@std@@@std@@@std@@@?$_Regex_traits@_W@std@@QEBA?AV?$basic_string@_WU?$char_traits@_W@std@@V?$allocator@_W@2@@1@V?$_String_iterator@V?$_String_val@U?$_Simple_types@_W@std@@@std@@@1@0@Z@4HA 000000014001ebec     MFCEditView.obj
 0002:00008bec       $unwind$?dtor$0@?0???HATL@@YA?AV?$CStringT@_WV?$StrTraitMFC_DLL@_WV?$ChTraitsCRT@_W@ATL@@@@@0@AEBV10@PEB_W@Z@4HA 000000014001ebec     MFCEditView.obj
 0002:00008bec       $unwind$?dtor$0@?0???HATL@@YA?AV?$CStringT@_WV?$StrTraitMFC_DLL@_WV?$ChTraitsCRT@_W@ATL@@@@@0@PEB_WAEBV10@@Z@4HA 000000014001ebec     MFCEditView.obj
 0002:00008bec       $unwind$?dtor$0@?0??do_transform@?$collate@_W@std@@MEBA?AV?$basic_string@_WU?$char_traits@_W@std@@V?$allocator@_W@2@@2@PEB_W0@Z@4HA 000000014001ebec     MFCEditView.obj
 0002:00008bec       $unwind$?dtor$10@?0??OpenTextFile@CVARIANTTool@@IEAA?AUtagVARIANT@@U2@@Z@4HA 000000014001ebec     MFCEditView.obj
 0002:00008bec       $unwind$?dtor$10@?0??Test@IVARIANTApplication@@QEAA?AUtagVARIANT@@U2@@Z@4HA 000000014001ebec     MFCEditView.obj
 0002:00008bec       $unwind$?dtor$11@?0??Value@CVARIANTTool@@IEAA?AUtagVARIANT@@U2@0@Z@4HA 000000014001ebec     MFCEditView.obj
 0002:00008bec       $unwind$?dtor$20@?0??OnBnClickedBtnRun@CMFCEditView@@QEAAXXZ@4HA 000000014001ebec     MFCEditView.obj
 0002:00008bec       $unwind$?dtor$27@?0??Value@CVARIANTTool@@IEAA?AUtagVARIANT@@U2@0@Z@4HA 000000014001ebec     MFCEditView.obj
 0002:00008bec       $unwind$?dtor$27@?0??inetGet@CVARIANTTool@@IEAA?AUtagVARIANT@@U2@@Z@4HA 000000014001ebec     MFCEditView.obj
 0002:00008bec       $unwind$?dtor$28@?0??inetGet@CVARIANTTool@@IEAA?AUtagVARIANT@@U2@@Z@4HA 000000014001ebec     MFCEditView.obj
 0002:00008bec       $unwind$?dtor$29@?0??inetGet@CVARIANTTool@@IEAA?AUtagVARIANT@@U2@@Z@4HA 000000014001ebec     MFCEditView.obj
 0002:00008bec       $unwind$?dtor$2@?0???$use_facet@V?$collate@_W@std@@@std@@YAAEBV?$collate@_W@0@AEBVlocale@0@@Z@4HA 000000014001ebec     MFCEditView.obj
 0002:00008bec       $unwind$?dtor$2@?0??Split@@YA?AV?$vector@V?$basic_string@_WU?$char_traits@_W@std@@V?$allocator@_W@2@@std@@V?$allocator@V?$basic_string@_WU?$char_traits@_W@std@@V?$allocator@_W@2@@std@@@2@@std@@V?$basic_string@_WU?$char_traits@_W@std@@V?$allocator@_W@2@@2@0@Z@4HA 000000014001ebec     MFCEditView.obj
 0002:00008bec       $unwind$?dtor$34@?0??inetGet@CVARIANTTool@@IEAA?AUtagVARIANT@@U2@@Z@4HA 000000014001ebec     MFCEditView.obj
 0002:00008bec       $unwind$?dtor$35@?0??inetGet@CVARIANTTool@@IEAA?AUtagVARIANT@@U2@@Z@4HA 000000014001ebec     MFCEditView.obj
 0002:00008bec       $unwind$?dtor$39@?0??Value@CVARIANTTool@@IEAA?AUtagVARIANT@@U2@0@Z@4HA 000000014001ebec     MFCEditView.obj
 0002:00008bec       $unwind$?dtor$3@?0???$use_facet@V?$collate@_W@std@@@std@@YAAEBV?$collate@_W@0@AEBVlocale@0@@Z@4HA 000000014001ebec     MFCEditView.obj
 0002:00008bec       $unwind$?dtor$3@?0??PasteTemplate@@YAXAEAVCEdit@@@Z@4HA 000000014001ebec     MFCEditView.obj
 0002:00008bec       $unwind$?dtor$3@?0??inetStockData_YahooFinanceUri@@YA?AV?$basic_string@_WU?$char_traits@_W@std@@V?$allocator@_W@2@@std@@V12@H@Z@4HA 000000014001ebec     MFCEditView.obj
 0002:00008bec       $unwind$?dtor$44@?0??Value@CVARIANTTool@@IEAA?AUtagVARIANT@@U2@0@Z@4HA 000000014001ebec     MFCEditView.obj
 0002:00008bec       $unwind$?dtor$4@?0???$use_facet@V?$collate@_W@std@@@std@@YAAEBV?$collate@_W@0@AEBVlocale@0@@Z@4HA 000000014001ebec     MFCEditView.obj
 0002:00008bec       $unwind$?dtor$5@?0??OpenTextFile@CVARIANTTool@@IEAA?AUtagVARIANT@@U2@@Z@4HA 000000014001ebec     MFCEditView.obj
 0002:00008bec       $unwind$?dtor$8@?0??OnBnClickedBtnRun@CMFCEditView@@QEAAXXZ@4HA 000000014001ebec     MFCEditView.obj
 0002:00008bec       $unwind$?dtor$8@?0??PasteTemplate@@YAXAEAVCEdit@@@Z@4HA 000000014001ebec     MFCEditView.obj
 0002:00008bec       $unwind$?dtor$8@?0??Split@@YA?AV?$vector@V?$basic_string@_WU?$char_traits@_W@std@@V?$allocator@_W@2@@std@@V?$allocator@V?$basic_string@_WU?$char_traits@_W@std@@V?$allocator@_W@2@@std@@@2@@std@@V?$basic_string@_WU?$char_traits@_W@std@@V?$allocator@_W@2@@2@0@Z@4HA 000000014001ebec     MFCEditView.obj
 0002:00008bec       $unwind$?dtor$8@?0??inetStockData_YahooFinanceUri@@YA?AV?$basic_string@_WU?$char_traits@_W@std@@V?$allocator@_W@2@@std@@V12@H@Z@4HA 000000014001ebec     MFCEditView.obj
 0002:00008bec       $unwind$?filt$0@?0??__scrt_common_main_seh@@YAHXZ@4HA 000000014001ebec     msvcrt:exe_wwinmain.obj
 0002:00008bf4       $unwind$?PreTranslateMessage@CMFCEditView@@MEAAHPEAUtagMSG@@@Z 000000014001ebf4     MFCEditView.obj
 0002:00008c10       $cppxdata$?PreTranslateMessage@CMFCEditView@@MEAAHPEAUtagMSG@@@Z 000000014001ec10     MFCEditView.obj
 0002:00008c19       $stateUnwindMap$?OnSetfocusEdInput@CMFCEditView@@QEAAXXZ 000000014001ec19     MFCEditView.obj
 0002:00008c19       $stateUnwindMap$?PreTranslateMessage@CMFCEditView@@MEAAHPEAUtagMSG@@@Z 000000014001ec19     MFCEditView.obj
 0002:00008c20       $ip2state$?PreTranslateMessage@CMFCEditView@@MEAAHPEAUtagMSG@@@Z 000000014001ec20     MFCEditView.obj
 0002:00008c30       $unwind$?OnInitialUpdate@CMFCEditView@@MEAAXXZ 000000014001ec30     MFCEditView.obj
 0002:00008c58       $cppxdata$?OnInitialUpdate@CMFCEditView@@MEAAXXZ 000000014001ec58     MFCEditView.obj
 0002:00008c61       $stateUnwindMap$?OnDestroy@CMFCEditView@@QEAAXXZ 000000014001ec61     MFCEditView.obj
 0002:00008c61       $stateUnwindMap$?OnInitialUpdate@CMFCEditView@@MEAAXXZ 000000014001ec61     MFCEditView.obj
 0002:00008c6e       $ip2state$?OnInitialUpdate@CMFCEditView@@MEAAXXZ 000000014001ec6e     MFCEditView.obj
 0002:00008c7c       $unwind$?SetFont@CMFCEditView@@QEAAXH@Z 000000014001ec7c     MFCEditView.obj
 0002:00008c9c       $cppxdata$?SetFont@CMFCEditView@@QEAAXH@Z 000000014001ec9c     MFCEditView.obj
 0002:00008ca5       $stateUnwindMap$?SetFont@CMFCEditView@@QEAAXH@Z 000000014001eca5     MFCEditView.obj
 0002:00008cac       $ip2state$?SetFont@CMFCEditView@@QEAAXH@Z 000000014001ecac     MFCEditView.obj
 0002:00008cb8       $unwind$?inetGet@CVARIANTTool@@IEAA?AUtagVARIANT@@U2@@Z 000000014001ecb8     MFCEditView.obj
 0002:00008ce8       $cppxdata$?inetGet@CVARIANTTool@@IEAA?AUtagVARIANT@@U2@@Z 000000014001ece8     MFCEditView.obj
 0002:00008cf1       $stateUnwindMap$?inetGet@CVARIANTTool@@IEAA?AUtagVARIANT@@U2@@Z 000000014001ecf1     MFCEditView.obj
 0002:00008d92       $ip2state$?inetGet@CVARIANTTool@@IEAA?AUtagVARIANT@@U2@@Z 000000014001ed92     MFCEditView.obj
 0002:00008ddc       $unwind$?Value@CVARIANTTool@@IEAA?AUtagVARIANT@@U2@0@Z 000000014001eddc     MFCEditView.obj
 0002:00008e04       $cppxdata$?Value@CVARIANTTool@@IEAA?AUtagVARIANT@@U2@0@Z 000000014001ee04     MFCEditView.obj
 0002:00008e0d       $stateUnwindMap$?Value@CVARIANTTool@@IEAA?AUtagVARIANT@@U2@0@Z 000000014001ee0d     MFCEditView.obj
 0002:00008e56       $ip2state$?Value@CVARIANTTool@@IEAA?AUtagVARIANT@@U2@0@Z 000000014001ee56     MFCEditView.obj
 0002:00008e8c       $unwind$?OpenTextFile@CVARIANTTool@@IEAA?AUtagVARIANT@@U2@@Z 000000014001ee8c     MFCEditView.obj
 0002:00008eb4       $cppxdata$?OpenTextFile@CVARIANTTool@@IEAA?AUtagVARIANT@@U2@@Z 000000014001eeb4     MFCEditView.obj
 0002:00008ebd       $stateUnwindMap$?OpenTextFile@CVARIANTTool@@IEAA?AUtagVARIANT@@U2@@Z 000000014001eebd     MFCEditView.obj
 0002:00008ee7       $ip2state$?OpenTextFile@CVARIANTTool@@IEAA?AUtagVARIANT@@U2@@Z 000000014001eee7     MFCEditView.obj
 0002:00008f00       $unwind$?Invoke@CVARIANTTool@@UEAA?AUtagVARIANT@@PEB_WPEAU2@H@Z 000000014001ef00     MFCEditView.obj
 0002:00008f28       $cppxdata$?Invoke@CVARIANTTool@@UEAA?AUtagVARIANT@@PEB_WPEAU2@H@Z 000000014001ef28     MFCEditView.obj
 0002:00008f31       $stateUnwindMap$?Invoke@CVARIANTTool@@UEAA?AUtagVARIANT@@PEB_WPEAU2@H@Z 000000014001ef31     MFCEditView.obj
 0002:00008f31       $stateUnwindMap$?Invoke@IVARIANTApplication@@UEAA?AUtagVARIANT@@PEB_WPEAU2@H@Z 000000014001ef31     MFCEditView.obj
 0002:00008f38       $ip2state$?Invoke@CVARIANTTool@@UEAA?AUtagVARIANT@@PEB_WPEAU2@H@Z 000000014001ef38     MFCEditView.obj
 0002:00008f44       $unwind$??1?$CComPtr@UIXMLHTTPRequest@@@ATL@@QEAA@XZ 000000014001ef44     MFCEditView.obj
 0002:00008f54       $cppxdata$??1?$CComPtr@UIXMLHTTPRequest@@@ATL@@QEAA@XZ 000000014001ef54     MFCEditView.obj
 0002:00008f59       $ip2state$??1?$CComPtr@UIXMLHTTPRequest@@@ATL@@QEAA@XZ 000000014001ef59     MFCEditView.obj
 0002:00008f5c       $unwind$?Test@IVARIANTApplication@@QEAA?AUtagVARIANT@@U2@@Z 000000014001ef5c     MFCEditView.obj
 0002:00008f80       $cppxdata$?Test@IVARIANTApplication@@QEAA?AUtagVARIANT@@U2@@Z 000000014001ef80     MFCEditView.obj
 0002:00008f89       $stateUnwindMap$?Test@IVARIANTApplication@@QEAA?AUtagVARIANT@@U2@@Z 000000014001ef89     MFCEditView.obj
 0002:00008f9c       $ip2state$?Test@IVARIANTApplication@@QEAA?AUtagVARIANT@@U2@@Z 000000014001ef9c     MFCEditView.obj
 0002:00008fb0       $unwind$?Invoke@IVARIANTApplication@@UEAA?AUtagVARIANT@@PEB_WPEAU2@H@Z 000000014001efb0     MFCEditView.obj
 0002:00008fd4       $cppxdata$?Invoke@IVARIANTApplication@@UEAA?AUtagVARIANT@@PEB_WPEAU2@H@Z 000000014001efd4     MFCEditView.obj
 0002:00008fdd       $ip2state$?Invoke@IVARIANTApplication@@UEAA?AUtagVARIANT@@PEB_WPEAU2@H@Z 000000014001efdd     MFCEditView.obj
 0002:00008fe8       $unwind$?OnBnClickedBtnRun@CMFCEditView@@QEAAXXZ 000000014001efe8     MFCEditView.obj
 0002:0000900c       $cppxdata$?OnBnClickedBtnRun@CMFCEditView@@QEAAXXZ 000000014001f00c     MFCEditView.obj
 0002:00009015       $stateUnwindMap$?OnBnClickedBtnRun@CMFCEditView@@QEAAXXZ 000000014001f015     MFCEditView.obj
 0002:0000904e       $ip2state$?OnBnClickedBtnRun@CMFCEditView@@QEAAXXZ 000000014001f04e     MFCEditView.obj
 0002:00009074       $unwind$?OnBnClickedBtnSave@CMFCEditView@@QEAAXXZ 000000014001f074     MFCEditView.obj
 0002:00009088       $cppxdata$?OnBnClickedBtnSave@CMFCEditView@@QEAAXXZ 000000014001f088     MFCEditView.obj
 0002:00009091       $stateUnwindMap$?OnBnClickedBtnSave@CMFCEditView@@QEAAXXZ 000000014001f091     MFCEditView.obj
 0002:000090a4       $ip2state$?OnBnClickedBtnSave@CMFCEditView@@QEAAXXZ 000000014001f0a4     MFCEditView.obj
 0002:000090b4       $unwind$?OnSelchangeCombo1@CMFCEditView@@QEAAXXZ 000000014001f0b4     MFCEditView.obj
 0002:000090dc       $cppxdata$?OnSelchangeCombo1@CMFCEditView@@QEAAXXZ 000000014001f0dc     MFCEditView.obj
 0002:000090e5       $stateUnwindMap$?OnSelchangeCombo1@CMFCEditView@@QEAAXXZ 000000014001f0e5     MFCEditView.obj
 0002:000090fe       $ip2state$?OnSelchangeCombo1@CMFCEditView@@QEAAXXZ 000000014001f0fe     MFCEditView.obj
 0002:00009114       $unwind$?OnBnClickedBtnClear@CMFCEditView@@QEAAXXZ 000000014001f114     MFCEditView.obj
 0002:00009128       $unwind$?OnDestroy@CMFCEditView@@QEAAXXZ 000000014001f128     MFCEditView.obj
 0002:0000913c       $cppxdata$?OnDestroy@CMFCEditView@@QEAAXXZ 000000014001f13c     MFCEditView.obj
 0002:00009145       $ip2state$?OnDestroy@CMFCEditView@@QEAAXXZ 000000014001f145     MFCEditView.obj
 0002:00009154       $unwind$?OnSelchangeCmbFont@CMFCEditView@@QEAAXXZ 000000014001f154     MFCEditView.obj
 0002:00009178       $cppxdata$?OnSelchangeCmbFont@CMFCEditView@@QEAAXXZ 000000014001f178     MFCEditView.obj
 0002:00009181       $stateUnwindMap$?OnSelchangeCmbFont@CMFCEditView@@QEAAXXZ 000000014001f181     MFCEditView.obj
 0002:0000918e       $ip2state$?OnSelchangeCmbFont@CMFCEditView@@QEAAXXZ 000000014001f18e     MFCEditView.obj
 0002:00009198       $unwind$?OnSetfocusEdInput@CMFCEditView@@QEAAXXZ 000000014001f198     MFCEditView.obj
 0002:000091b0       $cppxdata$?OnSetfocusEdInput@CMFCEditView@@QEAAXXZ 000000014001f1b0     MFCEditView.obj
 0002:000091b9       $ip2state$?OnSetfocusEdInput@CMFCEditView@@QEAAXXZ 000000014001f1b9     MFCEditView.obj
 0002:000091c0       $unwind$?WriteUtf8File@@YA_NAEBV?$CStringT@_WV?$StrTraitMFC_DLL@_WV?$ChTraitsCRT@_W@ATL@@@@@ATL@@0@Z 000000014001f1c0     MFCEditView.obj
 0002:000091e4       $cppxdata$?WriteUtf8File@@YA_NAEBV?$CStringT@_WV?$StrTraitMFC_DLL@_WV?$ChTraitsCRT@_W@ATL@@@@@ATL@@0@Z 000000014001f1e4     MFCEditView.obj
 0002:000091ed       $stateUnwindMap$?WriteUtf8File@@YA_NAEBV?$CStringT@_WV?$StrTraitMFC_DLL@_WV?$ChTraitsCRT@_W@ATL@@@@@ATL@@0@Z 000000014001f1ed     MFCEditView.obj
 0002:000091f4       $ip2state$?WriteUtf8File@@YA_NAEBV?$CStringT@_WV?$StrTraitMFC_DLL@_WV?$ChTraitsCRT@_W@ATL@@@@@ATL@@0@Z 000000014001f1f4     MFCEditView.obj
 0002:00009200       $unwind$?Split@@YA?AV?$vector@V?$basic_string@_WU?$char_traits@_W@std@@V?$allocator@_W@2@@std@@V?$allocator@V?$basic_string@_WU?$char_traits@_W@std@@V?$allocator@_W@2@@std@@@2@@std@@V?$basic_string@_WU?$char_traits@_W@std@@V?$allocator@_W@2@@2@0@Z 000000014001f200     MFCEditView.obj
 0002:00009224       $cppxdata$?Split@@YA?AV?$vector@V?$basic_string@_WU?$char_traits@_W@std@@V?$allocator@_W@2@@std@@V?$allocator@V?$basic_string@_WU?$char_traits@_W@std@@V?$allocator@_W@2@@std@@@2@@std@@V?$basic_string@_WU?$char_traits@_W@std@@V?$allocator@_W@2@@2@0@Z 000000014001f224     MFCEditView.obj
 0002:0000922d       $stateUnwindMap$?Split@@YA?AV?$vector@V?$basic_string@_WU?$char_traits@_W@std@@V?$allocator@_W@2@@std@@V?$allocator@V?$basic_string@_WU?$char_traits@_W@std@@V?$allocator@_W@2@@std@@@2@@std@@V?$basic_string@_WU?$char_traits@_W@std@@V?$allocator@_W@2@@2@0@Z 000000014001f22d     MFCEditView.obj
 0002:00009261       $ip2state$?Split@@YA?AV?$vector@V?$basic_string@_WU?$char_traits@_W@std@@V?$allocator@_W@2@@std@@V?$allocator@V?$basic_string@_WU?$char_traits@_W@std@@V?$allocator@_W@2@@std@@@2@@std@@V?$basic_string@_WU?$char_traits@_W@std@@V?$allocator@_W@2@@2@0@Z 000000014001f261     MFCEditView.obj
 0002:00009274       $unwind$?getUnixTime@@YA_JH@Z 000000014001f274     MFCEditView.obj
 0002:00009284       $unwind$?inetStockData_YahooFinanceUri@@YA?AV?$basic_string@_WU?$char_traits@_W@std@@V?$allocator@_W@2@@std@@V12@H@Z 000000014001f284     MFCEditView.obj
 0002:000092ac       $cppxdata$?inetStockData_YahooFinanceUri@@YA?AV?$basic_string@_WU?$char_traits@_W@std@@V?$allocator@_W@2@@std@@V12@H@Z 000000014001f2ac     MFCEditView.obj
 0002:000092b5       $stateUnwindMap$?inetStockData_YahooFinanceUri@@YA?AV?$basic_string@_WU?$char_traits@_W@std@@V?$allocator@_W@2@@std@@V12@H@Z 000000014001f2b5     MFCEditView.obj
 0002:000092d1       $ip2state$?inetStockData_YahooFinanceUri@@YA?AV?$basic_string@_WU?$char_traits@_W@std@@V?$allocator@_W@2@@std@@V12@H@Z 000000014001f2d1     MFCEditView.obj
 0002:000092e4       $unwind$??0?$regex_token_iterator@V?$_String_const_iterator@V?$_String_val@U?$_Simple_types@_W@std@@@std@@@std@@_WV?$regex_traits@_W@2@@std@@QEAA@V?$_String_const_iterator@V?$_String_val@U?$_Simple_types@_W@std@@@std@@@1@0AEBV?$basic_regex@_WV?$regex_traits@_W@std@@@1@HW4match_flag_type@regex_constants@1@@Z 000000014001f2e4     MFCEditView.obj
 0002:00009308       $cppxdata$??0?$regex_token_iterator@V?$_String_const_iterator@V?$_String_val@U?$_Simple_types@_W@std@@@std@@@std@@_WV?$regex_traits@_W@2@@std@@QEAA@V?$_String_const_iterator@V?$_String_val@U?$_Simple_types@_W@std@@@std@@@1@0AEBV?$basic_regex@_WV?$regex_traits@_W@std@@@1@HW4match_flag_type@regex_constants@1@@Z 000000014001f308     MFCEditView.obj
 0002:00009311       $stateUnwindMap$??0?$regex_token_iterator@V?$_String_const_iterator@V?$_String_val@U?$_Simple_types@_W@std@@@std@@@std@@_WV?$regex_traits@_W@2@@std@@QEAA@V?$_String_const_iterator@V?$_String_val@U?$_Simple_types@_W@std@@@std@@@1@0AEBV?$basic_regex@_WV?$regex_traits@_W@std@@@1@HW4match_flag_type@regex_constants@1@@Z 000000014001f311     MFCEditView.obj
 0002:0000931d       $ip2state$??0?$regex_token_iterator@V?$_String_const_iterator@V?$_String_val@U?$_Simple_types@_W@std@@@std@@@std@@_WV?$regex_traits@_W@2@@std@@QEAA@V?$_String_const_iterator@V?$_String_val@U?$_Simple_types@_W@std@@@std@@@1@0AEBV?$basic_regex@_WV?$regex_traits@_W@std@@@1@HW4match_flag_type@regex_constants@1@@Z 000000014001f31d     MFCEditView.obj
 0002:00009324       $chain$1$??1?$basic_regex@_WV?$regex_traits@_W@std@@@std@@QEAA@XZ 000000014001f324     MFCEditView.obj
 0002:0000933c       $chain$2$??1?$basic_regex@_WV?$regex_traits@_W@std@@@std@@QEAA@XZ 000000014001f33c     MFCEditView.obj
 0002:00009350       $chain$3$??1?$basic_regex@_WV?$regex_traits@_W@std@@@std@@QEAA@XZ 000000014001f350     MFCEditView.obj
 0002:00009360       $chain$4$??1?$basic_regex@_WV?$regex_traits@_W@std@@@std@@QEAA@XZ 000000014001f360     MFCEditView.obj
 0002:00009370       $unwind$??1?$vector@V_variant_t@@V?$allocator@V_variant_t@@@std@@@std@@QEAA@XZ 000000014001f370     MFCEditView.obj
 0002:0000937c       $chain$0$??1?$vector@V_variant_t@@V?$allocator@V_variant_t@@@std@@@std@@QEAA@XZ 000000014001f37c     MFCEditView.obj
 0002:00009390       $chain$1$??1?$vector@V_variant_t@@V?$allocator@V_variant_t@@@std@@@std@@QEAA@XZ 000000014001f390     MFCEditView.obj
 0002:000093a0       $unwind$?seekpos@?$basic_stringbuf@DU?$char_traits@D@std@@V?$allocator@D@2@@std@@MEAA?AV?$fpos@U_Mbstatet@@@2@V32@H@Z 000000014001f3a0     MFCEditView.obj
 0002:000093b4       $unwind$?seekoff@?$basic_stringbuf@DU?$char_traits@D@std@@V?$allocator@D@2@@std@@MEAA?AV?$fpos@U_Mbstatet@@@2@_JHH@Z 000000014001f3b4     MFCEditView.obj
 0002:000093c8       $unwind$?underflow@?$basic_stringbuf@DU?$char_traits@D@std@@V?$allocator@D@2@@std@@MEAAHXZ 000000014001f3c8     MFCEditView.obj
 0002:000093c8       $unwind$?underflow@?$basic_stringbuf@_WU?$char_traits@_W@std@@V?$allocator@_W@2@@std@@MEAAGXZ 000000014001f3c8     MFCEditView.obj
 0002:000093d0       $unwind$?overflow@?$basic_stringbuf@DU?$char_traits@D@std@@V?$allocator@D@2@@std@@MEAAHH@Z 000000014001f3d0     MFCEditView.obj
 0002:000093e8       $unwind$??1?$deque@V?$shared_ptr@Ust@?1??Value@CVARIANTTool@@IEAA?AUtagVARIANT@@U4@0@Z@@std@@V?$allocator@V?$shared_ptr@Ust@?1??Value@CVARIANTTool@@IEAA?AUtagVARIANT@@U4@0@Z@@std@@@2@@std@@QEAA@XZ 000000014001f3e8     MFCEditView.obj
 0002:000093f8       $chain$0$??1?$shared_ptr@Ust@?1??Value@CVARIANTTool@@IEAA?AUtagVARIANT@@U4@0@Z@@std@@QEAA@XZ 000000014001f3f8     MFCEditView.obj
 0002:0000940c       $chain$1$??1?$shared_ptr@Ust@?1??Value@CVARIANTTool@@IEAA?AUtagVARIANT@@U4@0@Z@@std@@QEAA@XZ 000000014001f40c     MFCEditView.obj
 0002:0000941c       $unwind$?seekpos@?$basic_stringbuf@_WU?$char_traits@_W@std@@V?$allocator@_W@2@@std@@MEAA?AV?$fpos@U_Mbstatet@@@2@V32@H@Z 000000014001f41c     MFCEditView.obj
 0002:0000942c       $chain$2$?seekpos@?$basic_stringbuf@_WU?$char_traits@_W@std@@V?$allocator@_W@2@@std@@MEAA?AV?$fpos@U_Mbstatet@@@2@V32@H@Z 000000014001f42c     MFCEditView.obj
 0002:00009440       $chain$3$?seekpos@?$basic_stringbuf@_WU?$char_traits@_W@std@@V?$allocator@_W@2@@std@@MEAA?AV?$fpos@U_Mbstatet@@@2@V32@H@Z 000000014001f440     MFCEditView.obj
 0002:00009450       $unwind$?seekoff@?$basic_stringbuf@_WU?$char_traits@_W@std@@V?$allocator@_W@2@@std@@MEAA?AV?$fpos@U_Mbstatet@@@2@_JHH@Z 000000014001f450     MFCEditView.obj
 0002:00009464       $unwind$?overflow@?$basic_stringbuf@_WU?$char_traits@_W@std@@V?$allocator@_W@2@@std@@MEAAGG@Z 000000014001f464     MFCEditView.obj
 0002:0000947c       $unwind$?do_transform@?$collate@_W@std@@MEBA?AV?$basic_string@_WU?$char_traits@_W@std@@V?$allocator@_W@2@@2@PEB_W0@Z 000000014001f47c     MFCEditView.obj
 0002:00009498       $cppxdata$?do_transform@?$collate@_W@std@@MEBA?AV?$basic_string@_WU?$char_traits@_W@std@@V?$allocator@_W@2@@2@PEB_W0@Z 000000014001f498     MFCEditView.obj
 0002:000094a1       $stateUnwindMap$?do_transform@?$collate@_W@std@@MEBA?AV?$basic_string@_WU?$char_traits@_W@std@@V?$allocator@_W@2@@2@PEB_W0@Z 000000014001f4a1     MFCEditView.obj
 0002:000094a7       $ip2state$?do_transform@?$collate@_W@std@@MEBA?AV?$basic_string@_WU?$char_traits@_W@std@@V?$allocator@_W@2@@2@PEB_W0@Z 000000014001f4a7     MFCEditView.obj
 0002:000094ac       $unwind$?do_compare@?$collate@_W@std@@MEBAHPEB_W000@Z 000000014001f4ac     MFCEditView.obj
 0002:000094b4       $unwind$??0?$basic_string@_WU?$char_traits@_W@std@@V?$allocator@_W@2@@std@@QEAA@AEBV01@@Z 000000014001f4b4     MFCEditView.obj
 0002:000094c4       $unwind$??1sentry@?$basic_ostream@DU?$char_traits@D@std@@@std@@QEAA@XZ 000000014001f4c4     MFCEditView.obj
 0002:000094c4       $unwind$??1sentry@?$basic_ostream@_WU?$char_traits@_W@std@@@std@@QEAA@XZ 000000014001f4c4     MFCEditView.obj
 0002:000094d4       $cppxdata$??1sentry@?$basic_ostream@DU?$char_traits@D@std@@@std@@QEAA@XZ 000000014001f4d4     MFCEditView.obj
 0002:000094d4       $cppxdata$??1sentry@?$basic_ostream@_WU?$char_traits@_W@std@@@std@@QEAA@XZ 000000014001f4d4     MFCEditView.obj
 0002:000094dd       $ip2state$??1sentry@?$basic_ostream@DU?$char_traits@D@std@@@std@@QEAA@XZ 000000014001f4dd     MFCEditView.obj
 0002:000094dd       $ip2state$??1sentry@?$basic_ostream@_WU?$char_traits@_W@std@@@std@@QEAA@XZ 000000014001f4dd     MFCEditView.obj
 0002:000094e0       $unwind$??E?$regex_token_iterator@V?$_String_const_iterator@V?$_String_val@U?$_Simple_types@_W@std@@@std@@@std@@_WV?$regex_traits@_W@2@@std@@QEAAAEAV01@XZ 000000014001f4e0     MFCEditView.obj
 0002:00009504       $cppxdata$??E?$regex_token_iterator@V?$_String_const_iterator@V?$_String_val@U?$_Simple_types@_W@std@@@std@@@std@@_WV?$regex_traits@_W@2@@std@@QEAAAEAV01@XZ 000000014001f504     MFCEditView.obj
 0002:0000950d       $stateUnwindMap$??E?$regex_token_iterator@V?$_String_const_iterator@V?$_String_val@U?$_Simple_types@_W@std@@@std@@@std@@_WV?$regex_traits@_W@2@@std@@QEAAAEAV01@XZ 000000014001f50d     MFCEditView.obj
 0002:00009514       $ip2state$??E?$regex_token_iterator@V?$_String_const_iterator@V?$_String_val@U?$_Simple_types@_W@std@@@std@@@std@@_WV?$regex_traits@_W@2@@std@@QEAAAEAV01@XZ 000000014001f514     MFCEditView.obj
 0002:00009520       $unwind$??8?$regex_token_iterator@V?$_String_const_iterator@V?$_String_val@U?$_Simple_types@_W@std@@@std@@@std@@_WV?$regex_traits@_W@2@@std@@QEBA_NAEBV01@@Z 000000014001f520     MFCEditView.obj
 0002:0000952c       $unwind$??0?$regex_token_iterator@V?$_String_const_iterator@V?$_String_val@U?$_Simple_types@_W@std@@@std@@@std@@_WV?$regex_traits@_W@2@@std@@QEAA@AEBV01@@Z 000000014001f52c     MFCEditView.obj
 0002:0000954c       $cppxdata$??0?$regex_token_iterator@V?$_String_const_iterator@V?$_String_val@U?$_Simple_types@_W@std@@@std@@@std@@_WV?$regex_traits@_W@2@@std@@QEAA@AEBV01@@Z 000000014001f54c     MFCEditView.obj
 0002:00009555       $stateUnwindMap$??0?$regex_token_iterator@V?$_String_const_iterator@V?$_String_val@U?$_Simple_types@_W@std@@@std@@@std@@_WV?$regex_traits@_W@2@@std@@QEAA@AEBV01@@Z 000000014001f555     MFCEditView.obj
 0002:0000955c       $ip2state$??0?$regex_token_iterator@V?$_String_const_iterator@V?$_String_val@U?$_Simple_types@_W@std@@@std@@@std@@_WV?$regex_traits@_W@2@@std@@QEAA@AEBV01@@Z 000000014001f55c     MFCEditView.obj
 0002:00009564       $unwind$?_Tidy@?$basic_regex@_WV?$regex_traits@_W@std@@@std@@AEAAXXZ 000000014001f564     MFCEditView.obj
 0002:00009570       $chain$0$?_Tidy@?$basic_regex@_WV?$regex_traits@_W@std@@@std@@AEAAXXZ 000000014001f570     MFCEditView.obj
 0002:00009584       $chain$1$?_Tidy@?$basic_regex@_WV?$regex_traits@_W@std@@@std@@AEAAXXZ 000000014001f584     MFCEditView.obj
 0002:00009594       $unwind$??0?$regex_iterator@V?$_String_const_iterator@V?$_String_val@U?$_Simple_types@_W@std@@@std@@@std@@_WV?$regex_traits@_W@2@@std@@QEAA@AEBV01@@Z 000000014001f594     MFCEditView.obj
 0002:000095a4       $chain$0$??0?$regex_iterator@V?$_String_const_iterator@V?$_String_val@U?$_Simple_types@_W@std@@@std@@@std@@_WV?$regex_traits@_W@2@@std@@QEAA@AEBV01@@Z 000000014001f5a4     MFCEditView.obj
 0002:000095b8       $chain$1$??0?$regex_iterator@V?$_String_const_iterator@V?$_String_val@U?$_Simple_types@_W@std@@@std@@@std@@_WV?$regex_traits@_W@2@@std@@QEAA@AEBV01@@Z 000000014001f5b8     MFCEditView.obj
 0002:000095c8       $unwind$??1_Sentry_base@?$basic_ostream@DU?$char_traits@D@std@@@std@@QEAA@XZ 000000014001f5c8     MFCEditView.obj
 0002:000095c8       $unwind$??1_Sentry_base@?$basic_ostream@_WU?$char_traits@_W@std@@@std@@QEAA@XZ 000000014001f5c8     MFCEditView.obj
 0002:000095d8       $cppxdata$??1_Sentry_base@?$basic_ostream@DU?$char_traits@D@std@@@std@@QEAA@XZ 000000014001f5d8     MFCEditView.obj
 0002:000095d8       $cppxdata$??1_Sentry_base@?$basic_ostream@_WU?$char_traits@_W@std@@@std@@QEAA@XZ 000000014001f5d8     MFCEditView.obj
 0002:000095dd       $ip2state$??1_Sentry_base@?$basic_ostream@DU?$char_traits@D@std@@@std@@QEAA@XZ 000000014001f5dd     MFCEditView.obj
 0002:000095dd       $ip2state$??1_Sentry_base@?$basic_ostream@_WU?$char_traits@_W@std@@@std@@QEAA@XZ 000000014001f5dd     MFCEditView.obj
 0002:000095e0       $unwind$?assign@?$basic_string@DU?$char_traits@D@std@@V?$allocator@D@2@@std@@QEAAAEAV12@QEBD_K@Z 000000014001f5e0     MFCEditView.obj
 0002:000095f0       $chain$0$?assign@?$basic_string@DU?$char_traits@D@std@@V?$allocator@D@2@@std@@QEAAAEAV12@QEBD_K@Z 000000014001f5f0     MFCEditView.obj
 0002:00009604       $chain$2$?assign@?$basic_string@DU?$char_traits@D@std@@V?$allocator@D@2@@std@@QEAAAEAV12@QEBD_K@Z 000000014001f604     MFCEditView.obj
 0002:00009604       $chain$4$?assign@?$basic_string@DU?$char_traits@D@std@@V?$allocator@D@2@@std@@QEAAAEAV12@QEBD_K@Z 000000014001f604     MFCEditView.obj
 0002:00009618       $chain$3$?assign@?$basic_string@DU?$char_traits@D@std@@V?$allocator@D@2@@std@@QEAAAEAV12@QEBD_K@Z 000000014001f618     MFCEditView.obj
 0002:00009628       $unwind$??$?6_WU?$char_traits@_W@std@@@std@@YAAEAV?$basic_ostream@_WU?$char_traits@_W@std@@@0@AEAV10@PEB_W@Z 000000014001f628     MFCEditView.obj
 0002:00009648       $cppxdata$??$?6_WU?$char_traits@_W@std@@@std@@YAAEAV?$basic_ostream@_WU?$char_traits@_W@std@@@0@AEAV10@PEB_W@Z 000000014001f648     MFCEditView.obj
 0002:00009655       $stateUnwindMap$??$?6_WU?$char_traits@_W@std@@@std@@YAAEAV?$basic_ostream@_WU?$char_traits@_W@std@@@0@AEAV10@PEB_W@Z 000000014001f655     MFCEditView.obj
 0002:00009655       $stateUnwindMap$??$?6_WU?$char_traits@_W@std@@@std@@YAAEAV?$basic_ostream@_WU?$char_traits@_W@std@@@0@AEAV10@_W@Z 000000014001f655     MFCEditView.obj
 0002:00009655       $stateUnwindMap$??$_Insert_string@_WU?$char_traits@_W@std@@_K@std@@YAAEAV?$basic_ostream@_WU?$char_traits@_W@std@@@0@AEAV10@QEB_W_K@Z 000000014001f655     MFCEditView.obj
 0002:00009669       $tryMap$??$?6_WU?$char_traits@_W@std@@@std@@YAAEAV?$basic_ostream@_WU?$char_traits@_W@std@@@0@AEAV10@PEB_W@Z 000000014001f669     MFCEditView.obj
 0002:00009671       $handlerMap$??$?6_WU?$char_traits@_W@std@@@std@@YAAEAV?$basic_ostream@_WU?$char_traits@_W@std@@@0@AEAV10@PEB_W@Z 000000014001f671     MFCEditView.obj
 0002:0000967a       $ip2state$??$?6_WU?$char_traits@_W@std@@@std@@YAAEAV?$basic_ostream@_WU?$char_traits@_W@std@@@0@AEAV10@PEB_W@Z 000000014001f67a     MFCEditView.obj
 0002:00009688       $unwind$??$?6_WU?$char_traits@_W@std@@@std@@YAAEAV?$basic_ostream@_WU?$char_traits@_W@std@@@0@AEAV10@_W@Z 000000014001f688     MFCEditView.obj
 0002:000096a4       $cppxdata$??$?6_WU?$char_traits@_W@std@@@std@@YAAEAV?$basic_ostream@_WU?$char_traits@_W@std@@@0@AEAV10@_W@Z 000000014001f6a4     MFCEditView.obj
 0002:000096b1       $tryMap$??$?6_WU?$char_traits@_W@std@@@std@@YAAEAV?$basic_ostream@_WU?$char_traits@_W@std@@@0@AEAV10@_W@Z 000000014001f6b1     MFCEditView.obj
 0002:000096b9       $handlerMap$??$?6_WU?$char_traits@_W@std@@@std@@YAAEAV?$basic_ostream@_WU?$char_traits@_W@std@@@0@AEAV10@_W@Z 000000014001f6b9     MFCEditView.obj
 0002:000096c2       $ip2state$??$?6_WU?$char_traits@_W@std@@@std@@YAAEAV?$basic_ostream@_WU?$char_traits@_W@std@@@0@AEAV10@_W@Z 000000014001f6c2     MFCEditView.obj
 0002:000096d0       $unwind$??$?6U?$char_traits@D@std@@@std@@YAAEAV?$basic_ostream@DU?$char_traits@D@std@@@0@AEAV10@PEBD@Z 000000014001f6d0     MFCEditView.obj
 0002:000096ec       $cppxdata$??$?6U?$char_traits@D@std@@@std@@YAAEAV?$basic_ostream@DU?$char_traits@D@std@@@0@AEAV10@PEBD@Z 000000014001f6ec     MFCEditView.obj
 0002:000096f9       $stateUnwindMap$??$?6U?$char_traits@D@std@@@std@@YAAEAV?$basic_ostream@DU?$char_traits@D@std@@@0@AEAV10@PEBD@Z 000000014001f6f9     MFCEditView.obj
 0002:0000970d       $tryMap$??$?6U?$char_traits@D@std@@@std@@YAAEAV?$basic_ostream@DU?$char_traits@D@std@@@0@AEAV10@PEBD@Z 000000014001f70d     MFCEditView.obj
 0002:00009715       $handlerMap$??$?6U?$char_traits@D@std@@@std@@YAAEAV?$basic_ostream@DU?$char_traits@D@std@@@0@AEAV10@PEBD@Z 000000014001f715     MFCEditView.obj
 0002:0000971e       $ip2state$??$?6U?$char_traits@D@std@@@std@@YAAEAV?$basic_ostream@DU?$char_traits@D@std@@@0@AEAV10@PEBD@Z 000000014001f71e     MFCEditView.obj
 0002:0000972c       $unwind$??$?0U?$char_traits@_W@std@@V?$allocator@_W@1@@?$basic_regex@_WV?$regex_traits@_W@std@@@std@@QEAA@AEBV?$basic_string@_WU?$char_traits@_W@std@@V?$allocator@_W@2@@1@W4syntax_option_type@regex_constants@1@@Z 000000014001f72c     MFCEditView.obj
 0002:00009758       $cppxdata$??$?0U?$char_traits@_W@std@@V?$allocator@_W@1@@?$basic_regex@_WV?$regex_traits@_W@std@@@std@@QEAA@AEBV?$basic_string@_WU?$char_traits@_W@std@@V?$allocator@_W@2@@1@W4syntax_option_type@regex_constants@1@@Z 000000014001f758     MFCEditView.obj
 0002:00009761       $stateUnwindMap$??$?0U?$char_traits@_W@std@@V?$allocator@_W@1@@?$basic_regex@_WV?$regex_traits@_W@std@@@std@@QEAA@AEBV?$basic_string@_WU?$char_traits@_W@std@@V?$allocator@_W@2@@1@W4syntax_option_type@regex_constants@1@@Z 000000014001f761     MFCEditView.obj
 0002:00009789       $ip2state$??$?0U?$char_traits@_W@std@@V?$allocator@_W@1@@?$basic_regex@_WV?$regex_traits@_W@std@@@std@@QEAA@AEBV?$basic_string@_WU?$char_traits@_W@std@@V?$allocator@_W@2@@1@W4syntax_option_type@regex_constants@1@@Z 000000014001f789     MFCEditView.obj
 0002:0000979c       $unwind$??$_Regex_search2@V?$_String_const_iterator@V?$_String_val@U?$_Simple_types@_W@std@@@std@@@std@@V?$allocator@V?$sub_match@V?$_String_const_iterator@V?$_String_val@U?$_Simple_types@_W@std@@@std@@@std@@@std@@@2@_WV?$regex_traits@_W@2@V12@@std@@YA_NV?$_String_const_iterator@V?$_String_val@U?$_Simple_types@_W@std@@@std@@@0@0PEAV?$match_results@V?$_String_const_iterator@V?$_String_val@U?$_Simple_types@_W@std@@@std@@@std@@V?$allocator@V?$sub_match@V?$_String_const_iterator@V?$_String_val@U?$_Simple_types@_W@std@@@std@@@std@@@std@@@2@@0@AEBV?$basic_regex@_WV?$regex_traits@_W@std@@@0@W4match_flag_type@regex_constants@0@0@Z 000000014001f79c     MFCEditView.obj
 0002:000097c4       $cppxdata$??$_Regex_search2@V?$_String_const_iterator@V?$_String_val@U?$_Simple_types@_W@std@@@std@@@std@@V?$allocator@V?$sub_match@V?$_String_const_iterator@V?$_String_val@U?$_Simple_types@_W@std@@@std@@@std@@@std@@@2@_WV?$regex_traits@_W@2@V12@@std@@YA_NV?$_String_const_iterator@V?$_String_val@U?$_Simple_types@_W@std@@@std@@@0@0PEAV?$match_results@V?$_String_const_iterator@V?$_String_val@U?$_Simple_types@_W@std@@@std@@@std@@V?$allocator@V?$sub_match@V?$_String_const_iterator@V?$_String_val@U?$_Simple_types@_W@std@@@std@@@std@@@std@@@2@@0@AEBV?$basic_regex@_WV?$regex_traits@_W@std@@@0@W4match_flag_type@regex_constants@0@0@Z 000000014001f7c4     MFCEditView.obj
 0002:000097cd       $stateUnwindMap$??$_Regex_search2@V?$_String_const_iterator@V?$_String_val@U?$_Simple_types@_W@std@@@std@@@std@@V?$allocator@V?$sub_match@V?$_String_const_iterator@V?$_String_val@U?$_Simple_types@_W@std@@@std@@@std@@@std@@@2@_WV?$regex_traits@_W@2@V12@@std@@YA_NV?$_String_const_iterator@V?$_String_val@U?$_Simple_types@_W@std@@@std@@@0@0PEAV?$match_results@V?$_String_const_iterator@V?$_String_val@U?$_Simple_types@_W@std@@@std@@@std@@V?$allocator@V?$sub_match@V?$_String_const_iterator@V?$_String_val@U?$_Simple_types@_W@std@@@std@@@std@@@std@@@2@@0@AEBV?$basic_regex@_WV?$regex_traits@_W@std@@@0@W4match_flag_type@regex_constants@0@0@Z 000000014001f7cd     MFCEditView.obj
 0002:000097d4       $ip2state$??$_Regex_search2@V?$_String_const_iterator@V?$_String_val@U?$_Simple_types@_W@std@@@std@@@std@@V?$allocator@V?$sub_match@V?$_String_const_iterator@V?$_String_val@U?$_Simple_types@_W@std@@@std@@@std@@@std@@@2@_WV?$regex_traits@_W@2@V12@@std@@YA_NV?$_String_const_iterator@V?$_String_val@U?$_Simple_types@_W@std@@@std@@@0@0PEAV?$match_results@V?$_String_const_iterator@V?$_String_val@U?$_Simple_types@_W@std@@@std@@@std@@V?$allocator@V?$sub_match@V?$_String_const_iterator@V?$_String_val@U?$_Simple_types@_W@std@@@std@@@std@@@std@@@2@@0@AEBV?$basic_regex@_WV?$regex_traits@_W@std@@@0@W4match_flag_type@regex_constants@0@0@Z 000000014001f7d4     MFCEditView.obj
 0002:000097e0       $unwind$??$_Destroy_range@V?$allocator@V?$basic_string@_WU?$char_traits@_W@std@@V?$allocator@_W@2@@std@@@std@@@std@@YAXPEAV?$basic_string@_WU?$char_traits@_W@std@@V?$allocator@_W@2@@0@QEAV10@AEAV?$allocator@V?$basic_string@_WU?$char_traits@_W@std@@V?$allocator@_W@2@@std@@@0@@Z 000000014001f7e0     MFCEditView.obj
 0002:000097ec       $chain$0$??$_Destroy_range@V?$allocator@V?$basic_string@_WU?$char_traits@_W@std@@V?$allocator@_W@2@@std@@@std@@@std@@YAXPEAV?$basic_string@_WU?$char_traits@_W@std@@V?$allocator@_W@2@@0@QEAV10@AEAV?$allocator@V?$basic_string@_WU?$char_traits@_W@std@@V?$allocator@_W@2@@std@@@0@@Z 000000014001f7ec     MFCEditView.obj
 0002:00009800       $chain$1$??$_Destroy_range@V?$allocator@V?$basic_string@_WU?$char_traits@_W@std@@V?$allocator@_W@2@@std@@@std@@@std@@YAXPEAV?$basic_string@_WU?$char_traits@_W@std@@V?$allocator@_W@2@@0@QEAV10@AEAV?$allocator@V?$basic_string@_WU?$char_traits@_W@std@@V?$allocator@_W@2@@std@@@0@@Z 000000014001f800     MFCEditView.obj
 0002:00009810       $chain$2$??$_Destroy_range@V?$allocator@V?$basic_string@_WU?$char_traits@_W@std@@V?$allocator@_W@2@@std@@@std@@@std@@YAXPEAV?$basic_string@_WU?$char_traits@_W@std@@V?$allocator@_W@2@@0@QEAV10@AEAV?$allocator@V?$basic_string@_WU?$char_traits@_W@std@@V?$allocator@_W@2@@std@@@0@@Z 000000014001f810     MFCEditView.obj
 0002:00009824       $unwind$??$_Reallocate_grow_by@V<lambda_a3050a43f3157934f354774ab3dd2e02>@@_K_W@?$basic_string@_WU?$char_traits@_W@std@@V?$allocator@_W@2@@std@@AEAAAEAV01@_KV<lambda_a3050a43f3157934f354774ab3dd2e02>@@_K_W@Z 000000014001f824     MFCEditView.obj
 0002:00009834       $chain$3$??$_Reallocate_grow_by@V<lambda_a3050a43f3157934f354774ab3dd2e02>@@_K_W@?$basic_string@_WU?$char_traits@_W@std@@V?$allocator@_W@2@@std@@AEAAAEAV01@_KV<lambda_a3050a43f3157934f354774ab3dd2e02>@@_K_W@Z 000000014001f834     MFCEditView.obj
 0002:00009854       $chain$4$??$_Reallocate_grow_by@V<lambda_a3050a43f3157934f354774ab3dd2e02>@@_K_W@?$basic_string@_WU?$char_traits@_W@std@@V?$allocator@_W@2@@std@@AEAAAEAV01@_KV<lambda_a3050a43f3157934f354774ab3dd2e02>@@_K_W@Z 000000014001f854     MFCEditView.obj
 0002:00009864       $chain$5$??$_Reallocate_grow_by@V<lambda_a3050a43f3157934f354774ab3dd2e02>@@_K_W@?$basic_string@_WU?$char_traits@_W@std@@V?$allocator@_W@2@@std@@AEAAAEAV01@_KV<lambda_a3050a43f3157934f354774ab3dd2e02>@@_K_W@Z 000000014001f864     MFCEditView.obj
 0002:00009884       $unwind$??$_Reallocate_for@V<lambda_3fa8b2c8193a0f3144fc4b1b8f243931>@@PEB_W@?$basic_string@_WU?$char_traits@_W@std@@V?$allocator@_W@2@@std@@AEAAAEAV01@_KV<lambda_3fa8b2c8193a0f3144fc4b1b8f243931>@@PEB_W@Z 000000014001f884     MFCEditView.obj
 0002:00009894       $chain$2$??$_Reallocate_for@V<lambda_3fa8b2c8193a0f3144fc4b1b8f243931>@@PEB_W@?$basic_string@_WU?$char_traits@_W@std@@V?$allocator@_W@2@@std@@AEAAAEAV01@_KV<lambda_3fa8b2c8193a0f3144fc4b1b8f243931>@@PEB_W@Z 000000014001f894     MFCEditView.obj
 0002:000098b0       $chain$4$??$_Reallocate_for@V<lambda_3fa8b2c8193a0f3144fc4b1b8f243931>@@PEB_W@?$basic_string@_WU?$char_traits@_W@std@@V?$allocator@_W@2@@std@@AEAAAEAV01@_KV<lambda_3fa8b2c8193a0f3144fc4b1b8f243931>@@PEB_W@Z 000000014001f8b0     MFCEditView.obj
 0002:000098b0       $chain$6$??$_Reallocate_for@V<lambda_3fa8b2c8193a0f3144fc4b1b8f243931>@@PEB_W@?$basic_string@_WU?$char_traits@_W@std@@V?$allocator@_W@2@@std@@AEAAAEAV01@_KV<lambda_3fa8b2c8193a0f3144fc4b1b8f243931>@@PEB_W@Z 000000014001f8b0     MFCEditView.obj
 0002:000098cc       $chain$5$??$_Reallocate_for@V<lambda_3fa8b2c8193a0f3144fc4b1b8f243931>@@PEB_W@?$basic_string@_WU?$char_traits@_W@std@@V?$allocator@_W@2@@std@@AEAAAEAV01@_KV<lambda_3fa8b2c8193a0f3144fc4b1b8f243931>@@PEB_W@Z 000000014001f8cc     MFCEditView.obj
 0002:000098dc       $unwind$??1?$_Tgt_state_t@V?$_String_const_iterator@V?$_String_val@U?$_Simple_types@_W@std@@@std@@@std@@@std@@QEAA@XZ 000000014001f8dc     MFCEditView.obj
 0002:000098dc       $unwind$?_Free@_bstr_t@@AEAAXXZ 000000014001f8dc     MFCEditView.obj
 0002:000098dc       $unwind$?_HexDigits@?$_Parser@PEB_W_WV?$regex_traits@_W@std@@@std@@AEAAXH@Z 000000014001f8dc     MFCEditView.obj
 0002:000098e8       $unwind$??0?$_Matcher@V?$_String_const_iterator@V?$_String_val@U?$_Simple_types@_W@std@@@std@@@std@@_WV?$regex_traits@_W@2@V12@@std@@QEAA@V?$_String_const_iterator@V?$_String_val@U?$_Simple_types@_W@std@@@std@@@1@0AEBV?$regex_traits@_W@1@PEAV_Root_node@1@IW4syntax_option_type@regex_constants@1@W4match_flag_type@61@@Z 000000014001f8e8     MFCEditView.obj
 0002:00009904       $cppxdata$??0?$_Matcher@V?$_String_const_iterator@V?$_String_val@U?$_Simple_types@_W@std@@@std@@@std@@_WV?$regex_traits@_W@2@V12@@std@@QEAA@V?$_String_const_iterator@V?$_String_val@U?$_Simple_types@_W@std@@@std@@@1@0AEBV?$regex_traits@_W@1@PEAV_Root_node@1@IW4syntax_option_type@regex_constants@1@W4match_flag_type@61@@Z 000000014001f904     MFCEditView.obj
 0002:0000990d       $stateUnwindMap$??0?$_Matcher@V?$_String_const_iterator@V?$_String_val@U?$_Simple_types@_W@std@@@std@@@std@@_WV?$regex_traits@_W@2@V12@@std@@QEAA@V?$_String_const_iterator@V?$_String_val@U?$_Simple_types@_W@std@@@std@@@1@0AEBV?$regex_traits@_W@1@PEAV_Root_node@1@IW4syntax_option_type@regex_constants@1@W4match_flag_type@61@@Z 000000014001f90d     MFCEditView.obj
 0002:0000991e       $ip2state$??0?$_Matcher@V?$_String_const_iterator@V?$_String_val@U?$_Simple_types@_W@std@@@std@@@std@@_WV?$regex_traits@_W@2@V12@@std@@QEAA@V?$_String_const_iterator@V?$_String_val@U?$_Simple_types@_W@std@@@std@@@1@0AEBV?$regex_traits@_W@1@PEAV_Root_node@1@IW4syntax_option_type@regex_constants@1@W4match_flag_type@61@@Z 000000014001f91e     MFCEditView.obj
 0002:00009924       $unwind$?_Growmap@?$deque@V?$shared_ptr@Ust@?1??Value@CVARIANTTool@@IEAA?AUtagVARIANT@@U4@0@Z@@std@@V?$allocator@V?$shared_ptr@Ust@?1??Value@CVARIANTTool@@IEAA?AUtagVARIANT@@U4@0@Z@@std@@@2@@std@@AEAAX_K@Z 000000014001f924     MFCEditView.obj
 0002:00009930       $chain$1$?_Growmap@?$deque@V?$shared_ptr@Ust@?1??Value@CVARIANTTool@@IEAA?AUtagVARIANT@@U4@0@Z@@std@@V?$allocator@V?$shared_ptr@Ust@?1??Value@CVARIANTTool@@IEAA?AUtagVARIANT@@U4@0@Z@@std@@@2@@std@@AEAAX_K@Z 000000014001f930     MFCEditView.obj
 0002:00009948       $chain$4$?_Growmap@?$deque@V?$shared_ptr@Ust@?1??Value@CVARIANTTool@@IEAA?AUtagVARIANT@@U4@0@Z@@std@@V?$allocator@V?$shared_ptr@Ust@?1??Value@CVARIANTTool@@IEAA?AUtagVARIANT@@U4@0@Z@@std@@@2@@std@@AEAAX_K@Z 000000014001f948     MFCEditView.obj
 0002:00009964       $chain$5$?_Growmap@?$deque@V?$shared_ptr@Ust@?1??Value@CVARIANTTool@@IEAA?AUtagVARIANT@@U4@0@Z@@std@@V?$allocator@V?$shared_ptr@Ust@?1??Value@CVARIANTTool@@IEAA?AUtagVARIANT@@U4@0@Z@@std@@@2@@std@@AEAAX_K@Z 000000014001f964     MFCEditView.obj
 0002:00009974       $chain$7$?_Growmap@?$deque@V?$shared_ptr@Ust@?1??Value@CVARIANTTool@@IEAA?AUtagVARIANT@@U4@0@Z@@std@@V?$allocator@V?$shared_ptr@Ust@?1??Value@CVARIANTTool@@IEAA?AUtagVARIANT@@U4@0@Z@@std@@@2@@std@@AEAAX_K@Z 000000014001f974     MFCEditView.obj
 0002:0000998c       $chain$8$?_Growmap@?$deque@V?$shared_ptr@Ust@?1??Value@CVARIANTTool@@IEAA?AUtagVARIANT@@U4@0@Z@@std@@V?$allocator@V?$shared_ptr@Ust@?1??Value@CVARIANTTool@@IEAA?AUtagVARIANT@@U4@0@Z@@std@@@2@@std@@AEAAX_K@Z 000000014001f98c     MFCEditView.obj
 0002:0000999c       $chain$0$?_Buy_nonzero@?$vector@HV?$allocator@H@std@@@std@@AEAAX_K@Z 000000014001f99c     MFCEditView.obj
 0002:000099b0       $chain$1$?_Buy_nonzero@?$vector@HV?$allocator@H@std@@@std@@AEAAX_K@Z 000000014001f9b0     MFCEditView.obj
 0002:000099c0       $chain$2$?_Buy_nonzero@?$vector@HV?$allocator@H@std@@@std@@AEAAX_K@Z 000000014001f9c0     MFCEditView.obj
 0002:000099d4       $unwind$??$_Insert_string@_WU?$char_traits@_W@std@@_K@std@@YAAEAV?$basic_ostream@_WU?$char_traits@_W@std@@@0@AEAV10@QEB_W_K@Z 000000014001f9d4     MFCEditView.obj
 0002:000099f4       $cppxdata$??$_Insert_string@_WU?$char_traits@_W@std@@_K@std@@YAAEAV?$basic_ostream@_WU?$char_traits@_W@std@@@0@AEAV10@QEB_W_K@Z 000000014001f9f4     MFCEditView.obj
 0002:00009a01       $tryMap$??$_Insert_string@_WU?$char_traits@_W@std@@_K@std@@YAAEAV?$basic_ostream@_WU?$char_traits@_W@std@@@0@AEAV10@QEB_W_K@Z 000000014001fa01     MFCEditView.obj
 0002:00009a09       $handlerMap$??$_Insert_string@_WU?$char_traits@_W@std@@_K@std@@YAAEAV?$basic_ostream@_WU?$char_traits@_W@std@@@0@AEAV10@QEB_W_K@Z 000000014001fa09     MFCEditView.obj
 0002:00009a12       $ip2state$??$_Insert_string@_WU?$char_traits@_W@std@@_K@std@@YAAEAV?$basic_ostream@_WU?$char_traits@_W@std@@@0@AEAV10@QEB_W_K@Z 000000014001fa12     MFCEditView.obj
 0002:00009a20       $unwind$??$_Emplace_reallocate@AEBV_variant_t@@@?$vector@V_variant_t@@V?$allocator@V_variant_t@@@std@@@std@@AEAAPEAV_variant_t@@QEAV2@AEBV2@@Z 000000014001fa20     MFCEditView.obj
 0002:00009a44       $cppxdata$??$_Emplace_reallocate@AEBV_variant_t@@@?$vector@V_variant_t@@V?$allocator@V_variant_t@@@std@@@std@@AEAAPEAV_variant_t@@QEAV2@AEBV2@@Z 000000014001fa44     MFCEditView.obj
 0002:00009a4d       $stateUnwindMap$??$_Emplace_reallocate@AEBV_variant_t@@@?$vector@V_variant_t@@V?$allocator@V_variant_t@@@std@@@std@@AEAAPEAV_variant_t@@QEAV2@AEBV2@@Z 000000014001fa4d     MFCEditView.obj
 0002:00009a5a       $ip2state$??$_Emplace_reallocate@AEBV_variant_t@@@?$vector@V_variant_t@@V?$allocator@V_variant_t@@@std@@@std@@AEAAPEAV_variant_t@@QEAV2@AEBV2@@Z 000000014001fa5a     MFCEditView.obj
 0002:00009a6c       $unwind$??$_Emplace_reallocate@V?$basic_string@_WU?$char_traits@_W@std@@V?$allocator@_W@2@@std@@@?$vector@V?$basic_string@_WU?$char_traits@_W@std@@V?$allocator@_W@2@@std@@V?$allocator@V?$basic_string@_WU?$char_traits@_W@std@@V?$allocator@_W@2@@std@@@2@@std@@AEAAPEAV?$basic_string@_WU?$char_traits@_W@std@@V?$allocator@_W@2@@1@QEAV21@$$QEAV21@@Z 000000014001fa6c     MFCEditView.obj
 0002:00009a7c       $chain$2$??$_Emplace_reallocate@V?$basic_string@_WU?$char_traits@_W@std@@V?$allocator@_W@2@@std@@@?$vector@V?$basic_string@_WU?$char_traits@_W@std@@V?$allocator@_W@2@@std@@V?$allocator@V?$basic_string@_WU?$char_traits@_W@std@@V?$allocator@_W@2@@std@@@2@@std@@AEAAPEAV?$basic_string@_WU?$char_traits@_W@std@@V?$allocator@_W@2@@1@QEAV21@$$QEAV21@@Z 000000014001fa7c     MFCEditView.obj
 0002:00009a98       $chain$3$??$_Emplace_reallocate@V?$basic_string@_WU?$char_traits@_W@std@@V?$allocator@_W@2@@std@@@?$vector@V?$basic_string@_WU?$char_traits@_W@std@@V?$allocator@_W@2@@std@@V?$allocator@V?$basic_string@_WU?$char_traits@_W@std@@V?$allocator@_W@2@@std@@@2@@std@@AEAAPEAV?$basic_string@_WU?$char_traits@_W@std@@V?$allocator@_W@2@@1@QEAV21@$$QEAV21@@Z 000000014001fa98     MFCEditView.obj
 0002:00009aac       $chain$4$??$_Emplace_reallocate@V?$basic_string@_WU?$char_traits@_W@std@@V?$allocator@_W@2@@std@@@?$vector@V?$basic_string@_WU?$char_traits@_W@std@@V?$allocator@_W@2@@std@@V?$allocator@V?$basic_string@_WU?$char_traits@_W@std@@V?$allocator@_W@2@@std@@@2@@std@@AEAAPEAV?$basic_string@_WU?$char_traits@_W@std@@V?$allocator@_W@2@@1@QEAV21@$$QEAV21@@Z 000000014001faac     MFCEditView.obj
 0002:00009abc       $chain$6$??$_Emplace_reallocate@V?$basic_string@_WU?$char_traits@_W@std@@V?$allocator@_W@2@@std@@@?$vector@V?$basic_string@_WU?$char_traits@_W@std@@V?$allocator@_W@2@@std@@V?$allocator@V?$basic_string@_WU?$char_traits@_W@std@@V?$allocator@_W@2@@std@@@2@@std@@AEAAPEAV?$basic_string@_WU?$char_traits@_W@std@@V?$allocator@_W@2@@1@QEAV21@$$QEAV21@@Z 000000014001fabc     MFCEditView.obj
 0002:00009abc       $chain$8$??$_Emplace_reallocate@V?$basic_string@_WU?$char_traits@_W@std@@V?$allocator@_W@2@@std@@@?$vector@V?$basic_string@_WU?$char_traits@_W@std@@V?$allocator@_W@2@@std@@V?$allocator@V?$basic_string@_WU?$char_traits@_W@std@@V?$allocator@_W@2@@std@@@2@@std@@AEAAPEAV?$basic_string@_WU?$char_traits@_W@std@@V?$allocator@_W@2@@1@QEAV21@$$QEAV21@@Z 000000014001fabc     MFCEditView.obj
 0002:00009ad8       $chain$7$??$_Emplace_reallocate@V?$basic_string@_WU?$char_traits@_W@std@@V?$allocator@_W@2@@std@@@?$vector@V?$basic_string@_WU?$char_traits@_W@std@@V?$allocator@_W@2@@std@@V?$allocator@V?$basic_string@_WU?$char_traits@_W@std@@V?$allocator@_W@2@@std@@@2@@std@@AEAAPEAV?$basic_string@_WU?$char_traits@_W@std@@V?$allocator@_W@2@@1@QEAV21@$$QEAV21@@Z 000000014001fad8     MFCEditView.obj
 0002:00009ae8       $unwind$?_Skip@?$_Matcher@V?$_String_const_iterator@V?$_String_val@U?$_Simple_types@_W@std@@@std@@@std@@_WV?$regex_traits@_W@2@V12@@std@@QEAA?AV?$_String_const_iterator@V?$_String_val@U?$_Simple_types@_W@std@@@std@@@2@V32@0PEAV_Node_base@2@@Z 000000014001fae8     MFCEditView.obj
 0002:00009afc       $chain$2$?_Skip@?$_Matcher@V?$_String_const_iterator@V?$_String_val@U?$_Simple_types@_W@std@@@std@@@std@@_WV?$regex_traits@_W@2@V12@@std@@QEAA?AV?$_String_const_iterator@V?$_String_val@U?$_Simple_types@_W@std@@@std@@@2@V32@0PEAV_Node_base@2@@Z 000000014001fafc     MFCEditView.obj
 0002:00009b14       $chain$3$?_Skip@?$_Matcher@V?$_String_const_iterator@V?$_String_val@U?$_Simple_types@_W@std@@@std@@@std@@_WV?$regex_traits@_W@2@V12@@std@@QEAA?AV?$_String_const_iterator@V?$_String_val@U?$_Simple_types@_W@std@@@std@@@2@V32@0PEAV_Node_base@2@@Z 000000014001fb14     MFCEditView.obj
 0002:00009b24       $unwind$??$_Match@V?$allocator@V?$sub_match@V?$_String_const_iterator@V?$_String_val@U?$_Simple_types@_W@std@@@std@@@std@@@std@@@std@@@?$_Matcher@V?$_String_const_iterator@V?$_String_val@U?$_Simple_types@_W@std@@@std@@@std@@_WV?$regex_traits@_W@2@V12@@std@@QEAA_NPEAV?$match_results@V?$_String_const_iterator@V?$_String_val@U?$_Simple_types@_W@std@@@std@@@std@@V?$allocator@V?$sub_match@V?$_String_const_iterator@V?$_String_val@U?$_Simple_types@_W@std@@@std@@@std@@@std@@@2@@1@_N@Z 000000014001fb24     MFCEditView.obj
 0002:00009b34       $unwind$??$use_facet@V?$collate@_W@std@@@std@@YAAEBV?$collate@_W@0@AEBVlocale@0@@Z 000000014001fb34     MFCEditView.obj
 0002:00009b5c       $cppxdata$??$use_facet@V?$collate@_W@std@@@std@@YAAEBV?$collate@_W@0@AEBVlocale@0@@Z 000000014001fb5c     MFCEditView.obj
 0002:00009b65       $stateUnwindMap$??$use_facet@V?$collate@_W@std@@@std@@YAAEBV?$collate@_W@0@AEBVlocale@0@@Z 000000014001fb65     MFCEditView.obj
 0002:00009b95       $ip2state$??$use_facet@V?$collate@_W@std@@@std@@YAAEBV?$collate@_W@0@AEBVlocale@0@@Z 000000014001fb95     MFCEditView.obj
 0002:00009ba8       $unwind$??1_Reallocation_guard@?$vector@V_variant_t@@V?$allocator@V_variant_t@@@std@@@std@@QEAA@XZ 000000014001fba8     MFCEditView.obj
 0002:00009bb0       $chain$1$??1_Reallocation_guard@?$vector@V_variant_t@@V?$allocator@V_variant_t@@@std@@@std@@QEAA@XZ 000000014001fbb0     MFCEditView.obj
 0002:00009bc8       $chain$2$??1_Reallocation_guard@?$vector@V_variant_t@@V?$allocator@V_variant_t@@@std@@@std@@QEAA@XZ 000000014001fbc8     MFCEditView.obj
 0002:00009bd8       $unwind$?_Resize@?$match_results@V?$_String_const_iterator@V?$_String_val@U?$_Simple_types@_W@std@@@std@@@std@@V?$allocator@V?$sub_match@V?$_String_const_iterator@V?$_String_val@U?$_Simple_types@_W@std@@@std@@@std@@@std@@@2@@std@@QEAAXI@Z 000000014001fbd8     MFCEditView.obj
 0002:00009be4       $unwind$?resize@?$vector@_NV?$allocator@_N@std@@@std@@QEAAX_K_N@Z 000000014001fbe4     MFCEditView.obj
 0002:00009bf4       $unwind$?translate@?$_Regex_traits@_W@std@@QEBA_W_W@Z 000000014001fbf4     MFCEditView.obj
 0002:00009c04       $unwind$??_G?$_Node_class@_WV?$regex_traits@_W@std@@@std@@UEAAPEAXI@Z 000000014001fc04     MFCEditView.obj
 0002:00009c04       $unwind$?_Alternative@?$_Parser@PEB_W_WV?$regex_traits@_W@std@@@std@@AEAA_NXZ 000000014001fc04     MFCEditView.obj
 0002:00009c04       $unwind$?_DecimalDigits@?$_Parser@PEB_W_WV?$regex_traits@_W@std@@@std@@AEAA_NW4error_type@regex_constants@2@@Z 000000014001fc04     MFCEditView.obj
 0002:00009c18       $unwind$?erase@?$vector@_NV?$allocator@_N@std@@@std@@QEAA?AV?$_Vb_iterator@U?$_Wrap_alloc@V?$allocator@I@std@@@std@@@2@V?$_Vb_const_iterator@U?$_Wrap_alloc@V?$allocator@I@std@@@std@@@2@0@Z 000000014001fc18     MFCEditView.obj
 0002:00009c30       $cppxdata$?erase@?$vector@_NV?$allocator@_N@std@@@std@@QEAA?AV?$_Vb_iterator@U?$_Wrap_alloc@V?$allocator@I@std@@@std@@@2@V?$_Vb_const_iterator@U?$_Wrap_alloc@V?$allocator@I@std@@@std@@@2@0@Z 000000014001fc30     MFCEditView.obj
 0002:00009c35       $ip2state$?erase@?$vector@_NV?$allocator@_N@std@@@std@@QEAA?AV?$_Vb_iterator@U?$_Wrap_alloc@V?$allocator@I@std@@@std@@@2@V?$_Vb_const_iterator@U?$_Wrap_alloc@V?$allocator@I@std@@@std@@@2@0@Z 000000014001fc35     MFCEditView.obj
 0002:00009c3c       $unwind$?_Insert_x@?$vector@_NV?$allocator@_N@std@@@std@@QEAA_KV?$_Vb_const_iterator@U?$_Wrap_alloc@V?$allocator@I@std@@@std@@@2@_K@Z 000000014001fc3c     MFCEditView.obj
 0002:00009c50       $chain$0$?_Insert_x@?$vector@_NV?$allocator@_N@std@@@std@@QEAA_KV?$_Vb_const_iterator@U?$_Wrap_alloc@V?$allocator@I@std@@@std@@@2@_K@Z 000000014001fc50     MFCEditView.obj
 0002:00009c64       $chain$1$?_Insert_x@?$vector@_NV?$allocator@_N@std@@@std@@QEAA_KV?$_Vb_const_iterator@U?$_Wrap_alloc@V?$allocator@I@std@@@std@@@2@_K@Z 000000014001fc64     MFCEditView.obj
 0002:00009c78       $chain$2$?_Insert_x@?$vector@_NV?$allocator@_N@std@@@std@@QEAA_KV?$_Vb_const_iterator@U?$_Wrap_alloc@V?$allocator@I@std@@@std@@@2@_K@Z 000000014001fc78     MFCEditView.obj
 0002:00009c88       $chain$3$?_Insert_x@?$vector@_NV?$allocator@_N@std@@@std@@QEAA_KV?$_Vb_const_iterator@U?$_Wrap_alloc@V?$allocator@I@std@@@std@@@2@_K@Z 000000014001fc88     MFCEditView.obj
 0002:00009c88       $chain$5$?_Insert_x@?$vector@_NV?$allocator@_N@std@@@std@@QEAA_KV?$_Vb_const_iterator@U?$_Wrap_alloc@V?$allocator@I@std@@@std@@@2@_K@Z 000000014001fc88     MFCEditView.obj
 0002:00009c98       $chain$4$?_Insert_x@?$vector@_NV?$allocator@_N@std@@@std@@QEAA_KV?$_Vb_const_iterator@U?$_Wrap_alloc@V?$allocator@I@std@@@std@@@2@_K@Z 000000014001fc98     MFCEditView.obj
 0002:00009cac       $unwind$?_Match_pat@?$_Matcher@V?$_String_const_iterator@V?$_String_val@U?$_Simple_types@_W@std@@@std@@@std@@_WV?$regex_traits@_W@2@V12@@std@@AEAA_NPEAV_Node_base@2@@Z 000000014001fcac     MFCEditView.obj
 0002:00009cd4       $cppxdata$?_Match_pat@?$_Matcher@V?$_String_const_iterator@V?$_String_val@U?$_Simple_types@_W@std@@@std@@@std@@_WV?$regex_traits@_W@2@V12@@std@@AEAA_NPEAV_Node_base@2@@Z 000000014001fcd4     MFCEditView.obj
 0002:00009cdd       $stateUnwindMap$?_Match_pat@?$_Matcher@V?$_String_const_iterator@V?$_String_val@U?$_Simple_types@_W@std@@@std@@@std@@_WV?$regex_traits@_W@2@V12@@std@@AEAA_NPEAV_Node_base@2@@Z 000000014001fcdd     MFCEditView.obj
 0002:00009ce4       $ip2state$?_Match_pat@?$_Matcher@V?$_String_const_iterator@V?$_String_val@U?$_Simple_types@_W@std@@@std@@@std@@_WV?$regex_traits@_W@2@V12@@std@@AEAA_NPEAV_Node_base@2@@Z 000000014001fce4     MFCEditView.obj
 0002:00009cf4       $unwind$?_Compile@?$_Parser@PEB_W_WV?$regex_traits@_W@std@@@std@@QEAAPEAV_Root_node@2@XZ 000000014001fcf4     MFCEditView.obj
 0002:00009d10       $cppxdata$?_Compile@?$_Parser@PEB_W_WV?$regex_traits@_W@std@@@std@@QEAAPEAV_Root_node@2@XZ 000000014001fd10     MFCEditView.obj
 0002:00009d19       $stateUnwindMap$?_Compile@?$_Parser@PEB_W_WV?$regex_traits@_W@std@@@std@@QEAAPEAV_Root_node@2@XZ 000000014001fd19     MFCEditView.obj
 0002:00009d20       $ip2state$?_Compile@?$_Parser@PEB_W_WV?$regex_traits@_W@std@@@std@@QEAAPEAV_Root_node@2@XZ 000000014001fd20     MFCEditView.obj
 0002:00009d28       $unwind$??$_Compare@V?$_String_const_iterator@V?$_String_val@U?$_Simple_types@_W@std@@@std@@@std@@PEB_WV?$regex_traits@_W@2@@std@@YA?AV?$_String_const_iterator@V?$_String_val@U?$_Simple_types@_W@std@@@std@@@0@V10@0PEB_W1AEBV?$regex_traits@_W@0@W4syntax_option_type@regex_constants@0@@Z 000000014001fd28     MFCEditView.obj
 0002:00009d40       $unwind$??$_Lookup_equiv@_WV?$regex_traits@_W@std@@@std@@YA_NGPEBU?$_Sequence@_W@0@AEBV?$regex_traits@_W@0@@Z 000000014001fd40     MFCEditView.obj
 0002:00009d68       $cppxdata$??$_Lookup_equiv@_WV?$regex_traits@_W@std@@@std@@YA_NGPEBU?$_Sequence@_W@0@AEBV?$regex_traits@_W@0@@Z 000000014001fd68     MFCEditView.obj
 0002:00009d71       $stateUnwindMap$??$_Lookup_equiv@_WV?$regex_traits@_W@std@@@std@@YA_NGPEBU?$_Sequence@_W@0@AEBV?$regex_traits@_W@0@@Z 000000014001fd71     MFCEditView.obj
 0002:00009d7e       $ip2state$??$_Lookup_equiv@_WV?$regex_traits@_W@std@@@std@@YA_NGPEBU?$_Sequence@_W@0@AEBV?$regex_traits@_W@0@@Z 000000014001fd7e     MFCEditView.obj
 0002:00009d88       $unwind$??$_Resize_reallocate@U_Value_init_tag@std@@@?$vector@U_Loop_vals_t@std@@V?$allocator@U_Loop_vals_t@std@@@2@@std@@AEAAX_KAEBU_Value_init_tag@1@@Z 000000014001fd88     MFCEditView.obj
 0002:00009d94       $chain$2$??$_Resize_reallocate@U_Value_init_tag@std@@@?$vector@U_Loop_vals_t@std@@V?$allocator@U_Loop_vals_t@std@@@2@@std@@AEAAX_KAEBU_Value_init_tag@1@@Z 000000014001fd94     MFCEditView.obj
 0002:00009db0       $chain$4$??$_Resize_reallocate@U_Value_init_tag@std@@@?$vector@U_Loop_vals_t@std@@V?$allocator@U_Loop_vals_t@std@@@2@@std@@AEAAX_KAEBU_Value_init_tag@1@@Z 000000014001fdb0     MFCEditView.obj
 0002:00009db0       $chain$6$??$_Resize_reallocate@U_Value_init_tag@std@@@?$vector@U_Loop_vals_t@std@@V?$allocator@U_Loop_vals_t@std@@@2@@std@@AEAAX_KAEBU_Value_init_tag@1@@Z 000000014001fdb0     MFCEditView.obj
 0002:00009dcc       $chain$5$??$_Resize_reallocate@U_Value_init_tag@std@@@?$vector@U_Loop_vals_t@std@@V?$allocator@U_Loop_vals_t@std@@@2@@std@@AEAAX_KAEBU_Value_init_tag@1@@Z 000000014001fdcc     MFCEditView.obj
 0002:00009ddc       $unwind$??$fill_n@V?$_Vb_iterator@U?$_Wrap_alloc@V?$allocator@I@std@@@std@@@std@@_K_N@std@@YA?AV?$_Vb_iterator@U?$_Wrap_alloc@V?$allocator@I@std@@@std@@@0@V10@_KAEB_N@Z 000000014001fddc     MFCEditView.obj
 0002:00009de4       $chain$2$??$fill_n@V?$_Vb_iterator@U?$_Wrap_alloc@V?$allocator@I@std@@@std@@@std@@_K_N@std@@YA?AV?$_Vb_iterator@U?$_Wrap_alloc@V?$allocator@I@std@@@std@@@0@V10@_KAEB_N@Z 000000014001fde4     MFCEditView.obj
 0002:00009e00       $chain$4$??$fill_n@V?$_Vb_iterator@U?$_Wrap_alloc@V?$allocator@I@std@@@std@@@std@@_K_N@std@@YA?AV?$_Vb_iterator@U?$_Wrap_alloc@V?$allocator@I@std@@@std@@@0@V10@_KAEB_N@Z 000000014001fe00     MFCEditView.obj
 0002:00009e18       $chain$5$??$fill_n@V?$_Vb_iterator@U?$_Wrap_alloc@V?$allocator@I@std@@@std@@@std@@_K_N@std@@YA?AV?$_Vb_iterator@U?$_Wrap_alloc@V?$allocator@I@std@@@std@@@0@V10@_KAEB_N@Z 000000014001fe18     MFCEditView.obj
 0002:00009e28       $chain$6$??$fill_n@V?$_Vb_iterator@U?$_Wrap_alloc@V?$allocator@I@std@@@std@@@std@@_K_N@std@@YA?AV?$_Vb_iterator@U?$_Wrap_alloc@V?$allocator@I@std@@@std@@@0@V10@_KAEB_N@Z 000000014001fe28     MFCEditView.obj
 0002:00009e38       $unwind$??0?$_Bt_state_t@V?$_String_const_iterator@V?$_String_val@U?$_Simple_types@_W@std@@@std@@@std@@@std@@QEAA@AEBV01@@Z 000000014001fe38     MFCEditView.obj
 0002:00009e44       $chain$1$??0?$_Bt_state_t@V?$_String_const_iterator@V?$_String_val@U?$_Simple_types@_W@std@@@std@@@std@@@std@@QEAA@AEBV01@@Z 000000014001fe44     MFCEditView.obj
 0002:00009e5c       $chain$2$??0?$_Bt_state_t@V?$_String_const_iterator@V?$_String_val@U?$_Simple_types@_W@std@@@std@@@std@@@std@@QEAA@AEBV01@@Z 000000014001fe5c     MFCEditView.obj
 0002:00009e6c       $chain$1$??1?$_Tidy_guard@V?$_Builder@PEB_W_WV?$regex_traits@_W@std@@@std@@@std@@QEAA@XZ 000000014001fe6c     MFCEditView.obj
 0002:00009e84       $chain$2$??1?$_Tidy_guard@V?$_Builder@PEB_W_WV?$regex_traits@_W@std@@@std@@@std@@QEAA@XZ 000000014001fe84     MFCEditView.obj
 0002:00009e94       $unwind$?_Do_if@?$_Matcher@V?$_String_const_iterator@V?$_String_val@U?$_Simple_types@_W@std@@@std@@@std@@_WV?$regex_traits@_W@2@V12@@std@@AEAA_NPEAV_Node_if@2@@Z 000000014001fe94     MFCEditView.obj
 0002:00009ebc       $cppxdata$?_Do_if@?$_Matcher@V?$_String_const_iterator@V?$_String_val@U?$_Simple_types@_W@std@@@std@@@std@@_WV?$regex_traits@_W@2@V12@@std@@AEAA_NPEAV_Node_if@2@@Z 000000014001febc     MFCEditView.obj
 0002:00009ec5       $stateUnwindMap$?_Do_if@?$_Matcher@V?$_String_const_iterator@V?$_String_val@U?$_Simple_types@_W@std@@@std@@@std@@_WV?$regex_traits@_W@2@V12@@std@@AEAA_NPEAV_Node_if@2@@Z 000000014001fec5     MFCEditView.obj
 0002:00009ed2       $ip2state$?_Do_if@?$_Matcher@V?$_String_const_iterator@V?$_String_val@U?$_Simple_types@_W@std@@@std@@@std@@_WV?$regex_traits@_W@2@V12@@std@@AEAA_NPEAV_Node_if@2@@Z 000000014001fed2     MFCEditView.obj
 0002:00009ee4       $unwind$?_Do_rep@?$_Matcher@V?$_String_const_iterator@V?$_String_val@U?$_Simple_types@_W@std@@@std@@@std@@_WV?$regex_traits@_W@2@V12@@std@@AEAA_NPEAV_Node_rep@2@_NH@Z 000000014001fee4     MFCEditView.obj
 0002:00009f0c       $cppxdata$?_Do_rep@?$_Matcher@V?$_String_const_iterator@V?$_String_val@U?$_Simple_types@_W@std@@@std@@@std@@_WV?$regex_traits@_W@2@V12@@std@@AEAA_NPEAV_Node_rep@2@_NH@Z 000000014001ff0c     MFCEditView.obj
 0002:00009f15       $stateUnwindMap$?_Do_rep@?$_Matcher@V?$_String_const_iterator@V?$_String_val@U?$_Simple_types@_W@std@@@std@@@std@@_WV?$regex_traits@_W@2@V12@@std@@AEAA_NPEAV_Node_rep@2@_NH@Z 000000014001ff15     MFCEditView.obj
 0002:00009f1c       $ip2state$?_Do_rep@?$_Matcher@V?$_String_const_iterator@V?$_String_val@U?$_Simple_types@_W@std@@@std@@@std@@_WV?$regex_traits@_W@2@V12@@std@@AEAA_NPEAV_Node_rep@2@_NH@Z 000000014001ff1c     MFCEditView.obj
 0002:00009f24       $unwind$?_Do_class@?$_Matcher@V?$_String_const_iterator@V?$_String_val@U?$_Simple_types@_W@std@@@std@@@std@@_WV?$regex_traits@_W@2@V12@@std@@AEAA_NPEAV_Node_base@2@@Z 000000014001ff24     MFCEditView.obj
 0002:00009f30       $chain$5$?_Do_class@?$_Matcher@V?$_String_const_iterator@V?$_String_val@U?$_Simple_types@_W@std@@@std@@@std@@_WV?$regex_traits@_W@2@V12@@std@@AEAA_NPEAV_Node_base@2@@Z 000000014001ff30     MFCEditView.obj
 0002:00009f58       $chain$6$?_Do_class@?$_Matcher@V?$_String_const_iterator@V?$_String_val@U?$_Simple_types@_W@std@@@std@@@std@@_WV?$regex_traits@_W@2@V12@@std@@AEAA_NPEAV_Node_base@2@@Z 000000014001ff58     MFCEditView.obj
 0002:00009f68       $unwind$?_Disjunction@?$_Parser@PEB_W_WV?$regex_traits@_W@std@@@std@@AEAAXXZ 000000014001ff68     MFCEditView.obj
 0002:00009f74       $chain$3$?_Disjunction@?$_Parser@PEB_W_WV?$regex_traits@_W@std@@@std@@AEAAXXZ 000000014001ff74     MFCEditView.obj
 0002:00009f94       $chain$4$?_Disjunction@?$_Parser@PEB_W_WV?$regex_traits@_W@std@@@std@@AEAAXXZ 000000014001ff94     MFCEditView.obj
 0002:00009fa8       $chain$5$?_Disjunction@?$_Parser@PEB_W_WV?$regex_traits@_W@std@@@std@@AEAAXXZ 000000014001ffa8     MFCEditView.obj
 0002:00009fb8       $chain$6$?_Disjunction@?$_Parser@PEB_W_WV?$regex_traits@_W@std@@@std@@AEAAXXZ 000000014001ffb8     MFCEditView.obj
 0002:00009fc8       $chain$1$?_End_group@?$_Builder@PEB_W_WV?$regex_traits@_W@std@@@std@@QEAAXPEAV_Node_base@2@@Z 000000014001ffc8     MFCEditView.obj
 0002:00009fe0       $chain$2$?_End_group@?$_Builder@PEB_W_WV?$regex_traits@_W@std@@@std@@QEAAXPEAV_Node_base@2@@Z 000000014001ffe0     MFCEditView.obj
 0002:00009ff0       $unwind$??$_Compare@V?$_String_const_iterator@V?$_String_val@U?$_Simple_types@_W@std@@@std@@@std@@V12@V?$regex_traits@_W@2@@std@@YA?AV?$_String_const_iterator@V?$_String_val@U?$_Simple_types@_W@std@@@std@@@0@V10@000AEBV?$regex_traits@_W@0@W4syntax_option_type@regex_constants@0@@Z 000000014001fff0     MFCEditView.obj
 0002:0000a00c       $unwind$??$transform_primary@V?$_String_iterator@V?$_String_val@U?$_Simple_types@_W@std@@@std@@@std@@@?$_Regex_traits@_W@std@@QEBA?AV?$basic_string@_WU?$char_traits@_W@std@@V?$allocator@_W@2@@1@V?$_String_iterator@V?$_String_val@U?$_Simple_types@_W@std@@@std@@@1@0@Z 000000014002000c     MFCEditView.obj
 0002:0000a030       $cppxdata$??$transform_primary@V?$_String_iterator@V?$_String_val@U?$_Simple_types@_W@std@@@std@@@std@@@?$_Regex_traits@_W@std@@QEBA?AV?$basic_string@_WU?$char_traits@_W@std@@V?$allocator@_W@2@@1@V?$_String_iterator@V?$_String_val@U?$_Simple_types@_W@std@@@std@@@1@0@Z 0000000140020030     MFCEditView.obj
 0002:0000a039       $stateUnwindMap$??$transform_primary@PEA_W@?$_Regex_traits@_W@std@@QEBA?AV?$basic_string@_WU?$char_traits@_W@std@@V?$allocator@_W@2@@1@PEA_W0@Z 0000000140020039     MFCEditView.obj
 0002:0000a039       $stateUnwindMap$??$transform_primary@PEB_W@?$_Regex_traits@_W@std@@QEBA?AV?$basic_string@_WU?$char_traits@_W@std@@V?$allocator@_W@2@@1@PEB_W0@Z 0000000140020039     MFCEditView.obj
 0002:0000a039       $stateUnwindMap$??$transform_primary@V?$_String_iterator@V?$_String_val@U?$_Simple_types@_W@std@@@std@@@std@@@?$_Regex_traits@_W@std@@QEBA?AV?$basic_string@_WU?$char_traits@_W@std@@V?$allocator@_W@2@@1@V?$_String_iterator@V?$_String_val@U?$_Simple_types@_W@std@@@std@@@1@0@Z 0000000140020039     MFCEditView.obj
 0002:0000a045       $ip2state$??$transform_primary@V?$_String_iterator@V?$_String_val@U?$_Simple_types@_W@std@@@std@@@std@@@?$_Regex_traits@_W@std@@QEBA?AV?$basic_string@_WU?$char_traits@_W@std@@V?$allocator@_W@2@@1@V?$_String_iterator@V?$_String_val@U?$_Simple_types@_W@std@@@std@@@1@0@Z 0000000140020045     MFCEditView.obj
 0002:0000a050       $unwind$??$_Resize_reallocate@U_Value_init_tag@std@@@?$vector@U_Grp_t@?$_Tgt_state_t@V?$_String_const_iterator@V?$_String_val@U?$_Simple_types@_W@std@@@std@@@std@@@std@@V?$allocator@U_Grp_t@?$_Tgt_state_t@V?$_String_const_iterator@V?$_String_val@U?$_Simple_types@_W@std@@@std@@@std@@@std@@@3@@std@@AEAAX_KAEBU_Value_init_tag@1@@Z 0000000140020050     MFCEditView.obj
 0002:0000a050       $unwind$??$_Resize_reallocate@U_Value_init_tag@std@@@?$vector@V?$sub_match@V?$_String_const_iterator@V?$_String_val@U?$_Simple_types@_W@std@@@std@@@std@@@std@@V?$allocator@V?$sub_match@V?$_String_const_iterator@V?$_String_val@U?$_Simple_types@_W@std@@@std@@@std@@@std@@@2@@std@@AEAAX_KAEBU_Value_init_tag@1@@Z 0000000140020050     MFCEditView.obj
 0002:0000a05c       $chain$3$??$_Resize_reallocate@U_Value_init_tag@std@@@?$vector@U_Grp_t@?$_Tgt_state_t@V?$_String_const_iterator@V?$_String_val@U?$_Simple_types@_W@std@@@std@@@std@@@std@@V?$allocator@U_Grp_t@?$_Tgt_state_t@V?$_String_const_iterator@V?$_String_val@U?$_Simple_types@_W@std@@@std@@@std@@@std@@@3@@std@@AEAAX_KAEBU_Value_init_tag@1@@Z 000000014002005c     MFCEditView.obj
 0002:0000a07c       $chain$5$??$_Resize_reallocate@U_Value_init_tag@std@@@?$vector@U_Grp_t@?$_Tgt_state_t@V?$_String_const_iterator@V?$_String_val@U?$_Simple_types@_W@std@@@std@@@std@@@std@@V?$allocator@U_Grp_t@?$_Tgt_state_t@V?$_String_const_iterator@V?$_String_val@U?$_Simple_types@_W@std@@@std@@@std@@@std@@@3@@std@@AEAAX_KAEBU_Value_init_tag@1@@Z 000000014002007c     MFCEditView.obj
 0002:0000a07c       $chain$7$??$_Resize_reallocate@U_Value_init_tag@std@@@?$vector@U_Grp_t@?$_Tgt_state_t@V?$_String_const_iterator@V?$_String_val@U?$_Simple_types@_W@std@@@std@@@std@@@std@@V?$allocator@U_Grp_t@?$_Tgt_state_t@V?$_String_const_iterator@V?$_String_val@U?$_Simple_types@_W@std@@@std@@@std@@@std@@@3@@std@@AEAAX_KAEBU_Value_init_tag@1@@Z 000000014002007c     MFCEditView.obj
 0002:0000a09c       $chain$6$??$_Resize_reallocate@U_Value_init_tag@std@@@?$vector@U_Grp_t@?$_Tgt_state_t@V?$_String_const_iterator@V?$_String_val@U?$_Simple_types@_W@std@@@std@@@std@@@std@@V?$allocator@U_Grp_t@?$_Tgt_state_t@V?$_String_const_iterator@V?$_String_val@U?$_Simple_types@_W@std@@@std@@@std@@@std@@@3@@std@@AEAAX_KAEBU_Value_init_tag@1@@Z 000000014002009c     MFCEditView.obj
 0002:0000a0ac       $chain$3$??$_Resize_reallocate@U_Value_init_tag@std@@@?$vector@V?$sub_match@V?$_String_const_iterator@V?$_String_val@U?$_Simple_types@_W@std@@@std@@@std@@@std@@V?$allocator@V?$sub_match@V?$_String_const_iterator@V?$_String_val@U?$_Simple_types@_W@std@@@std@@@std@@@std@@@2@@std@@AEAAX_KAEBU_Value_init_tag@1@@Z 00000001400200ac     MFCEditView.obj
 0002:0000a0cc       $chain$5$??$_Resize_reallocate@U_Value_init_tag@std@@@?$vector@V?$sub_match@V?$_String_const_iterator@V?$_String_val@U?$_Simple_types@_W@std@@@std@@@std@@@std@@V?$allocator@V?$sub_match@V?$_String_const_iterator@V?$_String_val@U?$_Simple_types@_W@std@@@std@@@std@@@std@@@2@@std@@AEAAX_KAEBU_Value_init_tag@1@@Z 00000001400200cc     MFCEditView.obj
 0002:0000a0cc       $chain$7$??$_Resize_reallocate@U_Value_init_tag@std@@@?$vector@V?$sub_match@V?$_String_const_iterator@V?$_String_val@U?$_Simple_types@_W@std@@@std@@@std@@@std@@V?$allocator@V?$sub_match@V?$_String_const_iterator@V?$_String_val@U?$_Simple_types@_W@std@@@std@@@std@@@std@@@2@@std@@AEAAX_KAEBU_Value_init_tag@1@@Z 00000001400200cc     MFCEditView.obj
 0002:0000a0ec       $chain$6$??$_Resize_reallocate@U_Value_init_tag@std@@@?$vector@V?$sub_match@V?$_String_const_iterator@V?$_String_val@U?$_Simple_types@_W@std@@@std@@@std@@@std@@V?$allocator@V?$sub_match@V?$_String_const_iterator@V?$_String_val@U?$_Simple_types@_W@std@@@std@@@std@@@std@@@2@@std@@AEAAX_KAEBU_Value_init_tag@1@@Z 00000001400200ec     MFCEditView.obj
 0002:0000a0fc       $unwind$??$_Resize_reallocate@I@?$vector@IV?$allocator@I@std@@@std@@AEAAX_KAEBI@Z 00000001400200fc     MFCEditView.obj
 0002:0000a108       $chain$2$??$_Resize_reallocate@I@?$vector@IV?$allocator@I@std@@@std@@AEAAX_KAEBI@Z 0000000140020108     MFCEditView.obj
 0002:0000a124       $chain$4$??$_Resize_reallocate@I@?$vector@IV?$allocator@I@std@@@std@@AEAAX_KAEBI@Z 0000000140020124     MFCEditView.obj
 0002:0000a124       $chain$6$??$_Resize_reallocate@I@?$vector@IV?$allocator@I@std@@@std@@AEAAX_KAEBI@Z 0000000140020124     MFCEditView.obj
 0002:0000a140       $chain$5$??$_Resize_reallocate@I@?$vector@IV?$allocator@I@std@@@std@@AEAAX_KAEBI@Z 0000000140020140     MFCEditView.obj
 0002:0000a150       $unwind$??$_Assign_counted_range@PEAI@?$vector@IV?$allocator@I@std@@@std@@AEAAXPEAI_K@Z 0000000140020150     MFCEditView.obj
 0002:0000a150       $unwind$??$_Assign_counted_range@PEAU_Grp_t@?$_Tgt_state_t@V?$_String_const_iterator@V?$_String_val@U?$_Simple_types@_W@std@@@std@@@std@@@std@@@?$vector@U_Grp_t@?$_Tgt_state_t@V?$_String_const_iterator@V?$_String_val@U?$_Simple_types@_W@std@@@std@@@std@@@std@@V?$allocator@U_Grp_t@?$_Tgt_state_t@V?$_String_const_iterator@V?$_String_val@U?$_Simple_types@_W@std@@@std@@@std@@@std@@@3@@std@@AEAAXPEAU_Grp_t@?$_Tgt_state_t@V?$_String_const_iterator@V?$_String_val@U?$_Simple_types@_W@std@@@std@@@std@@@1@_K@Z 0000000140020150     MFCEditView.obj
 0002:0000a160       $chain$0$??$_Assign_counted_range@PEAU_Grp_t@?$_Tgt_state_t@V?$_String_const_iterator@V?$_String_val@U?$_Simple_types@_W@std@@@std@@@std@@@std@@@?$vector@U_Grp_t@?$_Tgt_state_t@V?$_String_const_iterator@V?$_String_val@U?$_Simple_types@_W@std@@@std@@@std@@@std@@V?$allocator@U_Grp_t@?$_Tgt_state_t@V?$_String_const_iterator@V?$_String_val@U?$_Simple_types@_W@std@@@std@@@std@@@std@@@3@@std@@AEAAXPEAU_Grp_t@?$_Tgt_state_t@V?$_String_const_iterator@V?$_String_val@U?$_Simple_types@_W@std@@@std@@@std@@@1@_K@Z 0000000140020160     MFCEditView.obj
 0002:0000a174       $chain$1$??$_Assign_counted_range@PEAU_Grp_t@?$_Tgt_state_t@V?$_String_const_iterator@V?$_String_val@U?$_Simple_types@_W@std@@@std@@@std@@@std@@@?$vector@U_Grp_t@?$_Tgt_state_t@V?$_String_const_iterator@V?$_String_val@U?$_Simple_types@_W@std@@@std@@@std@@@std@@V?$allocator@U_Grp_t@?$_Tgt_state_t@V?$_String_const_iterator@V?$_String_val@U?$_Simple_types@_W@std@@@std@@@std@@@std@@@3@@std@@AEAAXPEAU_Grp_t@?$_Tgt_state_t@V?$_String_const_iterator@V?$_String_val@U?$_Simple_types@_W@std@@@std@@@std@@@1@_K@Z 0000000140020174     MFCEditView.obj
 0002:0000a184       $chain$0$??$_Assign_counted_range@PEAI@?$vector@IV?$allocator@I@std@@@std@@AEAAXPEAI_K@Z 0000000140020184     MFCEditView.obj
 0002:0000a198       $chain$1$??$_Assign_counted_range@PEAI@?$vector@IV?$allocator@I@std@@@std@@AEAAXPEAI_K@Z 0000000140020198     MFCEditView.obj
 0002:0000a1a8       $unwind$??0?$_Tgt_state_t@V?$_String_const_iterator@V?$_String_val@U?$_Simple_types@_W@std@@@std@@@std@@@std@@QEAA@AEBV01@@Z 00000001400201a8     MFCEditView.obj
 0002:0000a1c0       $cppxdata$??0?$_Tgt_state_t@V?$_String_const_iterator@V?$_String_val@U?$_Simple_types@_W@std@@@std@@@std@@@std@@QEAA@AEBV01@@Z 00000001400201c0     MFCEditView.obj
 0002:0000a1c9       $stateUnwindMap$??0?$_Tgt_state_t@V?$_String_const_iterator@V?$_String_val@U?$_Simple_types@_W@std@@@std@@@std@@@std@@QEAA@AEBV01@@Z 00000001400201c9     MFCEditView.obj
 0002:0000a1d0       $ip2state$??0?$_Tgt_state_t@V?$_String_const_iterator@V?$_String_val@U?$_Simple_types@_W@std@@@std@@@std@@@std@@QEAA@AEBV01@@Z 00000001400201d0     MFCEditView.obj
 0002:0000a1dc       $unwind$?_Do_rep0@?$_Matcher@V?$_String_const_iterator@V?$_String_val@U?$_Simple_types@_W@std@@@std@@@std@@_WV?$regex_traits@_W@2@V12@@std@@AEAA_NPEAV_Node_rep@2@_N@Z 00000001400201dc     MFCEditView.obj
 0002:0000a204       $cppxdata$?_Do_rep0@?$_Matcher@V?$_String_const_iterator@V?$_String_val@U?$_Simple_types@_W@std@@@std@@@std@@_WV?$regex_traits@_W@2@V12@@std@@AEAA_NPEAV_Node_rep@2@_N@Z 0000000140020204     MFCEditView.obj
 0002:0000a20d       $stateUnwindMap$?_Do_rep0@?$_Matcher@V?$_String_const_iterator@V?$_String_val@U?$_Simple_types@_W@std@@@std@@@std@@_WV?$regex_traits@_W@2@V12@@std@@AEAA_NPEAV_Node_rep@2@_N@Z 000000014002020d     MFCEditView.obj
 0002:0000a21a       $ip2state$?_Do_rep0@?$_Matcher@V?$_String_const_iterator@V?$_String_val@U?$_Simple_types@_W@std@@@std@@@std@@_WV?$regex_traits@_W@2@V12@@std@@AEAA_NPEAV_Node_rep@2@_N@Z 000000014002021a     MFCEditView.obj
 0002:0000a22c       $unwind$??$_Copy_vbool@V?$_Vb_iterator@U?$_Wrap_alloc@V?$allocator@I@std@@@std@@@std@@V12@@std@@YA?AV?$_Vb_iterator@U?$_Wrap_alloc@V?$allocator@I@std@@@std@@@0@V10@00@Z 000000014002022c     MFCEditView.obj
 0002:0000a248       $unwind$??4?$basic_string@_WU?$char_traits@_W@std@@V?$allocator@_W@2@@std@@QEAAAEAV01@$$QEAV01@@Z 0000000140020248     MFCEditView.obj
 0002:0000a248       $unwind$?_CharacterClass@?$_Parser@PEB_W_WV?$regex_traits@_W@std@@@std@@AEAAXXZ 0000000140020248     MFCEditView.obj
 0002:0000a254       $chain$1$?_CharacterClass@?$_Parser@PEB_W_WV?$regex_traits@_W@std@@@std@@AEAAXXZ 0000000140020254     MFCEditView.obj
 0002:0000a26c       $chain$2$?_CharacterClass@?$_Parser@PEB_W_WV?$regex_traits@_W@std@@@std@@AEAAXXZ 000000014002026c     MFCEditView.obj
 0002:0000a27c       $chain$0$?_AtomEscape@?$_Parser@PEB_W_WV?$regex_traits@_W@std@@@std@@AEAAXXZ 000000014002027c     MFCEditView.obj
 0002:0000a290       $chain$1$?_AtomEscape@?$_Parser@PEB_W_WV?$regex_traits@_W@std@@@std@@AEAAXXZ 0000000140020290     MFCEditView.obj
 0002:0000a290       $chain$3$?_AtomEscape@?$_Parser@PEB_W_WV?$regex_traits@_W@std@@@std@@AEAAXXZ 0000000140020290     MFCEditView.obj
 0002:0000a290       $chain$5$?_AtomEscape@?$_Parser@PEB_W_WV?$regex_traits@_W@std@@@std@@AEAAXXZ 0000000140020290     MFCEditView.obj
 0002:0000a2a0       $chain$2$?_AtomEscape@?$_Parser@PEB_W_WV?$regex_traits@_W@std@@@std@@AEAAXXZ 00000001400202a0     MFCEditView.obj
 0002:0000a2a0       $chain$4$?_AtomEscape@?$_Parser@PEB_W_WV?$regex_traits@_W@std@@@std@@AEAAXXZ 00000001400202a0     MFCEditView.obj
 0002:0000a2a0       $chain$6$?_AtomEscape@?$_Parser@PEB_W_WV?$regex_traits@_W@std@@@std@@AEAAXXZ 00000001400202a0     MFCEditView.obj
 0002:0000a2b4       $unwind$?_Wrapped_disjunction@?$_Parser@PEB_W_WV?$regex_traits@_W@std@@@std@@AEAA_NXZ 00000001400202b4     MFCEditView.obj
 0002:0000a2c4       $chain$0$?_Wrapped_disjunction@?$_Parser@PEB_W_WV?$regex_traits@_W@std@@@std@@AEAA_NXZ 00000001400202c4     MFCEditView.obj
 0002:0000a2d8       $chain$2$?_Wrapped_disjunction@?$_Parser@PEB_W_WV?$regex_traits@_W@std@@@std@@AEAA_NXZ 00000001400202d8     MFCEditView.obj
 0002:0000a2ec       $chain$3$?_Wrapped_disjunction@?$_Parser@PEB_W_WV?$regex_traits@_W@std@@@std@@AEAA_NXZ 00000001400202ec     MFCEditView.obj
 0002:0000a2fc       $unwind$?_Quantifier@?$_Parser@PEB_W_WV?$regex_traits@_W@std@@@std@@AEAAXXZ 00000001400202fc     MFCEditView.obj
 0002:0000a310       $chain$0$?_Quantifier@?$_Parser@PEB_W_WV?$regex_traits@_W@std@@@std@@AEAAXXZ 0000000140020310     MFCEditView.obj
 0002:0000a324       $chain$1$?_Quantifier@?$_Parser@PEB_W_WV?$regex_traits@_W@std@@@std@@AEAAXXZ 0000000140020324     MFCEditView.obj
 0002:0000a324       $chain$3$?_Quantifier@?$_Parser@PEB_W_WV?$regex_traits@_W@std@@@std@@AEAAXXZ 0000000140020324     MFCEditView.obj
 0002:0000a334       $chain$2$?_Quantifier@?$_Parser@PEB_W_WV?$regex_traits@_W@std@@@std@@AEAAXXZ 0000000140020334     MFCEditView.obj
 0002:0000a348       $unwind$?_Add_char@?$_Builder@PEB_W_WV?$regex_traits@_W@std@@@std@@QEAAX_W@Z 0000000140020348     MFCEditView.obj
 0002:0000a35c       $unwind$?_CharacterClassEscape@?$_Parser@PEB_W_WV?$regex_traits@_W@std@@@std@@AEAA_N_N@Z 000000014002035c     MFCEditView.obj
 0002:0000a36c       $chain$0$?_CharacterClassEscape@?$_Parser@PEB_W_WV?$regex_traits@_W@std@@@std@@AEAA_N_N@Z 000000014002036c     MFCEditView.obj
 0002:0000a380       $chain$1$?_CharacterClassEscape@?$_Parser@PEB_W_WV?$regex_traits@_W@std@@@std@@AEAA_N_N@Z 0000000140020380     MFCEditView.obj
 0002:0000a390       $chain$3$?_ClassRanges@?$_Parser@PEB_W_WV?$regex_traits@_W@std@@@std@@AEAAXXZ 0000000140020390     MFCEditView.obj
 0002:0000a3b0       $chain$4$?_ClassRanges@?$_Parser@PEB_W_WV?$regex_traits@_W@std@@@std@@AEAAXXZ 00000001400203b0     MFCEditView.obj
 0002:0000a3c0       $chain$5$?_ClassRanges@?$_Parser@PEB_W_WV?$regex_traits@_W@std@@@std@@AEAAXXZ 00000001400203c0     MFCEditView.obj
 0002:0000a3e0       $chain$3$?_CharacterEscape@?$_Parser@PEB_W_WV?$regex_traits@_W@std@@@std@@AEAA_NXZ 00000001400203e0     MFCEditView.obj
 0002:0000a400       $chain$4$?_CharacterEscape@?$_Parser@PEB_W_WV?$regex_traits@_W@std@@@std@@AEAA_NXZ 0000000140020400     MFCEditView.obj
 0002:0000a410       $chain$5$?_CharacterEscape@?$_Parser@PEB_W_WV?$regex_traits@_W@std@@@std@@AEAA_NXZ 0000000140020410     MFCEditView.obj
 0002:0000a430       $unwind$?_Do_capture_group@?$_Parser@PEB_W_WV?$regex_traits@_W@std@@@std@@AEAAXXZ 0000000140020430     MFCEditView.obj
 0002:0000a43c       $chain$1$?_Do_capture_group@?$_Parser@PEB_W_WV?$regex_traits@_W@std@@@std@@AEAAXXZ 000000014002043c     MFCEditView.obj
 0002:0000a454       $chain$2$?_Do_capture_group@?$_Parser@PEB_W_WV?$regex_traits@_W@std@@@std@@AEAAXXZ 0000000140020454     MFCEditView.obj
 0002:0000a468       $unwind$?_Do_assert_group@?$_Parser@PEB_W_WV?$regex_traits@_W@std@@@std@@AEAAX_N@Z 0000000140020468     MFCEditView.obj
 0002:0000a488       $cppxdata$?_Do_assert_group@?$_Parser@PEB_W_WV?$regex_traits@_W@std@@@std@@AEAAX_N@Z 0000000140020488     MFCEditView.obj
 0002:0000a491       $stateUnwindMap$?_Do_assert_group@?$_Parser@PEB_W_WV?$regex_traits@_W@std@@@std@@AEAAX_N@Z 0000000140020491     MFCEditView.obj
 0002:0000a498       $ip2state$?_Do_assert_group@?$_Parser@PEB_W_WV?$regex_traits@_W@std@@@std@@AEAAX_N@Z 0000000140020498     MFCEditView.obj
 0002:0000a4a0       $unwind$?_Add_rep@?$_Builder@PEB_W_WV?$regex_traits@_W@std@@@std@@QEAAXHH_N@Z 00000001400204a0     MFCEditView.obj
 0002:0000a4b8       $chain$2$?_Add_rep@?$_Builder@PEB_W_WV?$regex_traits@_W@std@@@std@@QEAAXHH_N@Z 00000001400204b8     MFCEditView.obj
 0002:0000a4cc       $chain$3$?_Add_rep@?$_Builder@PEB_W_WV?$regex_traits@_W@std@@@std@@QEAAXHH_N@Z 00000001400204cc     MFCEditView.obj
 0002:0000a4dc       $chain$0$?_HexDigits@?$_Parser@PEB_W_WV?$regex_traits@_W@std@@@std@@AEAAXH@Z 00000001400204dc     MFCEditView.obj
 0002:0000a4f0       $chain$1$?_HexDigits@?$_Parser@PEB_W_WV?$regex_traits@_W@std@@@std@@AEAAXH@Z 00000001400204f0     MFCEditView.obj
 0002:0000a500       $chain$2$?_HexDigits@?$_Parser@PEB_W_WV?$regex_traits@_W@std@@@std@@AEAAXH@Z 0000000140020500     MFCEditView.obj
 0002:0000a514       $unwind$?_Add_named_class@?$_Builder@PEB_W_WV?$regex_traits@_W@std@@@std@@QEAAXF_N@Z 0000000140020514     MFCEditView.obj
 0002:0000a514       $unwind$?_Add_range@?$_Builder@PEB_W_WV?$regex_traits@_W@std@@@std@@QEAAX_W0@Z 0000000140020514     MFCEditView.obj
 0002:0000a52c       $unwind$?_Add_char_to_array@?$_Builder@PEB_W_WV?$regex_traits@_W@std@@@std@@AEAAX_W@Z 000000014002052c     MFCEditView.obj
 0002:0000a540       $unwind$??$lookup_classname@PEB_W@?$_Regex_traits@_W@std@@QEBAFPEB_W0_N@Z 0000000140020540     MFCEditView.obj
 0002:0000a550       $chain$2$??$lookup_classname@PEB_W@?$_Regex_traits@_W@std@@QEBAFPEB_W0_N@Z 0000000140020550     MFCEditView.obj
 0002:0000a56c       $chain$6$??$lookup_classname@PEB_W@?$_Regex_traits@_W@std@@QEBAFPEB_W0_N@Z 000000014002056c     MFCEditView.obj
 0002:0000a58c       $chain$7$??$lookup_classname@PEB_W@?$_Regex_traits@_W@std@@QEBAFPEB_W0_N@Z 000000014002058c     MFCEditView.obj
 0002:0000a59c       $chain$8$??$lookup_classname@PEB_W@?$_Regex_traits@_W@std@@QEBAFPEB_W0_N@Z 000000014002059c     MFCEditView.obj
 0002:0000a5ac       $chain$9$??$lookup_classname@PEB_W@?$_Regex_traits@_W@std@@QEBAFPEB_W0_N@Z 00000001400205ac     MFCEditView.obj
 0002:0000a5d8       $unwind$?_Do_ex_class@?$_Parser@PEB_W_WV?$regex_traits@_W@std@@@std@@AEAAXW4_Meta_type@2@@Z 00000001400205d8     MFCEditView.obj
 0002:0000a5f0       $unwind$?_Add_equiv@?$_Builder@PEB_W_WV?$regex_traits@_W@std@@@std@@QEAAXPEB_W0_J@Z 00000001400205f0     MFCEditView.obj
 0002:0000a614       $cppxdata$?_Add_equiv@?$_Builder@PEB_W_WV?$regex_traits@_W@std@@@std@@QEAAXPEB_W0_J@Z 0000000140020614     MFCEditView.obj
 0002:0000a61d       $stateUnwindMap$?_Add_equiv@?$_Builder@PEB_W_WV?$regex_traits@_W@std@@@std@@QEAAXPEB_W0_J@Z 000000014002061d     MFCEditView.obj
 0002:0000a624       $ip2state$?_Add_equiv@?$_Builder@PEB_W_WV?$regex_traits@_W@std@@@std@@QEAAXPEB_W0_J@Z 0000000140020624     MFCEditView.obj
 0002:0000a62c       $unwind$?_Char_to_elts@?$_Builder@PEB_W_WV?$regex_traits@_W@std@@@std@@AEAAXPEB_W0_JPEAPEAU?$_Sequence@_W@2@@Z 000000014002062c     MFCEditView.obj
 0002:0000a640       $chain$0$?_Char_to_elts@?$_Builder@PEB_W_WV?$regex_traits@_W@std@@@std@@AEAAXPEB_W0_JPEAPEAU?$_Sequence@_W@2@@Z 0000000140020640     MFCEditView.obj
 0002:0000a654       $chain$1$?_Char_to_elts@?$_Builder@PEB_W_WV?$regex_traits@_W@std@@@std@@AEAAXPEB_W0_JPEAPEAU?$_Sequence@_W@2@@Z 0000000140020654     MFCEditView.obj
 0002:0000a664       $chain$2$?_Char_to_elts@?$_Builder@PEB_W_WV?$regex_traits@_W@std@@@std@@AEAAXPEB_W0_JPEAPEAU?$_Sequence@_W@2@@Z 0000000140020664     MFCEditView.obj
 0002:0000a678       $unwind$??$transform_primary@PEA_W@?$_Regex_traits@_W@std@@QEBA?AV?$basic_string@_WU?$char_traits@_W@std@@V?$allocator@_W@2@@1@PEA_W0@Z 0000000140020678     MFCEditView.obj
 0002:0000a678       $unwind$??$transform_primary@PEB_W@?$_Regex_traits@_W@std@@QEBA?AV?$basic_string@_WU?$char_traits@_W@std@@V?$allocator@_W@2@@1@PEB_W0@Z 0000000140020678     MFCEditView.obj
 0002:0000a698       $cppxdata$??$transform_primary@PEA_W@?$_Regex_traits@_W@std@@QEBA?AV?$basic_string@_WU?$char_traits@_W@std@@V?$allocator@_W@2@@1@PEA_W0@Z 0000000140020698     MFCEditView.obj
 0002:0000a698       $cppxdata$??$transform_primary@PEB_W@?$_Regex_traits@_W@std@@QEBA?AV?$basic_string@_WU?$char_traits@_W@std@@V?$allocator@_W@2@@1@PEB_W0@Z 0000000140020698     MFCEditView.obj
 0002:0000a6a1       $ip2state$??$transform_primary@PEA_W@?$_Regex_traits@_W@std@@QEBA?AV?$basic_string@_WU?$char_traits@_W@std@@V?$allocator@_W@2@@1@PEA_W0@Z 00000001400206a1     MFCEditView.obj
 0002:0000a6a1       $ip2state$??$transform_primary@PEB_W@?$_Regex_traits@_W@std@@QEBA?AV?$basic_string@_WU?$char_traits@_W@std@@V?$allocator@_W@2@@1@PEB_W0@Z 00000001400206a1     MFCEditView.obj
 0002:0000a6ac       $unwind$?accLocation@CFormView@@UEAAJPEAJ000UtagVARIANT@@@Z 00000001400206ac     MFCEditView.obj
 0002:0000a6b4       $unwind$?_Throw_bad_array_new_length@std@@YAXXZ 00000001400206b4     MFCEditView.obj
 0002:0000a6b4       $unwind$?_Throw_bad_cast@std@@YAXXZ 00000001400206b4     MFCEditView.obj
 0002:0000a6b4       $unwind$?get_accChild@CFormView@@UEAAJUtagVARIANT@@PEAPEAUIDispatch@@@Z 00000001400206b4     MFCEditView.obj
 0002:0000a6b4       $unwind$?get_accName@CFormView@@UEAAJUtagVARIANT@@PEAPEA_W@Z 00000001400206b4     MFCEditView.obj
 0002:0000a6b4       $unwind$?_com_raise_error@@YAXJPEAUIErrorInfo@@@Z 00000001400206b4     comsuppw:comraise.obj
 0002:0000a6bc       $unwind$?name@locale@std@@QEBA?AV?$basic_string@DU?$char_traits@D@std@@V?$allocator@D@2@@2@XZ 00000001400206bc     MFCEditView.obj
 0002:0000a6d0       $unwind$??HATL@@YA?AV?$CStringT@_WV?$StrTraitMFC_DLL@_WV?$ChTraitsCRT@_W@ATL@@@@@0@PEB_WAEBV10@@Z 00000001400206d0     MFCEditView.obj
 0002:0000a6e4       $cppxdata$??HATL@@YA?AV?$CStringT@_WV?$StrTraitMFC_DLL@_WV?$ChTraitsCRT@_W@ATL@@@@@0@PEB_WAEBV10@@Z 00000001400206e4     MFCEditView.obj
 0002:0000a6ed       $stateUnwindMap$??HATL@@YA?AV?$CStringT@_WV?$StrTraitMFC_DLL@_WV?$ChTraitsCRT@_W@ATL@@@@@0@AEBV10@PEB_W@Z 00000001400206ed     MFCEditView.obj
 0002:0000a6ed       $stateUnwindMap$??HATL@@YA?AV?$CStringT@_WV?$StrTraitMFC_DLL@_WV?$ChTraitsCRT@_W@ATL@@@@@0@PEB_WAEBV10@@Z 00000001400206ed     MFCEditView.obj
 0002:0000a6f3       $ip2state$??HATL@@YA?AV?$CStringT@_WV?$StrTraitMFC_DLL@_WV?$ChTraitsCRT@_W@ATL@@@@@0@PEB_WAEBV10@@Z 00000001400206f3     MFCEditView.obj
 0002:0000a6f8       $unwind$??1CWaitCursor@@QEAA@XZ 00000001400206f8     MFCEditView.obj
 0002:0000a70c       $cppxdata$??1CWaitCursor@@QEAA@XZ 000000014002070c     MFCEditView.obj
 0002:0000a719       $tryMap$??1CWaitCursor@@QEAA@XZ 0000000140020719     MFCEditView.obj
 0002:0000a721       $handlerMap$??1CWaitCursor@@QEAA@XZ 0000000140020721     MFCEditView.obj
 0002:0000a72d       $ip2state$??1CWaitCursor@@QEAA@XZ 000000014002072d     MFCEditView.obj
 0002:0000a734       $unwind$??HATL@@YA?AV?$CStringT@_WV?$StrTraitMFC_DLL@_WV?$ChTraitsCRT@_W@ATL@@@@@0@AEBV10@PEB_W@Z 0000000140020734     MFCEditView.obj
 0002:0000a748       $cppxdata$??HATL@@YA?AV?$CStringT@_WV?$StrTraitMFC_DLL@_WV?$ChTraitsCRT@_W@ATL@@@@@0@AEBV10@PEB_W@Z 0000000140020748     MFCEditView.obj
 0002:0000a751       $ip2state$??HATL@@YA?AV?$CStringT@_WV?$StrTraitMFC_DLL@_WV?$ChTraitsCRT@_W@ATL@@@@@0@AEBV10@PEB_W@Z 0000000140020751     MFCEditView.obj
 0002:0000a754       $unwind$??$_Construct@$00PEB_W@?$basic_string@_WU?$char_traits@_W@std@@V?$allocator@_W@2@@std@@AEAAXQEB_W_K@Z 0000000140020754     MFCEditView.obj
 0002:0000a764       $chain$0$??$_Construct@$00PEB_W@?$basic_string@_WU?$char_traits@_W@std@@V?$allocator@_W@2@@std@@AEAAXQEB_W_K@Z 0000000140020764     MFCEditView.obj
 0002:0000a778       $chain$3$??$_Construct@$00PEB_W@?$basic_string@_WU?$char_traits@_W@std@@V?$allocator@_W@2@@std@@AEAAXQEB_W_K@Z 0000000140020778     MFCEditView.obj
 0002:0000a790       $chain$4$??$_Construct@$00PEB_W@?$basic_string@_WU?$char_traits@_W@std@@V?$allocator@_W@2@@std@@AEAAXQEB_W_K@Z 0000000140020790     MFCEditView.obj
 0002:0000a7a0       $chain$5$??$_Construct@$00PEB_W@?$basic_string@_WU?$char_traits@_W@std@@V?$allocator@_W@2@@std@@AEAAXQEB_W_K@Z 00000001400207a0     MFCEditView.obj
 0002:0000a7b8       $unwind$?__scrt_common_main_seh@@YAHXZ 00000001400207b8     msvcrt:exe_wwinmain.obj
 0002:0000a7f0       $xdatasym                  00000001400207f0     msvcrt:amdsecgs.obj
 0002:0000a7f4       $unwind$__scrt_is_nonwritable_in_current_image 00000001400207f4     msvcrt:utility.obj
 0002:0000a814       $unwind$__scrt_is_nonwritable_in_current_image$filt$0 0000000140020814     msvcrt:utility.obj
 0002:0000a81c       $unwind$__GSHandlerCheck_EH4 000000014002081c     msvcrt:gshandlereh4.obj
 0002:0000a81c       $unwind$__GSHandlerCheck_SEH 000000014002081c     msvcrt:gshandlerseh.obj
 0002:0000a834       $unwind$__security_init_cookie 0000000140020834     msvcrt:gs_support.obj
 0002:0000a840       $unwind$__scrt_get_show_window_mode 0000000140020840     msvcrt:utility_desktop.obj
 0002:0000a848       $unwind$__scrt_fastfail    0000000140020848     msvcrt:utility_desktop.obj
 0002:0000a858       $unwind$__report_gsfailure 0000000140020858     msvcrt:gs_report.obj
 0002:0000a860       $unwind$capture_previous_context 0000000140020860     msvcrt:gs_report.obj
 0002:0000a86c       $unwind$__isa_available_init 000000014002086c     msvcrt:cpu_disp.obj
 0002:0000a880       $unwind$__GSHandlerCheckCommon 0000000140020880     msvcrt:gshandler.obj
 0002:0000a888       $xdatasym                  0000000140020888     msvcrt:guard_dispatch.obj
 0002:0000a890       $xdatasym                  0000000140020890     msvcrt:guard_xfg_dispatch.obj
 0002:0000a894       $unwind$?ConvertStringToBSTR@_com_util@@YAPEA_WPEBD@Z 0000000140020894     comsuppw:comutil.obj
 0002:0000a8c8       $unwind$??0_com_error@@QEAA@JPEAUIErrorInfo@@_N@Z 00000001400208c8     comsuppw:comraise.obj
 0002:0000a8d8       $cppxdata$??0_com_error@@QEAA@JPEAUIErrorInfo@@_N@Z 00000001400208d8     comsuppw:comraise.obj
 0002:0000a8dd       $ip2state$??0_com_error@@QEAA@JPEAUIErrorInfo@@_N@Z 00000001400208dd     comsuppw:comraise.obj
 0002:0000a8e0       $unwind$??0_com_error@@QEAA@AEBV0@@Z 00000001400208e0     comsuppw:comraise.obj
 0002:0000a8f0       $cppxdata$??0_com_error@@QEAA@AEBV0@@Z 00000001400208f0     comsuppw:comraise.obj
 0002:0000a8f5       $ip2state$??0_com_error@@QEAA@AEBV0@@Z 00000001400208f5     comsuppw:comraise.obj
 0002:0000a8f8       $unwind$??1_com_error@@UEAA@XZ 00000001400208f8     comsuppw:comraise.obj
 0002:0000a908       $cppxdata$??1_com_error@@UEAA@XZ 0000000140020908     comsuppw:comraise.obj
 0002:0000a90d       $ip2state$??1_com_error@@UEAA@XZ 000000014002090d     comsuppw:comraise.obj
 0002:0000a910       $unwind$??_G_com_error@@UEAAPEAXI@Z 0000000140020910     comsuppw:comraise.obj
 0002:0000a924       $cppxdata$??_G_com_error@@UEAAPEAXI@Z 0000000140020924     comsuppw:comraise.obj
 0002:0000a92d       $ip2state$??_G_com_error@@UEAAPEAXI@Z 000000014002092d     comsuppw:comraise.obj
 0002:0000a930       $xdatasym                  0000000140020930     msvcrt:chkstk.obj
 0002:0000be10       .idata$6                   0000000140021e10     mfc140u:mfc140u.dll
 0002:0000c054       .idata$6                   0000000140022054     kernel32:KERNEL32.dll
 0002:0000c0c0       .idata$6                   00000001400220c0     user32:USER32.dll
 0002:0000c0f0       .idata$6                   00000001400220f0     gdi32:GDI32.dll
 0002:0000c112       .idata$6                   0000000140022112     comctl32:COMCTL32.dll
 0002:0000c144       .idata$6                   0000000140022144     ole32:ole32.dll
 0002:0000c14e       .idata$6                   000000014002214e     oleaut32:OLEAUT32.dll
 0002:0000d0aa       .idata$6                   00000001400230aa     msvcprt:MSVCP140.dll
 0002:0000d0fc       .idata$6                   00000001400230fc     MNSC:MNSC.dll
 0002:0000d200       .idata$6                   0000000140023200     vcruntime:VCRUNTIME140_1.dll
 0002:0000d214       .idata$6                   0000000140023214     vcruntime:VCRUNTIME140.dll
 0002:0000d42c       .idata$6                   000000014002342c     ucrt:api-ms-win-crt-runtime-l1-1-0.dll
 0002:0000d44e       .idata$6                   000000014002344e     ucrt:api-ms-win-crt-convert-l1-1-0.dll
 0002:0000d470       .idata$6                   0000000140023470     ucrt:api-ms-win-crt-string-l1-1-0.dll
 0002:0000d492       .idata$6                   0000000140023492     ucrt:api-ms-win-crt-stdio-l1-1-0.dll
 0002:0000d4b2       .idata$6                   00000001400234b2     ucrt:api-ms-win-crt-heap-l1-1-0.dll
 0002:0000d4d2       .idata$6                   00000001400234d2     ucrt:api-ms-win-crt-math-l1-1-0.dll
 0002:0000d4f2       .idata$6                   00000001400234f2     ucrt:api-ms-win-crt-locale-l1-1-0.dll
 0003:000000d8       ?indicators@@3PAIA         00000001400240d8     MainFrm.obj
 0003:00000f58       ?is_initialized_as_dll@@3_NA 0000000140024f58     msvcrt:utility.obj
 0003:00000f59       ?module_local_atexit_table_initialized@@3_NA 0000000140024f59     msvcrt:utility.obj
 0003:00000f60       ?module_local_atexit_table@@3U_onexit_table_t@@A 0000000140024f60     msvcrt:utility.obj
 0003:00000f78       ?module_local_at_quick_exit_table@@3U_onexit_table_t@@A 0000000140024f78     msvcrt:utility.obj
 0003:00000f90       ?g_tss_cv@@3U_RTL_CONDITION_VARIABLE@@A 0000000140024f90     msvcrt:thread_safe_statics.obj
 0003:00000f98       ?g_tss_srw@@3U_RTL_SRWLOCK@@A 0000000140024f98     msvcrt:thread_safe_statics.obj
 0003:00000fd0       GS_ExceptionRecord         0000000140024fd0     msvcrt:gs_report.obj
 0003:00001070       GS_ContextRecord           0000000140025070     msvcrt:gs_report.obj
 0003:000015b8       ?_Fac_head@std@@3PEAU_Fac_node@1@EA 00000001400255b8     msvcprt:locale0_implib.obj
 0003:000015c0       ?_Fac_tidy_reg@std@@3U_Fac_tidy_reg_t@1@B 00000001400255c0     msvcprt:locale0_implib.obj
 0005:00000920       $R000000                   0000000140028920     MFCEdit.res
 0005:00000f88       $R000668                   0000000140028f88     MFCEdit.res
 0005:00001270       $R000950                   0000000140029270     MFCEdit.res
 0005:00001458       $R000B38                   0000000140029458     MFCEdit.res
 0005:00001580       $R000C60                   0000000140029580     MFCEdit.res
 0005:00002428       $R001B08                   000000014002a428     MFCEdit.res
 0005:00002cd0       $R0023B0                   000000014002acd0     MFCEdit.res
 0005:00003398       $R002A78                   000000014002b398     MFCEdit.res
 0005:00003900       $R002FE0                   000000014002b900     MFCEdit.res
 0005:0000ccd0       $R00C3B0                   0000000140034cd0     MFCEdit.res
 0005:0000f278       $R00E958                   0000000140037278     MFCEdit.res
 0005:00010320       $R00FA00                   0000000140038320     MFCEdit.res
 0005:00010ca8       $R010388                   0000000140038ca8     MFCEdit.res
 0005:00011110       $R0107F0                   0000000140039110     MFCEdit.res
 0005:000111d0       $R0108B0                   00000001400391d0     MFCEdit.res
 0005:000114b8       $R010B98                   00000001400394b8     MFCEdit.res
 0005:000115e0       $R010CC0                   00000001400395e0     MFCEdit.res
 0005:00011e88       $R011568                   0000000140039e88     MFCEdit.res
 0005:000123f0       $R011AD0                   000000014003a3f0     MFCEdit.res
 0005:00012430       $R011B10                   000000014003a430     MFCEdit.res
 0005:00012858       $R011F38                   000000014003a858     MFCEdit.res
 0005:00012878       $R011F58                   000000014003a878     MFCEdit.res
 0005:00012b00       $R0121E0                   000000014003ab00     MFCEdit.res
 0005:00012b70       $R012250                   000000014003ab70     MFCEdit.res
 0005:00012c98       $R012378                   000000014003ac98     MFCEdit.res
 0005:00012ec8       $R0125A8                   000000014003aec8     MFCEdit.res
 0005:00013190       $R012870                   000000014003b190     MFCEdit.res
 0005:00013198       $R012878                   000000014003b198     MFCEdit.res
 0005:00013218       $R0128F8                   000000014003b218     MFCEdit.res
 0005:000132a0       $R012980                   000000014003b2a0     MFCEdit.res
 0005:000132d8       $R0129B8                   000000014003b2d8     MFCEdit.res
 0005:00013320       $R012A00                   000000014003b320     MFCEdit.res
 0005:000134e0       $R012BC0                   000000014003b4e0     MFCEdit.res
 0005:00013578       $R012C58                   000000014003b578     MFCEdit.res
 0005:00013718       $R012DF8                   000000014003b718     MFCEdit.res
 0005:00013788       $R012E68                   000000014003b788     MFCEdit.res
 0005:000137c8       $R012EA8                   000000014003b7c8     MFCEdit.res
 0005:00013970       $R013050                   000000014003b970     MFCEdit.res
 0005:00013a08       $R0130E8                   000000014003ba08     MFCEdit.res
 0005:00013b10       $R0131F0                   000000014003bb10     MFCEdit.res
 0005:00013b70       $R013250                   000000014003bb70     MFCEdit.res
 0005:00013bc8       $R0132A8                   000000014003bbc8     MFCEdit.res
