 MFCEdit

 Timestamp is 675449a1 (Sat Dec  7 22:12:01 2024)

 Preferred load address is 0000000140000000

 Start         Length     Name                   Class
 0001:00000000 000000b0H .text$di                CODE
 0001:000000b0 00013e30H .text$mn                CODE
 0001:00013ee0 00000040H .text$mn$00             CODE
 0001:00013f20 00000df0H .text$x                 CODE
 0001:00014d10 0000008bH .text$yd                CODE
 0002:00000000 000010f8H .idata$5                DATA
 0002:000010f8 00000038H .00cfg                  DATA
 0002:00001130 00000008H .CRT$XCA                DATA
 0002:00001138 00000008H .CRT$XCAA               DATA
 0002:00001140 00000018H .CRT$XCL                DATA
 0002:00001158 00000010H .CRT$XCU                DATA
 0002:00001168 00000008H .CRT$XCZ                DATA
 0002:00001170 00000008H .CRT$XIA                DATA
 0002:00001178 00000008H .CRT$XIAA               DATA
 0002:00001180 00000008H .CRT$XIAC               DATA
 0002:00001188 00000008H .CRT$XIZ                DATA
 0002:00001190 00000008H .CRT$XLA                DATA
 0002:00001198 00000008H .CRT$XLZ                DATA
 0002:000011a0 00000008H .CRT$XPA                DATA
 0002:000011a8 00000008H .CRT$XPZ                DATA
 0002:000011b0 00000008H .CRT$XTA                DATA
 0002:000011b8 00000008H .CRT$XTZ                DATA
 0002:000011c0 00000000H .gehcont$y              DATA
 0002:000011c0 00000000H .gfids$y                DATA
 0002:000011c0 00002bc0H .rdata                  DATA
 0002:00003d80 00000000H .rdata$CastGuardVftablesA DATA
 0002:00003d80 00000000H .rdata$CastGuardVftablesC DATA
 0002:00003d80 00000030H .rdata$T                DATA
 0002:00003db0 00002134H .rdata$r                DATA
 0002:00005ee4 00000094H .rdata$voltmd           DATA
 0002:00005f78 000003e8H .rdata$zzzdbg           DATA
 0002:00006360 00000008H .rtc$IAA                DATA
 0002:00006368 00000008H .rtc$IZZ                DATA
 0002:00006370 00000008H .rtc$TAA                DATA
 0002:00006378 00000008H .rtc$TZZ                DATA
 0002:00006380 00000004H .tls                    DATA
 0002:00006384 00000004H .tls$                   DATA
 0002:00006388 00000008H .tls$ZZZ                DATA
 0002:00006390 00002068H .xdata                  DATA
 0002:000083f8 00000250H .xdata$x                DATA
 0002:00008648 00000000H ATL$__a                 DATA
 0002:00008648 00000000H ATL$__z                 DATA
 0002:00008648 00000000H .edata                  DATA
 0002:00008648 00000154H .idata$2                DATA
 0002:0000879c 00000014H .idata$3                DATA
 0002:000087b0 000010f8H .idata$4                DATA
 0002:000098a8 0000170aH .idata$6                DATA
 0003:00000000 000000f0H .data                   DATA
 0003:000000f0 00000200H .data$r                 DATA
 0003:000002f0 00000c50H .data$rs                DATA
 0003:00000f40 00000828H .bss                    DATA
 0004:00000000 0000144cH .pdata                  DATA
 0005:00000000 00000920H .rsrc$01                DATA
 0005:00000920 000135e8H .rsrc$02                DATA

  Address         Publics by Value              Rva+Base               Lib:Object

 0000:00000000       __AbsoluteZero             0000000000000000     <absolute>
 0000:00000000       ___safe_se_handler_count   0000000000000000     <absolute>
 0000:00000000       ___safe_se_handler_table   0000000000000000     <absolute>
 0000:00000000       __arm64x_extra_rfe_table   0000000000000000     <absolute>
 0000:00000000       __arm64x_extra_rfe_table_size 0000000000000000     <absolute>
 0000:00000000       __arm64x_native_entrypoint 0000000000000000     <absolute>
 0000:00000000       __arm64x_redirection_metadata 0000000000000000     <absolute>
 0000:00000000       __arm64x_redirection_metadata_count 0000000000000000     <absolute>
 0000:00000000       __dynamic_value_reloc_table 0000000000000000     <absolute>
 0000:00000000       __enclave_config           0000000000000000     <absolute>
 0000:00000000       __guard_check_icall_a64n_fptr 0000000000000000     <absolute>
 0000:00000000       __guard_eh_cont_count      0000000000000000     <absolute>
 0000:00000000       __guard_eh_cont_table      0000000000000000     <absolute>
 0000:00000000       __guard_fids_count         0000000000000000     <absolute>
 0000:00000000       __guard_fids_table         0000000000000000     <absolute>
 0000:00000000       __guard_iat_count          0000000000000000     <absolute>
 0000:00000000       __guard_iat_table          0000000000000000     <absolute>
 0000:00000000       __guard_longjmp_count      0000000000000000     <absolute>
 0000:00000000       __guard_longjmp_table      0000000000000000     <absolute>
 0000:00000000       __hybrid_auxiliary_delayload_iat 0000000000000000     <absolute>
 0000:00000000       __hybrid_auxiliary_delayload_iat_copy 0000000000000000     <absolute>
 0000:00000000       __hybrid_auxiliary_iat     0000000000000000     <absolute>
 0000:00000000       __hybrid_auxiliary_iat_copy 0000000000000000     <absolute>
 0000:00000000       __hybrid_code_map          0000000000000000     <absolute>
 0000:00000000       __hybrid_code_map_count    0000000000000000     <absolute>
 0000:00000000       __hybrid_image_info_bitfield 0000000000000000     <absolute>
 0000:00000000       __x64_code_ranges_to_entry_points 0000000000000000     <absolute>
 0000:00000000       __x64_code_ranges_to_entry_points_count 0000000000000000     <absolute>
 0000:00000100       __guard_flags              0000000000000100     <absolute>
 0000:00000000       __ImageBase                0000000140000000     <linker-defined>
 0001:000000b0       ?CreateObject@CMainFrame@@SAPEAVCObject@@XZ 00000001400010b0 f   MainFrm.obj
 0001:00000120       ?_GetBaseClass@CMainFrame@@KAPEAUCRuntimeClass@@XZ 0000000140001120 f   MainFrm.obj
 0001:00000130       ?GetRuntimeClass@CMainFrame@@UEBAPEAUCRuntimeClass@@XZ 0000000140001130 f   MainFrm.obj
 0001:00000140       ?GetMessageMap@CMainFrame@@MEBAPEBUAFX_MSGMAP@@XZ 0000000140001140 f   MainFrm.obj
 0001:00000150       ??_ECMainFrame@@UEAAPEAXI@Z 0000000140001150 f i * CIL library *:* CIL module *
 0001:00000150       ??_GCMainFrame@@UEAAPEAXI@Z 0000000140001150 f i MainFrm.obj
 0001:000001d0       ?OnCreate@CMainFrame@@IEAAHPEAUtagCREATESTRUCTW@@@Z 00000001400011d0 f   MainFrm.obj
 0001:000002f0       ?PreCreateWindow@CMainFrame@@UEAAHAEAUtagCREATESTRUCTW@@@Z 00000001400012f0 f   MainFrm.obj
 0001:00000310       ?AssertValid@CObject@@UEBAXXZ 0000000140001310 f i MainFrm.obj
 0001:00000310       ?Clear@CVARIANTTool@@UEAAXXZ 0000000140001310 f i MFCEditView.obj
 0001:00000310       ?Clear@IVARIANTApplication@@UEAAXXZ 0000000140001310 f i MFCEditView.obj
 0001:00000310       ?DoDataExchange@CAboutDlg@@MEAAXPEAVCDataExchange@@@Z 0000000140001310 f i MFCEdit.obj
 0001:00000310       ?DoDataExchange@CWnd@@MEAAXPEAVCDataExchange@@@Z 0000000140001310 f i MainFrm.obj
 0001:00000310       ?Dump@CObject@@UEBAXAEAVCDumpContext@@@Z 0000000140001310 f i MainFrm.obj
 0001:00000310       ?InitializeSearchContent@CDocument@@UEAAXXZ 0000000140001310 f i MFCEditDoc.obj
 0001:00000310       ?OnBeforeRichPreviewFontChanged@CDocument@@UEAAXXZ 0000000140001310 f i MFCEditDoc.obj
 0001:00000310       ?OnRichPreviewBackColorChanged@CDocument@@UEAAXXZ 0000000140001310 f i MFCEditDoc.obj
 0001:00000310       ?OnRichPreviewFontChanged@CDocument@@UEAAXXZ 0000000140001310 f i MFCEditDoc.obj
 0001:00000310       ?OnRichPreviewSiteChanged@CDocument@@UEAAXXZ 0000000140001310 f i MFCEditDoc.obj
 0001:00000310       ?OnRichPreviewTextColorChanged@CDocument@@UEAAXXZ 0000000140001310 f i MFCEditDoc.obj
 0001:00000310       ?Serialize@CMFCEditDoc@@UEAAXAEAVCArchive@@@Z 0000000140001310 f i MFCEditDoc.obj
 0001:00000310       ?Serialize@CObject@@UEAAXAEAVCArchive@@@Z 0000000140001310 f i MainFrm.obj
 0001:00000310       ?__empty_global_delete@@YAXPEAX_K@Z 0000000140001310 f i MainFrm.obj
 0001:00000310       ?__global_delete@@YAXPEAX_K@Z 0000000140001310 f i * CIL library *:* CIL module *
 0001:00000310       _guard_check_icall_nop     0000000140001310 f i msvcrt:guard_support.obj
 0001:00000310       _initialize_denormal_control 0000000140001310 f i msvcrt:denormal_control.obj
 0001:00000310       _initialize_invalid_parameter_handler 0000000140001310 f i msvcrt:invalid_parameter_handler.obj
 0001:00000320       ?GetTrackingID@CFrameWnd@@UEAAIXZ 0000000140001320 f i MainFrm.obj
 0001:00000330       ??3CObject@@SAXPEAX@Z      0000000140001330 f i MainFrm.obj
 0001:00000340       ?GetMessageMap@CMFCEditApp@@MEBAPEBUAFX_MSGMAP@@XZ 0000000140001340 f   MFCEdit.obj
 0001:00000350       ??_ECMFCEditApp@@UEAAPEAXI@Z 0000000140001350 f i * CIL library *:* CIL module *
 0001:00000350       ??_GCMFCEditApp@@UEAAPEAXI@Z 0000000140001350 f i MFCEdit.obj
 0001:000003a0       ?InitInstance@CMFCEditApp@@UEAAHXZ 00000001400013a0 f   MFCEdit.obj
 0001:00000540       ?ExitInstance@CMFCEditApp@@UEAAHXZ 0000000140001540 f   MFCEdit.obj
 0001:00000560       ??_ECAboutDlg@@UEAAPEAXI@Z 0000000140001560 f i * CIL library *:* CIL module *
 0001:00000560       ??_GCAboutDlg@@UEAAPEAXI@Z 0000000140001560 f i MFCEdit.obj
 0001:000005e0       ??1CAboutDlg@@UEAA@XZ      00000001400015e0 f i MFCEdit.obj
 0001:00000620       ?GetMessageMap@CAboutDlg@@MEBAPEBUAFX_MSGMAP@@XZ 0000000140001620 f   MFCEdit.obj
 0001:00000630       ?OnAppAbout@CMFCEditApp@@QEAAXXZ 0000000140001630 f   MFCEdit.obj
 0001:000006e0       ?Create@CDialog@@UEAAHIPEAVCWnd@@@Z 00000001400016e0 f i MFCEdit.obj
 0001:000006f0       ?EndModalState@CWnd@@UEAAXXZ 00000001400016f0 f i MFCEdit.obj
 0001:00000700       ?BeginModalState@CWnd@@UEAAXXZ 0000000140001700 f i MFCEdit.obj
 0001:00000710       ?GetApplicationRecoveryPingInterval@CWinApp@@UEAAKXZ 0000000140001710 f i MFCEdit.obj
 0001:00000720       ?GetApplicationRecoveryParameter@CWinApp@@UEAAPEAXXZ 0000000140001720 f i MFCEdit.obj
 0001:00000720       ?GetApplicationRestartFlags@CWinApp@@UEAAKXZ 0000000140001720 f i MFCEdit.obj
 0001:00000720       ?_Get_deleter@_Ref_count_base@std@@UEBAPEAXAEBVtype_info@@@Z 0000000140001720 f i MFCEditView.obj
 0001:00000720       __scrt_exe_initialize_mta  0000000140001720 f i msvcrt:utility_desktop.obj
 0001:00000720       __scrt_initialize_winrt    0000000140001720 f i msvcrt:utility_desktop.obj
 0001:00000720       __scrt_stub_for_initialize_mta 0000000140001720 f i msvcrt:utility_desktop.obj
 0001:00000720       _get_startup_commit_mode   0000000140001720 f i msvcrt:commit_mode.obj
 0001:00000720       _get_startup_new_mode      0000000140001720 f i msvcrt:new_mode.obj
 0001:00000720       _get_startup_thread_locale_mode 0000000140001720 f i msvcrt:thread_locale.obj
 0001:00000720       _matherr                   0000000140001720 f i msvcrt:matherr.obj
 0001:00000730       ?RestoreAutosavedFilesAtRestart@CWinApp@@UEBAHXZ 0000000140001730 f i MFCEdit.obj
 0001:00000740       ?ReopenPreviousFilesAtRestart@CWinApp@@UEBAHXZ 0000000140001740 f i MFCEdit.obj
 0001:00000750       ?SupportsAutosaveAtInterval@CWinApp@@UEBAHXZ 0000000140001750 f i MFCEdit.obj
 0001:00000760       ?SupportsAutosaveAtRestart@CWinApp@@UEBAHXZ 0000000140001760 f i MFCEdit.obj
 0001:00000770       ?SupportsApplicationRecovery@CWinApp@@UEBAHXZ 0000000140001770 f i MFCEdit.obj
 0001:00000780       ?SupportsRestartManager@CWinApp@@UEBAHXZ 0000000140001780 f i MFCEdit.obj
 0001:00000790       ??_ECBrush@@UEAAPEAXI@Z    0000000140001790 f i * CIL library *:* CIL module *
 0001:00000790       ??_GCBrush@@UEAAPEAXI@Z    0000000140001790 f i MFCEdit.obj
 0001:000007f0       ??_ECGdiObject@@UEAAPEAXI@Z 00000001400017f0 f i * CIL library *:* CIL module *
 0001:000007f0       ??_GCGdiObject@@UEAAPEAXI@Z 00000001400017f0 f i MFCEdit.obj
 0001:00000840       ??1CGdiObject@@UEAA@XZ     0000000140001840 f i MFCEdit.obj
 0001:00000890       ?CreateObject@CMFCEditDoc@@SAPEAVCObject@@XZ 0000000140001890 f   MFCEditDoc.obj
 0001:000008e0       ?_GetBaseClass@CMFCEditDoc@@KAPEAUCRuntimeClass@@XZ 00000001400018e0 f   MFCEditDoc.obj
 0001:000008f0       ?GetRuntimeClass@CMFCEditDoc@@UEBAPEAUCRuntimeClass@@XZ 00000001400018f0 f   MFCEditDoc.obj
 0001:00000900       ?GetMessageMap@CMFCEditDoc@@MEBAPEBUAFX_MSGMAP@@XZ 0000000140001900 f   MFCEditDoc.obj
 0001:00000910       ??_ECMFCEditDoc@@UEAAPEAXI@Z 0000000140001910 f i * CIL library *:* CIL module *
 0001:00000910       ??_GCMFCEditDoc@@UEAAPEAXI@Z 0000000140001910 f i MFCEditDoc.obj
 0001:00000970       ?OnNewDocument@CMFCEditDoc@@UEAAHXZ 0000000140001970 f   MFCEditDoc.obj
 0001:00000990       ?SetModifiedFlag@CDocument@@UEAAXH@Z 0000000140001990 f i MFCEditDoc.obj
 0001:000009a0       ?IsModified@CDocument@@UEAAHXZ 00000001400019a0 f i MFCEditDoc.obj
 0001:000009b0       ??_ECDocumentAdapter@CDocument@@UEAAPEAXI@Z 00000001400019b0 f i * CIL library *:* CIL module *
 0001:000009b0       ??_GCDocumentAdapter@CDocument@@UEAAPEAXI@Z 00000001400019b0 f i MFCEditDoc.obj
 0001:00000a10       ??_EIDocument@ATL@@UEAAPEAXI@Z 0000000140001a10 f i * CIL library *:* CIL module *
 0001:00000a10       ??_GIDocument@ATL@@UEAAPEAXI@Z 0000000140001a10 f i MFCEditDoc.obj
 0001:00000a40       ?Release@IDocument@ATL@@UEAAJXZ 0000000140001a40 f i MFCEditDoc.obj
 0001:00000a80       ?LoadFromStream@CDocumentAdapter@CDocument@@UEAAJPEAUIStream@@K@Z 0000000140001a80 f i MFCEditDoc.obj
 0001:00000b00       ?InitializeSearchContent@CDocumentAdapter@CDocument@@UEAAXXZ 0000000140001b00 f i MFCEditDoc.obj
 0001:00000b20       ?BeginReadChunks@CDocumentAdapter@CDocument@@UEAAXXZ 0000000140001b20 f i MFCEditDoc.obj
 0001:00000b40       ?GetThumbnail@CDocumentAdapter@CDocument@@UEAAHIPEAPEAUHBITMAP__@@PEAW4WTS_ALPHATYPE@@@Z 0000000140001b40 f i MFCEditDoc.obj
 0001:00000b60       ?ClearChunkList@CDocumentAdapter@CDocument@@UEAAXXZ 0000000140001b60 f i MFCEditDoc.obj
 0001:00000b80       ?SetChunkValue@CDocumentAdapter@CDocument@@UEAAHPEAUIFilterChunkValue@ATL@@@Z 0000000140001b80 f i MFCEditDoc.obj
 0001:00000ba0       ?ReadNextChunkValue@CDocumentAdapter@CDocument@@UEAAHPEAPEAUIFilterChunkValue@ATL@@@Z 0000000140001ba0 f i MFCEditDoc.obj
 0001:00000bc0       ?RemoveChunk@CDocumentAdapter@CDocument@@UEAAXAEBU_GUID@@K@Z 0000000140001bc0 f i MFCEditDoc.obj
 0001:00000be0       ?FindChunk@CDocumentAdapter@CDocument@@UEAAPEAU__POSITION@@AEBU_GUID@@K@Z 0000000140001be0 f i MFCEditDoc.obj
 0001:00000c00       ?GetContainer@CDocumentAdapter@CDocument@@UEBAPEAXXZ 0000000140001c00 f i MFCEditDoc.obj
 0001:00000c10       ?AddRef@IDocument@ATL@@UEAAJXZ 0000000140001c10 f i MFCEditDoc.obj
 0001:00000c20       ?GetAdapter@CDocument@@UEAAPEAUIDocument@ATL@@XZ 0000000140001c20 f i MFCEditDoc.obj
 0001:00000cb0       ?AddRef@IVARIANTAbstract@@UEAAKXZ 0000000140001cb0 f i MFCEditView.obj
 0001:00000cc0       ?Release@IVARIANTAbstract@@UEAAKXZ 0000000140001cc0 f i MFCEditView.obj
 0001:00000cf0       ??_ECVARIANTTool@@UEAAPEAXI@Z 0000000140001cf0 f i * CIL library *:* CIL module *
 0001:00000cf0       ??_EIVARIANTAbstract@@UEAAPEAXI@Z 0000000140001cf0 f i * CIL library *:* CIL module *
 0001:00000cf0       ??_GCVARIANTTool@@UEAAPEAXI@Z 0000000140001cf0 f i MFCEditView.obj
 0001:00000cf0       ??_GIVARIANTAbstract@@UEAAPEAXI@Z 0000000140001cf0 f i MFCEditView.obj
 0001:00000d20       ??_E_Node_base@std@@UEAAPEAXI@Z 0000000140001d20 f i * CIL library *:* CIL module *
 0001:00000d20       ??_E_Node_endif@std@@UEAAPEAXI@Z 0000000140001d20 f i * CIL library *:* CIL module *
 0001:00000d20       ??_G_Node_base@std@@UEAAPEAXI@Z 0000000140001d20 f i MFCEditView.obj
 0001:00000d20       ??_G_Node_endif@std@@UEAAPEAXI@Z 0000000140001d20 f i MFCEditView.obj
 0001:00000d50       ??_E_Root_node@std@@UEAAPEAXI@Z 0000000140001d50 f i * CIL library *:* CIL module *
 0001:00000d50       ??_G_Root_node@std@@UEAAPEAXI@Z 0000000140001d50 f i MFCEditView.obj
 0001:00000d80       ??_E_Node_back@std@@UEAAPEAXI@Z 0000000140001d80 f i * CIL library *:* CIL module *
 0001:00000d80       ??_E_Node_capture@std@@UEAAPEAXI@Z 0000000140001d80 f i * CIL library *:* CIL module *
 0001:00000d80       ??_E_Node_end_group@std@@UEAAPEAXI@Z 0000000140001d80 f i * CIL library *:* CIL module *
 0001:00000d80       ??_E_Node_end_rep@std@@UEAAPEAXI@Z 0000000140001d80 f i * CIL library *:* CIL module *
 0001:00000d80       ??_G_Node_back@std@@UEAAPEAXI@Z 0000000140001d80 f i MFCEditView.obj
 0001:00000d80       ??_G_Node_capture@std@@UEAAPEAXI@Z 0000000140001d80 f i MFCEditView.obj
 0001:00000d80       ??_G_Node_end_group@std@@UEAAPEAXI@Z 0000000140001d80 f i MFCEditView.obj
 0001:00000d80       ??_G_Node_end_rep@std@@UEAAPEAXI@Z 0000000140001d80 f i MFCEditView.obj
 0001:00000db0       ??_E_Node_assert@std@@UEAAPEAXI@Z 0000000140001db0 f i * CIL library *:* CIL module *
 0001:00000db0       ??_G_Node_assert@std@@UEAAPEAXI@Z 0000000140001db0 f i MFCEditView.obj
 0001:00000e40       ??_E_Node_if@std@@UEAAPEAXI@Z 0000000140001e40 f i * CIL library *:* CIL module *
 0001:00000e40       ??_G_Node_if@std@@UEAAPEAXI@Z 0000000140001e40 f i MFCEditView.obj
 0001:00000f00       ??_E_Node_rep@std@@UEAAPEAXI@Z 0000000140001f00 f i * CIL library *:* CIL module *
 0001:00000f00       ??_G_Node_rep@std@@UEAAPEAXI@Z 0000000140001f00 f i MFCEditView.obj
 0001:00000f30       ?_Calculate_loop_simplicity@std@@YAXPEAV_Node_base@1@0PEAV_Node_rep@1@@Z 0000000140001f30 f i MFCEditView.obj
 0001:00001010       ?GetMessageMap@CSimpleEdit@@MEBAPEBUAFX_MSGMAP@@XZ 0000000140002010 f   MFCEditView.obj
 0001:00001020       ?OnKeyDown@CSimpleEdit@@IEAAXIII@Z 0000000140002020 f   MFCEditView.obj
 0001:000010a0       ?CreateObject@CMFCEditView@@SAPEAVCObject@@XZ 00000001400020a0 f   MFCEditView.obj
 0001:00001210       ?_GetBaseClass@CMFCEditView@@KAPEAUCRuntimeClass@@XZ 0000000140002210 f   MFCEditView.obj
 0001:00001220       ?GetRuntimeClass@CMFCEditView@@UEBAPEAUCRuntimeClass@@XZ 0000000140002220 f   MFCEditView.obj
 0001:00001230       ?GetMessageMap@CMFCEditView@@MEBAPEBUAFX_MSGMAP@@XZ 0000000140002230 f   MFCEditView.obj
 0001:00001240       ??_ECMFCEditView@@UEAAPEAXI@Z 0000000140002240 f i * CIL library *:* CIL module *
 0001:00001240       ??_GCMFCEditView@@UEAAPEAXI@Z 0000000140002240 f i MFCEditView.obj
 0001:000012e0       ??_ECSimpleEdit@@UEAAPEAXI@Z 00000001400022e0 f i * CIL library *:* CIL module *
 0001:000012e0       ??_GCSimpleEdit@@UEAAPEAXI@Z 00000001400022e0 f i MFCEditView.obj
 0001:00001330       ?DoDataExchange@CMFCEditView@@MEAAXPEAVCDataExchange@@@Z 0000000140002330 f   MFCEditView.obj
 0001:00001390       ?PreCreateWindow@CMFCEditView@@UEAAHAEAUtagCREATESTRUCTW@@@Z 0000000140002390 f   MFCEditView.obj
 0001:000013a0       ?PasteTemplate@@YAXAEAVCEdit@@@Z 00000001400023a0 f   MFCEditView.obj
 0001:00001640       ??_D?$basic_stringstream@_WU?$char_traits@_W@std@@V?$allocator@_W@2@@std@@QEAAXXZ 0000000140002640 f i MFCEditView.obj
 0001:000016a0       ?PreTranslateMessage@CMFCEditView@@MEAAHPEAUtagMSG@@@Z 00000001400026a0 f   MFCEditView.obj
 0001:00001900       ?OnInitialUpdate@CMFCEditView@@MEAAXXZ 0000000140002900 f   MFCEditView.obj
 0001:00001bf0       ?SetFont@CMFCEditView@@QEAAXH@Z 0000000140002bf0 f   MFCEditView.obj
 0001:00001d90       ?TypeId@CVARIANTTool@@UEAAHXZ 0000000140002d90 f i MFCEditView.obj
 0001:00001da0       ?inetGet@CVARIANTTool@@IEAA?AUtagVARIANT@@U2@@Z 0000000140002da0 f i MFCEditView.obj
 0001:00002710       ?Value@CVARIANTTool@@IEAA?AUtagVARIANT@@U2@0@Z 0000000140003710 f i MFCEditView.obj
 0001:000031e0       ?OpenTextFile@CVARIANTTool@@IEAA?AUtagVARIANT@@U2@@Z 00000001400041e0 f i MFCEditView.obj
 0001:00003630       ?QueryInterface@CVARIANTTool@@UEAAJAEBU_GUID@@PEAPEAX@Z 0000000140004630 f i MFCEditView.obj
 0001:00003630       ?QueryInterface@IVARIANTApplication@@UEAAJAEBU_GUID@@PEAPEAX@Z 0000000140004630 f i MFCEditView.obj
 0001:00003670       ?Invoke@CVARIANTTool@@UEAA?AUtagVARIANT@@V?$basic_string@_WU?$char_traits@_W@std@@V?$allocator@_W@2@@std@@PEAU2@H@Z 0000000140004670 f i MFCEditView.obj
 0001:00003890       ??1?$CComPtr@UIXMLHTTPRequest@@@ATL@@QEAA@XZ 0000000140004890 f i MFCEditView.obj
 0001:000038b0       ??1?$queue@V?$shared_ptr@Ust@?1??Value@CVARIANTTool@@IEAA?AUtagVARIANT@@U4@0@Z@@std@@V?$deque@V?$shared_ptr@Ust@?1??Value@CVARIANTTool@@IEAA?AUtagVARIANT@@U4@0@Z@@std@@V?$allocator@V?$shared_ptr@Ust@?1??Value@CVARIANTTool@@IEAA?AUtagVARIANT@@U4@0@Z@@std@@@2@@2@@std@@QEAA@XZ 00000001400048b0 f i MFCEditView.obj
 0001:000038c0       ??_D?$basic_stringstream@DU?$char_traits@D@std@@V?$allocator@D@2@@std@@QEAAXXZ 00000001400048c0 f i MFCEditView.obj
 0001:00003920       ?TypeId@IVARIANTApplication@@UEAAHXZ 0000000140004920 f i MFCEditView.obj
 0001:00003930       ?Test@IVARIANTApplication@@QEAA?AUtagVARIANT@@U2@@Z 0000000140004930 f i MFCEditView.obj
 0001:00003d30       ?Invoke@IVARIANTApplication@@UEAA?AUtagVARIANT@@V?$basic_string@_WU?$char_traits@_W@std@@V?$allocator@_W@2@@std@@PEAU2@H@Z 0000000140004d30 f i MFCEditView.obj
 0001:00003ff0       ??_EIVARIANTApplication@@UEAAPEAXI@Z 0000000140004ff0 f i * CIL library *:* CIL module *
 0001:00003ff0       ??_GIVARIANTApplication@@UEAAPEAXI@Z 0000000140004ff0 f i MFCEditView.obj
 0001:00004020       ?OnBnClickedBtnRun@CMFCEditView@@QEAAXXZ 0000000140005020 f   MFCEditView.obj
 0001:00004530       ?OnBnClickedBtnSave@CMFCEditView@@QEAAXXZ 0000000140005530 f   MFCEditView.obj
 0001:00004610       ?OnSelchangeCombo1@CMFCEditView@@QEAAXXZ 0000000140005610 f   MFCEditView.obj
 0001:000048a0       ?OnBnClickedButton2@CMFCEditView@@QEAAXXZ 00000001400058a0 f   MFCEditView.obj
 0001:000048d0       ?OnBnClickedBtnClear@CMFCEditView@@QEAAXXZ 00000001400058d0 f   MFCEditView.obj
 0001:00004960       ?OnDestroy@CMFCEditView@@QEAAXXZ 0000000140005960 f   MFCEditView.obj
 0001:00004aa0       ?OnSelchangeCmbFont@CMFCEditView@@QEAAXXZ 0000000140005aa0 f   MFCEditView.obj
 0001:00004c00       ?OnKillfocusEdInput@CMFCEditView@@QEAAXXZ 0000000140005c00 f   MFCEditView.obj
 0001:00004c30       ?OnSetfocusEdInput@CMFCEditView@@QEAAXXZ 0000000140005c30 f   MFCEditView.obj
 0001:00004ce0       ?WriteUtf8File@@YA_NAEBV?$CStringT@_WV?$StrTraitMFC_DLL@_WV?$ChTraitsCRT@_W@ATL@@@@@ATL@@0@Z 0000000140005ce0 f   MFCEditView.obj
 0001:00004f00       ?Split@@YA?AV?$vector@V?$basic_string@_WU?$char_traits@_W@std@@V?$allocator@_W@2@@std@@V?$allocator@V?$basic_string@_WU?$char_traits@_W@std@@V?$allocator@_W@2@@std@@@2@@std@@V?$basic_string@_WU?$char_traits@_W@std@@V?$allocator@_W@2@@2@0@Z 0000000140005f00 f   MFCEditView.obj
 0001:00005400       ??1?$regex_token_iterator@V?$_String_const_iterator@V?$_String_val@U?$_Simple_types@_W@std@@@std@@@std@@_WV?$regex_traits@_W@2@@std@@QEAA@XZ 0000000140006400 f i MFCEditView.obj
 0001:00005480       ??1?$regex_iterator@V?$_String_const_iterator@V?$_String_val@U?$_Simple_types@_W@std@@@std@@@std@@_WV?$regex_traits@_W@2@@std@@QEAA@XZ 0000000140006480 f i MFCEditView.obj
 0001:00005490       ??1?$match_results@V?$_String_const_iterator@V?$_String_val@U?$_Simple_types@_W@std@@@std@@@std@@V?$allocator@V?$sub_match@V?$_String_const_iterator@V?$_String_val@U?$_Simple_types@_W@std@@@std@@@std@@@std@@@2@@std@@QEAA@XZ 0000000140006490 f i MFCEditView.obj
 0001:000054a0       ?getUnixTime@@YA_JH@Z      00000001400064a0 f   MFCEditView.obj
 0001:00005530       ?inetStockData_YahooFinanceUri@@YA?AV?$basic_string@_WU?$char_traits@_W@std@@V?$allocator@_W@2@@std@@V12@H@Z 0000000140006530 f   MFCEditView.obj
 0001:00005820       ??0?$regex_token_iterator@V?$_String_const_iterator@V?$_String_val@U?$_Simple_types@_W@std@@@std@@@std@@_WV?$regex_traits@_W@2@@std@@QEAA@V?$_String_const_iterator@V?$_String_val@U?$_Simple_types@_W@std@@@std@@@1@0AEBV?$basic_regex@_WV?$regex_traits@_W@std@@@1@HW4match_flag_type@regex_constants@1@@Z 0000000140006820 f i MFCEditView.obj
 0001:000059e0       ??1?$basic_regex@_WV?$regex_traits@_W@std@@@std@@QEAA@XZ 00000001400069e0 f i MFCEditView.obj
 0001:00005a80       ??1?$vector@DV?$allocator@D@std@@@std@@QEAA@XZ 0000000140006a80 f i MFCEditView.obj
 0001:00005ae0       ??1?$vector@V_variant_t@@V?$allocator@V_variant_t@@@std@@@std@@QEAA@XZ 0000000140006ae0 f i MFCEditView.obj
 0001:00005ba0       ??1?$vector@_WV?$allocator@_W@std@@@std@@QEAA@XZ 0000000140006ba0 f i MFCEditView.obj
 0001:00005c00       ?seekpos@?$basic_stringbuf@DU?$char_traits@D@std@@V?$allocator@D@2@@std@@MEAA?AV?$fpos@U_Mbstatet@@@2@V32@H@Z 0000000140006c00 f i MFCEditView.obj
 0001:00005d30       ?seekoff@?$basic_stringbuf@DU?$char_traits@D@std@@V?$allocator@D@2@@std@@MEAA?AV?$fpos@U_Mbstatet@@@2@_JHH@Z 0000000140006d30 f i MFCEditView.obj
 0001:00005ec0       ?underflow@?$basic_stringbuf@DU?$char_traits@D@std@@V?$allocator@D@2@@std@@MEAAHXZ 0000000140006ec0 f i MFCEditView.obj
 0001:00005f40       ?pbackfail@?$basic_stringbuf@DU?$char_traits@D@std@@V?$allocator@D@2@@std@@MEAAHH@Z 0000000140006f40 f i MFCEditView.obj
 0001:00005fa0       ?overflow@?$basic_stringbuf@DU?$char_traits@D@std@@V?$allocator@D@2@@std@@MEAAHH@Z 0000000140006fa0 f i MFCEditView.obj
 0001:000061a0       ??1?$basic_stringbuf@DU?$char_traits@D@std@@V?$allocator@D@2@@std@@UEAA@XZ 00000001400071a0 f i MFCEditView.obj
 0001:00006260       ??1?$deque@V?$shared_ptr@Ust@?1??Value@CVARIANTTool@@IEAA?AUtagVARIANT@@U4@0@Z@@std@@V?$allocator@V?$shared_ptr@Ust@?1??Value@CVARIANTTool@@IEAA?AUtagVARIANT@@U4@0@Z@@std@@@2@@std@@QEAA@XZ 0000000140007260 f i MFCEditView.obj
 0001:00006380       ??1?$shared_ptr@Ust@?1??Value@CVARIANTTool@@IEAA?AUtagVARIANT@@U4@0@Z@@std@@QEAA@XZ 0000000140007380 f i MFCEditView.obj
 0001:000063d0       ??1?$vector@V?$basic_string@_WU?$char_traits@_W@std@@V?$allocator@_W@2@@std@@V?$allocator@V?$basic_string@_WU?$char_traits@_W@std@@V?$allocator@_W@2@@std@@@2@@std@@QEAA@XZ 00000001400073d0 f i MFCEditView.obj
 0001:00006440       ?seekpos@?$basic_stringbuf@_WU?$char_traits@_W@std@@V?$allocator@_W@2@@std@@MEAA?AV?$fpos@U_Mbstatet@@@2@V32@H@Z 0000000140007440 f i MFCEditView.obj
 0001:00006580       ?seekoff@?$basic_stringbuf@_WU?$char_traits@_W@std@@V?$allocator@_W@2@@std@@MEAA?AV?$fpos@U_Mbstatet@@@2@_JHH@Z 0000000140007580 f i MFCEditView.obj
 0001:00006740       ?underflow@?$basic_stringbuf@_WU?$char_traits@_W@std@@V?$allocator@_W@2@@std@@MEAAGXZ 0000000140007740 f i MFCEditView.obj
 0001:000067c0       ?pbackfail@?$basic_stringbuf@_WU?$char_traits@_W@std@@V?$allocator@_W@2@@std@@MEAAGG@Z 00000001400077c0 f i MFCEditView.obj
 0001:00006820       ?overflow@?$basic_stringbuf@_WU?$char_traits@_W@std@@V?$allocator@_W@2@@std@@MEAAGG@Z 0000000140007820 f i MFCEditView.obj
 0001:00006a60       ??1?$basic_stringbuf@_WU?$char_traits@_W@std@@V?$allocator@_W@2@@std@@UEAA@XZ 0000000140007a60 f i MFCEditView.obj
 0001:00006b30       ?do_hash@?$collate@_W@std@@MEBAJPEB_W0@Z 0000000140007b30 f i MFCEditView.obj
 0001:00006b80       ?do_transform@?$collate@_W@std@@MEBA?AV?$basic_string@_WU?$char_traits@_W@std@@V?$allocator@_W@2@@2@PEB_W0@Z 0000000140007b80 f i MFCEditView.obj
 0001:00006d30       ?do_compare@?$collate@_W@std@@MEBAHPEB_W000@Z 0000000140007d30 f i MFCEditView.obj
 0001:00006d80       ??0?$basic_string@_WU?$char_traits@_W@std@@V?$allocator@_W@2@@std@@QEAA@AEBV01@@Z 0000000140007d80 f i MFCEditView.obj
 0001:00006eb0       ??1?$regex_traits@_W@std@@QEAA@XZ 0000000140007eb0 f i MFCEditView.obj
 0001:00006ee0       ??_E?$basic_stringbuf@DU?$char_traits@D@std@@V?$allocator@D@2@@std@@UEAAPEAXI@Z 0000000140007ee0 f i * CIL library *:* CIL module *
 0001:00006ee0       ??_G?$basic_stringbuf@DU?$char_traits@D@std@@V?$allocator@D@2@@std@@UEAAPEAXI@Z 0000000140007ee0 f i MFCEditView.obj
 0001:00006f20       ??_E?$basic_stringstream@DU?$char_traits@D@std@@V?$allocator@D@2@@std@@UEAAPEAXI@Z 0000000140007f20 f i * CIL library *:* CIL module *
 0001:00006f20       ??_G?$basic_stringstream@DU?$char_traits@D@std@@V?$allocator@D@2@@std@@UEAAPEAXI@Z 0000000140007f20 f i MFCEditView.obj
 0001:00006fc0       ??_E?$basic_stringbuf@_WU?$char_traits@_W@std@@V?$allocator@_W@2@@std@@UEAAPEAXI@Z 0000000140007fc0 f i * CIL library *:* CIL module *
 0001:00006fc0       ??_G?$basic_stringbuf@_WU?$char_traits@_W@std@@V?$allocator@_W@2@@std@@UEAAPEAXI@Z 0000000140007fc0 f i MFCEditView.obj
 0001:00007000       ??_E?$basic_stringstream@_WU?$char_traits@_W@std@@V?$allocator@_W@2@@std@@UEAAPEAXI@Z 0000000140008000 f i * CIL library *:* CIL module *
 0001:00007000       ??_G?$basic_stringstream@_WU?$char_traits@_W@std@@V?$allocator@_W@2@@std@@UEAAPEAXI@Z 0000000140008000 f i MFCEditView.obj
 0001:000070a0       ??_E?$collate@_W@std@@MEAAPEAXI@Z 00000001400080a0 f i * CIL library *:* CIL module *
 0001:000070a0       ??_G?$collate@_W@std@@MEAAPEAXI@Z 00000001400080a0 f i MFCEditView.obj
 0001:000070f0       ??1sentry@?$basic_ostream@_WU?$char_traits@_W@std@@@std@@QEAA@XZ 00000001400080f0 f i MFCEditView.obj
 0001:00007130       ?_Tidy@?$vector@V?$sub_match@V?$_String_const_iterator@V?$_String_val@U?$_Simple_types@_W@std@@@std@@@std@@@std@@V?$allocator@V?$sub_match@V?$_String_const_iterator@V?$_String_val@U?$_Simple_types@_W@std@@@std@@@std@@@std@@@2@@std@@AEAAXXZ 0000000140008130 f i MFCEditView.obj
 0001:000071b0       ??E?$regex_token_iterator@V?$_String_const_iterator@V?$_String_val@U?$_Simple_types@_W@std@@@std@@@std@@_WV?$regex_traits@_W@2@@std@@QEAAAEAV01@XZ 00000001400081b0 f i MFCEditView.obj
 0001:000074a0       ??8?$regex_token_iterator@V?$_String_const_iterator@V?$_String_val@U?$_Simple_types@_W@std@@@std@@@std@@_WV?$regex_traits@_W@2@@std@@QEBA_NAEBV01@@Z 00000001400084a0 f i MFCEditView.obj
 0001:00007660       ??0?$regex_token_iterator@V?$_String_const_iterator@V?$_String_val@U?$_Simple_types@_W@std@@@std@@@std@@_WV?$regex_traits@_W@2@@std@@QEAA@AEBV01@@Z 0000000140008660 f i MFCEditView.obj
 0001:000077b0       ?_Tidy@?$basic_regex@_WV?$regex_traits@_W@std@@@std@@AEAAXXZ 00000001400087b0 f i MFCEditView.obj
 0001:00007830       ??0?$regex_iterator@V?$_String_const_iterator@V?$_String_val@U?$_Simple_types@_W@std@@@std@@@std@@_WV?$regex_traits@_W@2@@std@@QEAA@AEBV01@@Z 0000000140008830 f i MFCEditView.obj
 0001:000079d0       ??1_Sentry_base@?$basic_ostream@DU?$char_traits@D@std@@@std@@QEAA@XZ 00000001400089d0 f i MFCEditView.obj
 0001:000079d0       ??1_Sentry_base@?$basic_ostream@_WU?$char_traits@_W@std@@@std@@QEAA@XZ 00000001400089d0 f i MFCEditView.obj
 0001:00007a00       ?deallocate@?$allocator@V_variant_t@@@std@@QEAAXQEAV_variant_t@@_K@Z 0000000140008a00 f i MFCEditView.obj
 0001:00007a50       ?assign@?$basic_string@DU?$char_traits@D@std@@V?$allocator@D@2@@std@@QEAAAEAV12@QEBD_K@Z 0000000140008a50 f i MFCEditView.obj
 0001:00007bb0       ??$?6_WU?$char_traits@_W@std@@@std@@YAAEAV?$basic_ostream@_WU?$char_traits@_W@std@@@0@AEAV10@PEB_W@Z 0000000140008bb0 f i MFCEditView.obj
 0001:00007d90       ??$?6_WU?$char_traits@_W@std@@@std@@YAAEAV?$basic_ostream@_WU?$char_traits@_W@std@@@0@AEAV10@_W@Z 0000000140008d90 f i MFCEditView.obj
 0001:00007f70       ??$?6U?$char_traits@D@std@@@std@@YAAEAV?$basic_ostream@DU?$char_traits@D@std@@@0@AEAV10@PEBD@Z 0000000140008f70 f i MFCEditView.obj
 0001:00008150       ??$?0U?$char_traits@_W@std@@V?$allocator@_W@1@@?$basic_regex@_WV?$regex_traits@_W@std@@@std@@QEAA@AEBV?$basic_string@_WU?$char_traits@_W@std@@V?$allocator@_W@2@@1@W4syntax_option_type@regex_constants@1@@Z 0000000140009150 f i MFCEditView.obj
 0001:00008420       ??$_Regex_search2@V?$_String_const_iterator@V?$_String_val@U?$_Simple_types@_W@std@@@std@@@std@@V?$allocator@V?$sub_match@V?$_String_const_iterator@V?$_String_val@U?$_Simple_types@_W@std@@@std@@@std@@@std@@@2@_WV?$regex_traits@_W@2@V12@@std@@YA_NV?$_String_const_iterator@V?$_String_val@U?$_Simple_types@_W@std@@@std@@@0@0PEAV?$match_results@V?$_String_const_iterator@V?$_String_val@U?$_Simple_types@_W@std@@@std@@@std@@V?$allocator@V?$sub_match@V?$_String_const_iterator@V?$_String_val@U?$_Simple_types@_W@std@@@std@@@std@@@std@@@2@@0@AEBV?$basic_regex@_WV?$regex_traits@_W@std@@@0@W4match_flag_type@regex_constants@0@0@Z 0000000140009420 f i MFCEditView.obj
 0001:00008660       ??$_Destroy_range@V?$allocator@V_variant_t@@@std@@@std@@YAXPEAV_variant_t@@QEAV1@AEAV?$allocator@V_variant_t@@@0@@Z 0000000140009660 f i MFCEditView.obj
 0001:000086a0       ??$_Destroy_range@V?$allocator@V?$basic_string@_WU?$char_traits@_W@std@@V?$allocator@_W@2@@std@@@std@@@std@@YAXPEAV?$basic_string@_WU?$char_traits@_W@std@@V?$allocator@_W@2@@0@QEAV10@AEAV?$allocator@V?$basic_string@_WU?$char_traits@_W@std@@V?$allocator@_W@2@@std@@@0@@Z 00000001400096a0 f i MFCEditView.obj
 0001:00008730       ??$_Reallocate_grow_by@V<lambda_a3050a43f3157934f354774ab3dd2e02>@@_K_W@?$basic_string@_WU?$char_traits@_W@std@@V?$allocator@_W@2@@std@@AEAAAEAV01@_KV<lambda_a3050a43f3157934f354774ab3dd2e02>@@_K_W@Z 0000000140009730 f i MFCEditView.obj
 0001:000088e0       ??$_Reallocate_for@V<lambda_3fa8b2c8193a0f3144fc4b1b8f243931>@@PEB_W@?$basic_string@_WU?$char_traits@_W@std@@V?$allocator@_W@2@@std@@AEAAAEAV01@_KV<lambda_3fa8b2c8193a0f3144fc4b1b8f243931>@@PEB_W@Z 00000001400098e0 f i MFCEditView.obj
 0001:00008a40       ??1?$_Matcher@V?$_String_const_iterator@V?$_String_val@U?$_Simple_types@_W@std@@@std@@@std@@_WV?$regex_traits@_W@2@V12@@std@@QEAA@XZ 0000000140009a40 f i MFCEditView.obj
 0001:00008ac0       ??1?$_Tgt_state_t@V?$_String_const_iterator@V?$_String_val@U?$_Simple_types@_W@std@@@std@@@std@@@std@@QEAA@XZ 0000000140009ac0 f i MFCEditView.obj
 0001:00008b70       ??1?$_Bt_state_t@V?$_String_const_iterator@V?$_String_val@U?$_Simple_types@_W@std@@@std@@@std@@@std@@QEAA@XZ 0000000140009b70 f i MFCEditView.obj
 0001:00008bd0       ??0?$_Matcher@V?$_String_const_iterator@V?$_String_val@U?$_Simple_types@_W@std@@@std@@@std@@_WV?$regex_traits@_W@2@V12@@std@@QEAA@V?$_String_const_iterator@V?$_String_val@U?$_Simple_types@_W@std@@@std@@@1@0AEBV?$regex_traits@_W@1@PEAV_Root_node@1@IW4syntax_option_type@regex_constants@1@W4match_flag_type@61@@Z 0000000140009bd0 f i MFCEditView.obj
 0001:00008d20       ??1sentry@?$basic_ostream@DU?$char_traits@D@std@@@std@@QEAA@XZ 0000000140009d20 f i MFCEditView.obj
 0001:00008d60       ?_Delete_this@?$_Ref_count_obj2@Ust@?1??Value@CVARIANTTool@@IEAA?AUtagVARIANT@@U4@0@Z@@std@@EEAAXXZ 0000000140009d60 f i MFCEditView.obj
 0001:00008d80       ?_Destroy@?$_Ref_count_obj2@Ust@?1??Value@CVARIANTTool@@IEAA?AUtagVARIANT@@U4@0@Z@@std@@EEAAXXZ 0000000140009d80 f i MFCEditView.obj
 0001:00008df0       ?_Growmap@?$deque@V?$shared_ptr@Ust@?1??Value@CVARIANTTool@@IEAA?AUtagVARIANT@@U4@0@Z@@std@@V?$allocator@V?$shared_ptr@Ust@?1??Value@CVARIANTTool@@IEAA?AUtagVARIANT@@U4@0@Z@@std@@@2@@std@@AEAAX_K@Z 0000000140009df0 f i MFCEditView.obj
 0001:00008fe0       ?_Buy_nonzero@?$vector@HV?$allocator@H@std@@@std@@AEAAX_K@Z 0000000140009fe0 f i MFCEditView.obj
 0001:00009080       ??1?$vector@U_Loop_vals_t@std@@V?$allocator@U_Loop_vals_t@std@@@2@@std@@QEAA@XZ 000000014000a080 f i MFCEditView.obj
 0001:000090e0       ??1?$_Vb_val@V?$allocator@_N@std@@@std@@QEAA@XZ 000000014000a0e0 f i MFCEditView.obj
 0001:000090e0       ??1?$vector@_NV?$allocator@_N@std@@@std@@QEAA@XZ 000000014000a0e0 f i MFCEditView.obj
 0001:00009140       ??_E?$_Ref_count_obj2@Ust@?1??Value@CVARIANTTool@@IEAA?AUtagVARIANT@@U4@0@Z@@std@@UEAAPEAXI@Z 000000014000a140 f i * CIL library *:* CIL module *
 0001:00009140       ??_G?$_Ref_count_obj2@Ust@?1??Value@CVARIANTTool@@IEAA?AUtagVARIANT@@U4@0@Z@@std@@UEAAPEAXI@Z 000000014000a140 f i MFCEditView.obj
 0001:00009170       ?_Xlength@?$vector@DV?$allocator@D@std@@@std@@CAXXZ 000000014000a170 f i MFCEditView.obj
 0001:00009170       ?_Xlength@?$vector@HV?$allocator@H@std@@@std@@CAXXZ 000000014000a170 f i MFCEditView.obj
 0001:00009170       ?_Xlength@?$vector@IV?$allocator@I@std@@@std@@CAXXZ 000000014000a170 f i MFCEditView.obj
 0001:00009170       ?_Xlength@?$vector@U_Grp_t@?$_Tgt_state_t@V?$_String_const_iterator@V?$_String_val@U?$_Simple_types@_W@std@@@std@@@std@@@std@@V?$allocator@U_Grp_t@?$_Tgt_state_t@V?$_String_const_iterator@V?$_String_val@U?$_Simple_types@_W@std@@@std@@@std@@@std@@@3@@std@@CAXXZ 000000014000a170 f i MFCEditView.obj
 0001:00009170       ?_Xlength@?$vector@U_Loop_vals_t@std@@V?$allocator@U_Loop_vals_t@std@@@2@@std@@CAXXZ 000000014000a170 f i MFCEditView.obj
 0001:00009170       ?_Xlength@?$vector@V?$basic_string@_WU?$char_traits@_W@std@@V?$allocator@_W@2@@std@@V?$allocator@V?$basic_string@_WU?$char_traits@_W@std@@V?$allocator@_W@2@@std@@@2@@std@@CAXXZ 000000014000a170 f i MFCEditView.obj
 0001:00009170       ?_Xlength@?$vector@V?$sub_match@V?$_String_const_iterator@V?$_String_val@U?$_Simple_types@_W@std@@@std@@@std@@@std@@V?$allocator@V?$sub_match@V?$_String_const_iterator@V?$_String_val@U?$_Simple_types@_W@std@@@std@@@std@@@std@@@2@@std@@CAXXZ 000000014000a170 f i MFCEditView.obj
 0001:00009170       ?_Xlength@?$vector@V_variant_t@@V?$allocator@V_variant_t@@@std@@@std@@CAXXZ 000000014000a170 f i MFCEditView.obj
 0001:00009170       ?_Xlength@?$vector@_WV?$allocator@_W@std@@@std@@CAXXZ 000000014000a170 f i MFCEditView.obj
 0001:00009190       ?_Xlen@?$deque@V?$shared_ptr@Ust@?1??Value@CVARIANTTool@@IEAA?AUtagVARIANT@@U4@0@Z@@std@@V?$allocator@V?$shared_ptr@Ust@?1??Value@CVARIANTTool@@IEAA?AUtagVARIANT@@U4@0@Z@@std@@@2@@std@@CAXXZ 000000014000a190 f i MFCEditView.obj
 0001:000091b0       ??$_Insert_string@_WU?$char_traits@_W@std@@_K@std@@YAAEAV?$basic_ostream@_WU?$char_traits@_W@std@@@0@AEAV10@QEB_W_K@Z 000000014000a1b0 f i MFCEditView.obj
 0001:00009380       ??$_Emplace_reallocate@AEBV_variant_t@@@?$vector@V_variant_t@@V?$allocator@V_variant_t@@@std@@@std@@AEAAPEAV_variant_t@@QEAV2@AEBV2@@Z 000000014000a380 f i MFCEditView.obj
 0001:000096d0       ??$_Emplace_reallocate@V?$basic_string@_WU?$char_traits@_W@std@@V?$allocator@_W@2@@std@@@?$vector@V?$basic_string@_WU?$char_traits@_W@std@@V?$allocator@_W@2@@std@@V?$allocator@V?$basic_string@_WU?$char_traits@_W@std@@V?$allocator@_W@2@@std@@@2@@std@@AEAAPEAV?$basic_string@_WU?$char_traits@_W@std@@V?$allocator@_W@2@@1@QEAV21@$$QEAV21@@Z 000000014000a6d0 f i MFCEditView.obj
 0001:00009980       ?_Skip@?$_Matcher@V?$_String_const_iterator@V?$_String_val@U?$_Simple_types@_W@std@@@std@@@std@@_WV?$regex_traits@_W@2@V12@@std@@QEAA?AV?$_String_const_iterator@V?$_String_val@U?$_Simple_types@_W@std@@@std@@@2@V32@0PEAV_Node_base@2@@Z 000000014000a980 f i MFCEditView.obj
 0001:00009d30       ??$_Match@V?$allocator@V?$sub_match@V?$_String_const_iterator@V?$_String_val@U?$_Simple_types@_W@std@@@std@@@std@@@std@@@std@@@?$_Matcher@V?$_String_const_iterator@V?$_String_val@U?$_Simple_types@_W@std@@@std@@@std@@_WV?$regex_traits@_W@2@V12@@std@@QEAA_NPEAV?$match_results@V?$_String_const_iterator@V?$_String_val@U?$_Simple_types@_W@std@@@std@@@std@@V?$allocator@V?$sub_match@V?$_String_const_iterator@V?$_String_val@U?$_Simple_types@_W@std@@@std@@@std@@@std@@@2@@1@_N@Z 000000014000ad30 f i MFCEditView.obj
 0001:00009f50       ??$use_facet@V?$collate@_W@std@@@std@@YAAEBV?$collate@_W@0@AEBVlocale@0@@Z 000000014000af50 f i MFCEditView.obj
 0001:0000a140       ??1?$_Parser@PEB_W_WV?$regex_traits@_W@std@@@std@@QEAA@XZ 000000014000b140 f i MFCEditView.obj
 0001:0000a1a0       ?_Resize@?$match_results@V?$_String_const_iterator@V?$_String_val@U?$_Simple_types@_W@std@@@std@@@std@@V?$allocator@V?$sub_match@V?$_String_const_iterator@V?$_String_val@U?$_Simple_types@_W@std@@@std@@@std@@@std@@@2@@std@@QEAAXI@Z 000000014000b1a0 f i MFCEditView.obj
 0001:0000a250       ?resize@?$vector@_NV?$allocator@_N@std@@@std@@QEAAX_K_N@Z 000000014000b250 f i MFCEditView.obj
 0001:0000a410       ?translate@?$_Regex_traits@_W@std@@QEBA_W_W@Z 000000014000b410 f i MFCEditView.obj
 0001:0000a4c0       ??_E?$_Node_class@_WV?$regex_traits@_W@std@@@std@@UEAAPEAXI@Z 000000014000b4c0 f i * CIL library *:* CIL module *
 0001:0000a4c0       ??_G?$_Node_class@_WV?$regex_traits@_W@std@@@std@@UEAAPEAXI@Z 000000014000b4c0 f i MFCEditView.obj
 0001:0000a5d0       ?erase@?$vector@_NV?$allocator@_N@std@@@std@@QEAA?AV?$_Vb_iterator@U?$_Wrap_alloc@V?$allocator@I@std@@@std@@@2@V?$_Vb_const_iterator@U?$_Wrap_alloc@V?$allocator@I@std@@@std@@@2@0@Z 000000014000b5d0 f i MFCEditView.obj
 0001:0000a870       ?_Insert_x@?$vector@_NV?$allocator@_N@std@@@std@@QEAA_KV?$_Vb_const_iterator@U?$_Wrap_alloc@V?$allocator@I@std@@@std@@@2@_K@Z 000000014000b870 f i MFCEditView.obj
 0001:0000aaa0       ?_Xlen@?$vector@_NV?$allocator@_N@std@@@std@@SAXXZ 000000014000baa0 f i MFCEditView.obj
 0001:0000aac0       ?_Match_pat@?$_Matcher@V?$_String_const_iterator@V?$_String_val@U?$_Simple_types@_W@std@@@std@@@std@@_WV?$regex_traits@_W@2@V12@@std@@AEAA_NPEAV_Node_base@2@@Z 000000014000bac0 f i MFCEditView.obj
 0001:0000b280       ?_Compile@?$_Parser@PEB_W_WV?$regex_traits@_W@std@@@std@@QEAAPEAV_Root_node@2@XZ 000000014000c280 f i MFCEditView.obj
 0001:0000b4b0       ??$_Compare@V?$_String_const_iterator@V?$_String_val@U?$_Simple_types@_W@std@@@std@@@std@@PEB_WV?$regex_traits@_W@2@@std@@YA?AV?$_String_const_iterator@V?$_String_val@U?$_Simple_types@_W@std@@@std@@@0@V10@0PEB_W1AEBV?$regex_traits@_W@0@W4syntax_option_type@regex_constants@0@@Z 000000014000c4b0 f i MFCEditView.obj
 0001:0000b640       ??$_Lookup_equiv@_WV?$regex_traits@_W@std@@@std@@YA_NGPEBU?$_Sequence@_W@0@AEBV?$regex_traits@_W@0@@Z 000000014000c640 f i MFCEditView.obj
 0001:0000ba00       ??$_Resize_reallocate@U_Value_init_tag@std@@@?$vector@U_Loop_vals_t@std@@V?$allocator@U_Loop_vals_t@std@@@2@@std@@AEAAX_KAEBU_Value_init_tag@1@@Z 000000014000ca00 f i MFCEditView.obj
 0001:0000bb70       ??$fill_n@V?$_Vb_iterator@U?$_Wrap_alloc@V?$allocator@I@std@@@std@@@std@@_K_N@std@@YA?AV?$_Vb_iterator@U?$_Wrap_alloc@V?$allocator@I@std@@@std@@@0@V10@_KAEB_N@Z 000000014000cb70 f i MFCEditView.obj
 0001:0000bcc0       ??0?$_Bt_state_t@V?$_String_const_iterator@V?$_String_val@U?$_Simple_types@_W@std@@@std@@@std@@@std@@QEAA@AEBV01@@Z 000000014000ccc0 f i MFCEditView.obj
 0001:0000bd70       ??1?$_Uninitialized_backout_al@V?$allocator@V_variant_t@@@std@@@std@@QEAA@XZ 000000014000cd70 f i MFCEditView.obj
 0001:0000bdb0       ??1?$_Tidy_guard@V?$_Builder@PEB_W_WV?$regex_traits@_W@std@@@std@@@std@@QEAA@XZ 000000014000cdb0 f i MFCEditView.obj
 0001:0000be10       ?_Do_if@?$_Matcher@V?$_String_const_iterator@V?$_String_val@U?$_Simple_types@_W@std@@@std@@@std@@_WV?$regex_traits@_W@2@V12@@std@@AEAA_NPEAV_Node_if@2@@Z 000000014000ce10 f i MFCEditView.obj
 0001:0000c1c0       ?_Do_rep@?$_Matcher@V?$_String_const_iterator@V?$_String_val@U?$_Simple_types@_W@std@@@std@@@std@@_WV?$regex_traits@_W@2@V12@@std@@AEAA_NPEAV_Node_rep@2@_NH@Z 000000014000d1c0 f i MFCEditView.obj
 0001:0000c480       ?_Do_class@?$_Matcher@V?$_String_const_iterator@V?$_String_val@U?$_Simple_types@_W@std@@@std@@@std@@_WV?$regex_traits@_W@2@V12@@std@@AEAA_NPEAV_Node_base@2@@Z 000000014000d480 f i MFCEditView.obj
 0001:0000c6e0       ?_Error@?$_Parser@PEB_W_WV?$regex_traits@_W@std@@@std@@AEAAXW4error_type@regex_constants@2@@Z 000000014000d6e0 f i MFCEditView.obj
 0001:0000c6f0       ?_Trans@?$_Parser@PEB_W_WV?$regex_traits@_W@std@@@std@@AEAAXXZ 000000014000d6f0 f i MFCEditView.obj
 0001:0000c9d0       ?_Disjunction@?$_Parser@PEB_W_WV?$regex_traits@_W@std@@@std@@AEAAXXZ 000000014000d9d0 f i MFCEditView.obj
 0001:0000cc50       ?_End_group@?$_Builder@PEB_W_WV?$regex_traits@_W@std@@@std@@QEAAXPEAV_Node_base@2@@Z 000000014000dc50 f i MFCEditView.obj
 0001:0000cd10       ??$_Compare@V?$_String_const_iterator@V?$_String_val@U?$_Simple_types@_W@std@@@std@@@std@@V12@V?$regex_traits@_W@2@@std@@YA?AV?$_String_const_iterator@V?$_String_val@U?$_Simple_types@_W@std@@@std@@@0@V10@000AEBV?$regex_traits@_W@0@W4syntax_option_type@regex_constants@0@@Z 000000014000dd10 f i MFCEditView.obj
 0001:0000ced0       ??$transform_primary@V?$_String_iterator@V?$_String_val@U?$_Simple_types@_W@std@@@std@@@std@@@?$_Regex_traits@_W@std@@QEBA?AV?$basic_string@_WU?$char_traits@_W@std@@V?$allocator@_W@2@@1@V?$_String_iterator@V?$_String_val@U?$_Simple_types@_W@std@@@std@@@1@0@Z 000000014000ded0 f i MFCEditView.obj
 0001:0000d0f0       ??$_Resize_reallocate@U_Value_init_tag@std@@@?$vector@U_Grp_t@?$_Tgt_state_t@V?$_String_const_iterator@V?$_String_val@U?$_Simple_types@_W@std@@@std@@@std@@@std@@V?$allocator@U_Grp_t@?$_Tgt_state_t@V?$_String_const_iterator@V?$_String_val@U?$_Simple_types@_W@std@@@std@@@std@@@std@@@3@@std@@AEAAX_KAEBU_Value_init_tag@1@@Z 000000014000e0f0 f i MFCEditView.obj
 0001:0000d280       ??$_Resize_reallocate@U_Value_init_tag@std@@@?$vector@V?$sub_match@V?$_String_const_iterator@V?$_String_val@U?$_Simple_types@_W@std@@@std@@@std@@@std@@V?$allocator@V?$sub_match@V?$_String_const_iterator@V?$_String_val@U?$_Simple_types@_W@std@@@std@@@std@@@std@@@2@@std@@AEAAX_KAEBU_Value_init_tag@1@@Z 000000014000e280 f i MFCEditView.obj
 0001:0000d460       ??$_Resize_reallocate@I@?$vector@IV?$allocator@I@std@@@std@@AEAAX_KAEBI@Z 000000014000e460 f i MFCEditView.obj
 0001:0000d5f0       ??$_Assign_counted_range@PEAU_Grp_t@?$_Tgt_state_t@V?$_String_const_iterator@V?$_String_val@U?$_Simple_types@_W@std@@@std@@@std@@@std@@@?$vector@U_Grp_t@?$_Tgt_state_t@V?$_String_const_iterator@V?$_String_val@U?$_Simple_types@_W@std@@@std@@@std@@@std@@V?$allocator@U_Grp_t@?$_Tgt_state_t@V?$_String_const_iterator@V?$_String_val@U?$_Simple_types@_W@std@@@std@@@std@@@std@@@3@@std@@AEAAXPEAU_Grp_t@?$_Tgt_state_t@V?$_String_const_iterator@V?$_String_val@U?$_Simple_types@_W@std@@@std@@@std@@@1@_K@Z 000000014000e5f0 f i MFCEditView.obj
 0001:0000d740       ??$_Assign_counted_range@PEAI@?$vector@IV?$allocator@I@std@@@std@@AEAAXPEAI_K@Z 000000014000e740 f i MFCEditView.obj
 0001:0000d880       ??0?$_Tgt_state_t@V?$_String_const_iterator@V?$_String_val@U?$_Simple_types@_W@std@@@std@@@std@@@std@@QEAA@AEBV01@@Z 000000014000e880 f i MFCEditView.obj
 0001:0000d970       ?_Buy_raw@?$vector@U_Grp_t@?$_Tgt_state_t@V?$_String_const_iterator@V?$_String_val@U?$_Simple_types@_W@std@@@std@@@std@@@std@@V?$allocator@U_Grp_t@?$_Tgt_state_t@V?$_String_const_iterator@V?$_String_val@U?$_Simple_types@_W@std@@@std@@@std@@@std@@@3@@std@@AEAAX_K@Z 000000014000e970 f i MFCEditView.obj
 0001:0000da00       ?_Buy_raw@?$vector@IV?$allocator@I@std@@@std@@AEAAX_K@Z 000000014000ea00 f i MFCEditView.obj
 0001:0000da90       ?_Do_rep0@?$_Matcher@V?$_String_const_iterator@V?$_String_val@U?$_Simple_types@_W@std@@@std@@@std@@_WV?$regex_traits@_W@2@V12@@std@@AEAA_NPEAV_Node_rep@2@_N@Z 000000014000ea90 f i MFCEditView.obj
 0001:0000dec0       ?_Alternative@?$_Parser@PEB_W_WV?$regex_traits@_W@std@@@std@@AEAA_NXZ 000000014000eec0 f i MFCEditView.obj
 0001:0000e540       ?_New_node@?$_Builder@PEB_W_WV?$regex_traits@_W@std@@@std@@AEAAPEAV_Node_base@2@W4_Node_type@2@@Z 000000014000f540 f i MFCEditView.obj
 0001:0000e5e0       ??$_Copy_vbool@V?$_Vb_iterator@U?$_Wrap_alloc@V?$allocator@I@std@@@std@@@std@@V12@@std@@YA?AV?$_Vb_iterator@U?$_Wrap_alloc@V?$allocator@I@std@@@std@@@0@V10@00@Z 000000014000f5e0 f i MFCEditView.obj
 0001:0000ea50       ?_CharacterClass@?$_Parser@PEB_W_WV?$regex_traits@_W@std@@@std@@AEAAXXZ 000000014000fa50 f i MFCEditView.obj
 0001:0000ebf0       ?_AtomEscape@?$_Parser@PEB_W_WV?$regex_traits@_W@std@@@std@@AEAAXXZ 000000014000fbf0 f i MFCEditView.obj
 0001:0000ed80       ?_Wrapped_disjunction@?$_Parser@PEB_W_WV?$regex_traits@_W@std@@@std@@AEAA_NXZ 000000014000fd80 f i MFCEditView.obj
 0001:0000f080       ?_Quantifier@?$_Parser@PEB_W_WV?$regex_traits@_W@std@@@std@@AEAAXXZ 0000000140010080 f i MFCEditView.obj
 0001:0000f310       ?_Add_char@?$_Builder@PEB_W_WV?$regex_traits@_W@std@@@std@@QEAAX_W@Z 0000000140010310 f i MFCEditView.obj
 0001:0000f450       ?_DecimalDigits@?$_Parser@PEB_W_WV?$regex_traits@_W@std@@@std@@AEAA_NW4error_type@regex_constants@2@@Z 0000000140010450 f i MFCEditView.obj
 0001:0000f560       ?_CharacterClassEscape@?$_Parser@PEB_W_WV?$regex_traits@_W@std@@@std@@AEAA_N_N@Z 0000000140010560 f i MFCEditView.obj
 0001:0000f670       ?_ClassRanges@?$_Parser@PEB_W_WV?$regex_traits@_W@std@@@std@@AEAAXXZ 0000000140010670 f i MFCEditView.obj
 0001:0000f950       ?_CharacterEscape@?$_Parser@PEB_W_WV?$regex_traits@_W@std@@@std@@AEAA_NXZ 0000000140010950 f i MFCEditView.obj
 0001:0000ff70       ?_Do_assert_group@?$_Parser@PEB_W_WV?$regex_traits@_W@std@@@std@@AEAAX_N@Z 0000000140010f70 f i MFCEditView.obj
 0001:000100a0       ?_Add_class@?$_Builder@PEB_W_WV?$regex_traits@_W@std@@@std@@QEAAXXZ 00000001400110a0 f i MFCEditView.obj
 0001:00010150       ?_Add_rep@?$_Builder@PEB_W_WV?$regex_traits@_W@std@@@std@@QEAAXHH_N@Z 0000000140011150 f i MFCEditView.obj
 0001:000104e0       ??_E?$_Node_str@_W@std@@UEAAPEAXI@Z 00000001400114e0 f i * CIL library *:* CIL module *
 0001:000104e0       ??_G?$_Node_str@_W@std@@UEAAPEAXI@Z 00000001400114e0 f i MFCEditView.obj
 0001:00010530       ?_HexDigits@?$_Parser@PEB_W_WV?$regex_traits@_W@std@@@std@@AEAAXH@Z 0000000140011530 f i MFCEditView.obj
 0001:00010650       ?_ClassAtom@?$_Parser@PEB_W_WV?$regex_traits@_W@std@@@std@@AEAA?AW4_Prs_ret@2@XZ 0000000140011650 f i MFCEditView.obj
 0001:00010a40       ?_Add_range@?$_Builder@PEB_W_WV?$regex_traits@_W@std@@@std@@QEAAX_W0@Z 0000000140011a40 f i MFCEditView.obj
 0001:00010bf0       ?_Add_named_class@?$_Builder@PEB_W_WV?$regex_traits@_W@std@@@std@@QEAAXF_N@Z 0000000140011bf0 f i MFCEditView.obj
 0001:00010ce0       ?_Add_char_to_array@?$_Builder@PEB_W_WV?$regex_traits@_W@std@@@std@@AEAAX_W@Z 0000000140011ce0 f i MFCEditView.obj
 0001:00010da0       ??$lookup_classname@PEB_W@?$_Regex_traits@_W@std@@QEBAFPEB_W0_N@Z 0000000140011da0 f i MFCEditView.obj
 0001:00010f10       ??1?$unique_ptr@V_Facet_base@std@@U?$default_delete@V_Facet_base@std@@@2@@std@@QEAA@XZ 0000000140011f10 f i MFCEditView.obj
 0001:00010f10       ??1?$unique_ptr@V_Node_assert@std@@U?$default_delete@V_Node_assert@std@@@2@@std@@QEAA@XZ 0000000140011f10 f i MFCEditView.obj
 0001:00010f30       ?_Do_ex_class@?$_Parser@PEB_W_WV?$regex_traits@_W@std@@@std@@AEAAXW4_Meta_type@2@@Z 0000000140011f30 f i MFCEditView.obj
 0001:00011190       ?_Add_equiv@?$_Builder@PEB_W_WV?$regex_traits@_W@std@@@std@@QEAAXPEB_W0_J@Z 0000000140012190 f i MFCEditView.obj
 0001:00011370       ?_Char_to_elts@?$_Builder@PEB_W_WV?$regex_traits@_W@std@@@std@@AEAAXPEB_W0_JPEAPEAU?$_Sequence@_W@2@@Z 0000000140012370 f i MFCEditView.obj
 0001:00011460       ??$transform_primary@PEA_W@?$_Regex_traits@_W@std@@QEBA?AV?$basic_string@_WU?$char_traits@_W@std@@V?$allocator@_W@2@@1@PEA_W0@Z 0000000140012460 f i MFCEditView.obj
 0001:00011460       ??$transform_primary@PEB_W@?$_Regex_traits@_W@std@@QEBA?AV?$basic_string@_WU?$char_traits@_W@std@@V?$allocator@_W@2@@1@PEB_W0@Z 0000000140012460 f i MFCEditView.obj
 0001:00011668       ??_E?$basic_stringstream@_WU?$char_traits@_W@std@@V?$allocator@_W@2@@std@@$4PPPPPPPM@A@EAAPEAXI@Z 0000000140012668 f i MFCEditView.obj
 0001:00011674       ??_E?$basic_stringstream@DU?$char_traits@D@std@@V?$allocator@D@2@@std@@$4PPPPPPPM@A@EAAPEAXI@Z 0000000140012674 f i MFCEditView.obj
 0001:00011680       ?accHitTest@CFormView@@UEAAJJJPEAUtagVARIANT@@@Z 0000000140012680 f i MFCEditView.obj
 0001:00011690       ?accLocation@CFormView@@UEAAJPEAJ000UtagVARIANT@@@Z 0000000140012690 f i MFCEditView.obj
 0001:000116e0       ?get_accName@CFormView@@UEAAJUtagVARIANT@@PEAPEA_W@Z 00000001400126e0 f i MFCEditView.obj
 0001:00011710       ?get_accChild@CFormView@@UEAAJUtagVARIANT@@PEAPEAUIDispatch@@@Z 0000000140012710 f i MFCEditView.obj
 0001:00011740       ?get_accChildCount@CFormView@@UEAAJPEAJ@Z 0000000140012740 f i MFCEditView.obj
 0001:00011760       ?name@locale@std@@QEBA?AV?$basic_string@DU?$char_traits@D@std@@V?$allocator@D@2@@2@XZ 0000000140012760 f i MFCEditView.obj
 0001:00011990       ??0bad_cast@std@@QEAA@XZ   0000000140012990 f i MFCEditView.obj
 0001:000119c0       ??1bad_array_new_length@std@@UEAA@XZ 00000001400129c0 f i MFCEditView.obj
 0001:000119c0       ??1bad_cast@std@@UEAA@XZ   00000001400129c0 f i MFCEditView.obj
 0001:000119e0       ??_Ebad_alloc@std@@UEAAPEAXI@Z 00000001400129e0 f i * CIL library *:* CIL module *
 0001:000119e0       ??_Ebad_array_new_length@std@@UEAAPEAXI@Z 00000001400129e0 f i * CIL library *:* CIL module *
 0001:000119e0       ??_Ebad_cast@std@@UEAAPEAXI@Z 00000001400129e0 f i * CIL library *:* CIL module *
 0001:000119e0       ??_Eexception@std@@UEAAPEAXI@Z 00000001400129e0 f i * CIL library *:* CIL module *
 0001:000119e0       ??_Gbad_alloc@std@@UEAAPEAXI@Z 00000001400129e0 f i MFCEditView.obj
 0001:000119e0       ??_Gbad_array_new_length@std@@UEAAPEAXI@Z 00000001400129e0 f i MFCEditView.obj
 0001:000119e0       ??_Gbad_cast@std@@UEAAPEAXI@Z 00000001400129e0 f i MFCEditView.obj
 0001:000119e0       ??_Gexception@std@@UEAAPEAXI@Z 00000001400129e0 f i MFCEditView.obj
 0001:00011a30       ??0bad_cast@std@@QEAA@AEBV01@@Z 0000000140012a30 f i MFCEditView.obj
 0001:00011a70       ?_Throw_bad_cast@std@@YAXXZ 0000000140012a70 f i MFCEditView.obj
 0001:00011a90       ??1locale@std@@QEAA@XZ     0000000140012a90 f i MFCEditView.obj
 0001:00011ac0       ??HATL@@YA?AV?$CStringT@_WV?$StrTraitMFC_DLL@_WV?$ChTraitsCRT@_W@ATL@@@@@0@PEB_WAEBV10@@Z 0000000140012ac0 f i MFCEditView.obj
 0001:00011b30       ??1CWaitCursor@@QEAA@XZ    0000000140012b30 f i MFCEditView.obj
 0001:00011b80       ??1?$basic_string@DU?$char_traits@D@std@@V?$allocator@D@2@@std@@QEAA@XZ 0000000140012b80 f i MFCEditView.obj
 0001:00011be0       ??4?$basic_string@_WU?$char_traits@_W@std@@V?$allocator@_W@2@@std@@QEAAAEAV01@$$QEAV01@@Z 0000000140012be0 f i MFCEditView.obj
 0001:00011c80       ??1_variant_t@@QEAA@XZ     0000000140012c80 f i MFCEditView.obj
 0001:00011c90       ?_Free@_bstr_t@@AEAAXXZ    0000000140012c90 f i MFCEditView.obj
 0001:00011d00       ??1_bstr_t@@QEAA@XZ        0000000140012d00 f i MFCEditView.obj
 0001:00011d10       ??1CFont@@UEAA@XZ          0000000140012d10 f i MFCEditView.obj
 0001:00011d20       ??_ECFont@@UEAAPEAXI@Z     0000000140012d20 f i * CIL library *:* CIL module *
 0001:00011d20       ??_GCFont@@UEAAPEAXI@Z     0000000140012d20 f i MFCEditView.obj
 0001:00011d80       ??HATL@@YA?AV?$CStringT@_WV?$StrTraitMFC_DLL@_WV?$ChTraitsCRT@_W@ATL@@@@@0@AEBV10@PEB_W@Z 0000000140012d80 f i MFCEditView.obj
 0001:00011df0       ??1?$basic_string@_WU?$char_traits@_W@std@@V?$allocator@_W@2@@std@@QEAA@XZ 0000000140012df0 f i MFCEditView.obj
 0001:00011df0       ?_Tidy_deallocate@?$basic_string@_WU?$char_traits@_W@std@@V?$allocator@_W@2@@std@@AEAAXXZ 0000000140012df0 f i MFCEditView.obj
 0001:00011e60       ?_Xlen_string@std@@YAXXZ   0000000140012e60 f i MFCEditView.obj
 0001:00011e80       ??0bad_array_new_length@std@@QEAA@XZ 0000000140012e80 f i MFCEditView.obj
 0001:00011eb0       ??0bad_array_new_length@std@@QEAA@AEBV01@@Z 0000000140012eb0 f i MFCEditView.obj
 0001:00011ef0       ??0bad_alloc@std@@QEAA@AEBV01@@Z 0000000140012ef0 f i MFCEditView.obj
 0001:00011f30       ??0exception@std@@QEAA@AEBV01@@Z 0000000140012f30 f i MFCEditView.obj
 0001:00011f70       ?_Throw_bad_array_new_length@std@@YAXXZ 0000000140012f70 f i MFCEditView.obj
 0001:00011f90       ??$_Construct@$00PEB_W@?$basic_string@_WU?$char_traits@_W@std@@V?$allocator@_W@2@@std@@AEAAXQEB_W_K@Z 0000000140012f90 f i MFCEditView.obj
 0001:000120c0       ??0?$basic_string@_WU?$char_traits@_W@std@@V?$allocator@_W@2@@std@@QEAA@QEB_W@Z 00000001400130c0 f i MFCEditView.obj
 0001:00012100       ??_ECComboBox@@UEAAPEAXI@Z 0000000140013100 f i * CIL library *:* CIL module *
 0001:00012100       ??_GCComboBox@@UEAAPEAXI@Z 0000000140013100 f i MFCEditView.obj
 0001:00012150       ?what@exception@std@@UEBAPEBDXZ 0000000140013150 f i MFCEditView.obj
 0001:00012170       ?_AtlInitializeCriticalSectionEx@ATL@@YAHPEAU_RTL_CRITICAL_SECTION@@KK@Z 0000000140013170 f i pch.obj
 0001:00012177       ??3@YAXPEAX@Z              0000000140013177 f   mfc140u:mfc140u.dll
 0001:0001217d       ??2@YAPEAX_K@Z             000000014001317d f   mfc140u:mfc140u.dll
 0001:00012183       ?GetThisMessageMap@CFrameWnd@@KAPEBUAFX_MSGMAP@@XZ 0000000140013183 f   mfc140u:mfc140u.dll
 0001:00012189       ?OnCmdMsg@CFrameWnd@@UEAAHIHPEAXPEAUAFX_CMDHANDLERINFO@@@Z 0000000140013189 f   mfc140u:mfc140u.dll
 0001:0001218f       ?OnFinalRelease@CWnd@@UEAAXXZ 000000014001318f f   mfc140u:mfc140u.dll
 0001:00012195       ?IsInvokeAllowed@CCmdTarget@@UEAAHJ@Z 0000000140013195 f   mfc140u:mfc140u.dll
 0001:0001219b       ?GetDispatchIID@CCmdTarget@@UEAAHPEAU_GUID@@@Z 000000014001319b f   mfc140u:mfc140u.dll
 0001:000121a1       ?GetTypeInfoCount@CCmdTarget@@UEAAIXZ 00000001400131a1 f   mfc140u:mfc140u.dll
 0001:000121a7       ?GetTypeLibCache@CCmdTarget@@UEAAPEAVCTypeLibCache@@XZ 00000001400131a7 f   mfc140u:mfc140u.dll
 0001:000121ad       ?GetTypeLib@CCmdTarget@@UEAAJKPEAPEAUITypeLib@@@Z 00000001400131ad f   mfc140u:mfc140u.dll
 0001:000121b3       ?GetCommandMap@CCmdTarget@@MEBAPEBUAFX_OLECMDMAP@@XZ 00000001400131b3 f   mfc140u:mfc140u.dll
 0001:000121b9       ?GetDispatchMap@CCmdTarget@@MEBAPEBUAFX_DISPMAP@@XZ 00000001400131b9 f   mfc140u:mfc140u.dll
 0001:000121bf       ?GetConnectionMap@CCmdTarget@@MEBAPEBUAFX_CONNECTIONMAP@@XZ 00000001400131bf f   mfc140u:mfc140u.dll
 0001:000121c5       ?GetInterfaceMap@CWnd@@MEBAPEBUAFX_INTERFACEMAP@@XZ 00000001400131c5 f   mfc140u:mfc140u.dll
 0001:000121cb       ?GetEventSinkMap@CCmdTarget@@MEBAPEBUAFX_EVENTSINKMAP@@XZ 00000001400131cb f   mfc140u:mfc140u.dll
 0001:000121d1       ?OnCreateAggregates@CCmdTarget@@UEAAHXZ 00000001400131d1 f   mfc140u:mfc140u.dll
 0001:000121d7       ?GetInterfaceHook@CCmdTarget@@UEAAPEAUIUnknown@@PEBX@Z 00000001400131d7 f   mfc140u:mfc140u.dll
 0001:000121dd       ?GetExtraConnectionPoints@CCmdTarget@@MEAAHPEAVCPtrArray@@@Z 00000001400131dd f   mfc140u:mfc140u.dll
 0001:000121e3       ?GetConnectionHook@CCmdTarget@@MEAAPEAUIConnectionPoint@@AEBU_GUID@@@Z 00000001400131e3 f   mfc140u:mfc140u.dll
 0001:000121e9       ?PreSubclassWindow@CWnd@@UEAAXXZ 00000001400131e9 f   mfc140u:mfc140u.dll
 0001:000121ef       ?Create@CWnd@@UEAAHPEB_W0KAEBUtagRECT@@PEAV1@IPEAUCCreateContext@@@Z 00000001400131ef f   mfc140u:mfc140u.dll
 0001:000121f5       ?CreateEx@CWnd@@UEAAHKPEB_W0KAEBUtagRECT@@PEAV1@IPEAX@Z 00000001400131f5 f   mfc140u:mfc140u.dll
 0001:000121fb       ?CreateEx@CWnd@@UEAAHKPEB_W0KHHHHPEAUHWND__@@PEAUHMENU__@@PEAX@Z 00000001400131fb f   mfc140u:mfc140u.dll
 0001:00012201       ?DestroyWindow@CWnd@@UEAAHXZ 0000000140013201 f   mfc140u:mfc140u.dll
 0001:00012207       ?CalcWindowRect@CWnd@@UEAAXPEAUtagRECT@@I@Z 0000000140013207 f   mfc140u:mfc140u.dll
 0001:0001220d       ?GetMenu@CFrameWnd@@UEBAPEAVCMenu@@XZ 000000014001320d f   mfc140u:mfc140u.dll
 0001:00012213       ?SetMenu@CFrameWnd@@UEAAHPEAVCMenu@@@Z 0000000140013213 f   mfc140u:mfc140u.dll
 0001:00012219       ?OnToolHitTest@CWnd@@UEBA_JVCPoint@@PEAUtagTOOLINFOW@@@Z 0000000140013219 f   mfc140u:mfc140u.dll
 0001:0001221f       ?GetScrollBarCtrl@CWnd@@UEBAPEAVCScrollBar@@H@Z 000000014001321f f   mfc140u:mfc140u.dll
 0001:00012225       ?WinHelpW@CWnd@@UEAAX_KI@Z 0000000140013225 f   mfc140u:mfc140u.dll
 0001:0001222b       ?HtmlHelpW@CWnd@@UEAAX_KI@Z 000000014001322b f   mfc140u:mfc140u.dll
 0001:00012231       ?WinHelpInternal@CWnd@@UEAAX_KI@Z 0000000140013231 f   mfc140u:mfc140u.dll
 0001:00012237       ?ContinueModal@CWnd@@UEAAHXZ 0000000140013237 f   mfc140u:mfc140u.dll
 0001:0001223d       ?EndModalLoop@CWnd@@UEAAXH@Z 000000014001323d f   mfc140u:mfc140u.dll
 0001:00012243       ?OnDrawIconicThumbnailOrLivePreview@CWnd@@UEAAXAEAVCDC@@VCRect@@VCSize@@HAEAH@Z 0000000140013243 f   mfc140u:mfc140u.dll
 0001:00012249       ?EnsureStdObj@CWnd@@UEAAJXZ 0000000140013249 f   mfc140u:mfc140u.dll
 0001:0001224f       ?get_accParent@CWnd@@UEAAJPEAPEAUIDispatch@@@Z 000000014001324f f   mfc140u:mfc140u.dll
 0001:00012255       ?get_accChildCount@CWnd@@UEAAJPEAJ@Z 0000000140013255 f   mfc140u:mfc140u.dll
 0001:0001225b       ?get_accChild@CWnd@@UEAAJUtagVARIANT@@PEAPEAUIDispatch@@@Z 000000014001325b f   mfc140u:mfc140u.dll
 0001:00012261       ?get_accName@CWnd@@UEAAJUtagVARIANT@@PEAPEA_W@Z 0000000140013261 f   mfc140u:mfc140u.dll
 0001:00012267       ?get_accValue@CWnd@@UEAAJUtagVARIANT@@PEAPEA_W@Z 0000000140013267 f   mfc140u:mfc140u.dll
 0001:0001226d       ?get_accDescription@CWnd@@UEAAJUtagVARIANT@@PEAPEA_W@Z 000000014001326d f   mfc140u:mfc140u.dll
 0001:00012273       ?get_accRole@CWnd@@UEAAJUtagVARIANT@@PEAU2@@Z 0000000140013273 f   mfc140u:mfc140u.dll
 0001:00012279       ?get_accState@CWnd@@UEAAJUtagVARIANT@@PEAU2@@Z 0000000140013279 f   mfc140u:mfc140u.dll
 0001:0001227f       ?get_accHelp@CWnd@@UEAAJUtagVARIANT@@PEAPEA_W@Z 000000014001327f f   mfc140u:mfc140u.dll
 0001:00012285       ?get_accHelpTopic@CWnd@@UEAAJPEAPEA_WUtagVARIANT@@PEAJ@Z 0000000140013285 f   mfc140u:mfc140u.dll
 0001:0001228b       ?get_accKeyboardShortcut@CWnd@@UEAAJUtagVARIANT@@PEAPEA_W@Z 000000014001328b f   mfc140u:mfc140u.dll
 0001:00012291       ?get_accFocus@CWnd@@UEAAJPEAUtagVARIANT@@@Z 0000000140013291 f   mfc140u:mfc140u.dll
 0001:00012297       ?get_accSelection@CWnd@@UEAAJPEAUtagVARIANT@@@Z 0000000140013297 f   mfc140u:mfc140u.dll
 0001:0001229d       ?get_accDefaultAction@CWnd@@UEAAJUtagVARIANT@@PEAPEA_W@Z 000000014001329d f   mfc140u:mfc140u.dll
 0001:000122a3       ?accSelect@CWnd@@UEAAJJUtagVARIANT@@@Z 00000001400132a3 f   mfc140u:mfc140u.dll
 0001:000122a9       ?accLocation@CWnd@@UEAAJPEAJ000UtagVARIANT@@@Z 00000001400132a9 f   mfc140u:mfc140u.dll
 0001:000122af       ?accNavigate@CWnd@@UEAAJJUtagVARIANT@@PEAU2@@Z 00000001400132af f   mfc140u:mfc140u.dll
 0001:000122b5       ?accHitTest@CWnd@@UEAAJJJPEAUtagVARIANT@@@Z 00000001400132b5 f   mfc140u:mfc140u.dll
 0001:000122bb       ?accDoDefaultAction@CWnd@@UEAAJUtagVARIANT@@@Z 00000001400132bb f   mfc140u:mfc140u.dll
 0001:000122c1       ?put_accName@CWnd@@UEAAJUtagVARIANT@@PEA_W@Z 00000001400132c1 f   mfc140u:mfc140u.dll
 0001:000122c7       ?put_accValue@CWnd@@UEAAJUtagVARIANT@@PEA_W@Z 00000001400132c7 f   mfc140u:mfc140u.dll
 0001:000122cd       ?SetProxy@CWnd@@UEAAJPEAUIAccessibleProxy@@@Z 00000001400132cd f   mfc140u:mfc140u.dll
 0001:000122d3       ?CreateAccessibleProxy@CWnd@@UEAAJ_K_JPEA_J@Z 00000001400132d3 f   mfc140u:mfc140u.dll
 0001:000122d9       ?OnCommand@CFrameWnd@@MEAAH_K_J@Z 00000001400132d9 f   mfc140u:mfc140u.dll
 0001:000122df       ?OnNotify@CWnd@@MEAAH_K_JPEA_J@Z 00000001400132df f   mfc140u:mfc140u.dll
 0001:000122e5       ?GetSuperWndProcAddr@CWnd@@MEAAPEAP6A_JPEAUHWND__@@I_K_J@ZXZ 00000001400132e5 f   mfc140u:mfc140u.dll
 0001:000122eb       ?BeginModalState@CFrameWnd@@UEAAXXZ 00000001400132eb f   mfc140u:mfc140u.dll
 0001:000122f1       ?EndModalState@CFrameWnd@@UEAAXXZ 00000001400132f1 f   mfc140u:mfc140u.dll
 0001:000122f7       ?PreTranslateMessage@CFrameWnd@@UEAAHPEAUtagMSG@@@Z 00000001400132f7 f   mfc140u:mfc140u.dll
 0001:000122fd       ?OnAmbientProperty@CWnd@@UEAAHPEAVCOleControlSite@@JPEAUtagVARIANT@@@Z 00000001400132fd f   mfc140u:mfc140u.dll
 0001:00012303       ?WindowProc@CWnd@@MEAA_JI_K_J@Z 0000000140013303 f   mfc140u:mfc140u.dll
 0001:00012309       ?OnWndMsg@CWnd@@MEAAHI_K_JPEA_J@Z 0000000140013309 f   mfc140u:mfc140u.dll
 0001:0001230f       ?DefWindowProcW@CWnd@@MEAA_JI_K_J@Z 000000014001330f f   mfc140u:mfc140u.dll
 0001:00012315       ?PostNcDestroy@CFrameWnd@@MEAAXXZ 0000000140013315 f   mfc140u:mfc140u.dll
 0001:0001231b       ?OnChildNotify@CWnd@@MEAAHI_K_JPEA_J@Z 000000014001331b f   mfc140u:mfc140u.dll
 0001:00012321       ?OnTouchInputs@CWnd@@MEAAHIPEAUtagTOUCHINPUT@@@Z 0000000140013321 f   mfc140u:mfc140u.dll
 0001:00012327       ?OnTouchInput@CWnd@@MEAAHVCPoint@@HHPEAUtagTOUCHINPUT@@@Z 0000000140013327 f   mfc140u:mfc140u.dll
 0001:0001232d       ?GetGestureStatus@CWnd@@MEAAKVCPoint@@@Z 000000014001332d f   mfc140u:mfc140u.dll
 0001:00012333       ?OnGestureZoom@CWnd@@MEAAHVCPoint@@J@Z 0000000140013333 f   mfc140u:mfc140u.dll
 0001:00012339       ?OnGesturePan@CWnd@@MEAAHVCPoint@@0@Z 0000000140013339 f   mfc140u:mfc140u.dll
 0001:0001233f       ?OnGestureRotate@CWnd@@MEAAHVCPoint@@N@Z 000000014001333f f   mfc140u:mfc140u.dll
 0001:00012345       ?OnGestureTwoFingerTap@CWnd@@MEAAHVCPoint@@@Z 0000000140013345 f   mfc140u:mfc140u.dll
 0001:0001234b       ?OnGesturePressAndTap@CWnd@@MEAAHVCPoint@@J@Z 000000014001334b f   mfc140u:mfc140u.dll
 0001:00012351       ?ResizeDynamicLayout@CWnd@@MEAAXXZ 0000000140013351 f   mfc140u:mfc140u.dll
 0001:00012357       ?CheckAutoCenter@CWnd@@UEAAHXZ 0000000140013357 f   mfc140u:mfc140u.dll
 0001:0001235d       ?IsFrameWnd@CFrameWnd@@UEBAHXZ 000000014001335d f   mfc140u:mfc140u.dll
 0001:00012363       ?CreateControlContainer@CWnd@@MEAAHPEAPEAVCOleControlContainer@@@Z 0000000140013363 f   mfc140u:mfc140u.dll
 0001:00012369       ?CreateControlSite@CWnd@@MEAAHPEAVCOleControlContainer@@PEAPEAVCOleControlSite@@IAEBU_GUID@@@Z 0000000140013369 f   mfc140u:mfc140u.dll
 0001:0001236f       ?SetOccDialogInfo@CWnd@@MEAAHPEAU_AFX_OCC_DIALOG_INFO@@@Z 000000014001336f f   mfc140u:mfc140u.dll
 0001:00012375       ?GetOccDialogInfo@CWnd@@MEAAPEAU_AFX_OCC_DIALOG_INFO@@XZ 0000000140013375 f   mfc140u:mfc140u.dll
 0001:0001237b       ?Create@CFrameWnd@@UEAAHPEB_W0KAEBUtagRECT@@PEAVCWnd@@0KPEAUCCreateContext@@@Z 000000014001337b f   mfc140u:mfc140u.dll
 0001:00012381       ?LoadFrame@CFrameWnd@@UEAAHIKPEAVCWnd@@PEAUCCreateContext@@@Z 0000000140013381 f   mfc140u:mfc140u.dll
 0001:00012387       ?GetActiveDocument@CFrameWnd@@UEAAPEAVCDocument@@XZ 0000000140013387 f   mfc140u:mfc140u.dll
 0001:0001238d       ?GetActiveFrame@CFrameWnd@@UEAAPEAV1@XZ 000000014001338d f   mfc140u:mfc140u.dll
 0001:00012393       ?GetMessageString@CFrameWnd@@UEBAXIAEAV?$CStringT@_WV?$StrTraitMFC_DLL@_WV?$ChTraitsCRT@_W@ATL@@@@@ATL@@@Z 0000000140013393 f   mfc140u:mfc140u.dll
 0001:00012399       ?RecalcLayout@CFrameWnd@@UEAAXH@Z 0000000140013399 f   mfc140u:mfc140u.dll
 0001:0001239f       ?ActivateFrame@CFrameWnd@@UEAAXH@Z 000000014001339f f   mfc140u:mfc140u.dll
 0001:000123a5       ?SetMenuBarVisibility@CFrameWnd@@UEAAXK@Z 00000001400133a5 f   mfc140u:mfc140u.dll
 0001:000123ab       ?GetMenuBarVisibility@CFrameWnd@@UEBAKXZ 00000001400133ab f   mfc140u:mfc140u.dll
 0001:000123b1       ?SetMenuBarState@CFrameWnd@@UEAAHK@Z 00000001400133b1 f   mfc140u:mfc140u.dll
 0001:000123b7       ?GetMenuBarState@CFrameWnd@@UEBAKXZ 00000001400133b7 f   mfc140u:mfc140u.dll
 0001:000123bd       ?OnSetPreviewMode@CFrameWnd@@UEAAXHPEAUCPrintPreviewState@@@Z 00000001400133bd f   mfc140u:mfc140u.dll
 0001:000123c3       ?GetMessageBar@CFrameWnd@@UEAAPEAVCWnd@@XZ 00000001400133c3 f   mfc140u:mfc140u.dll
 0001:000123c9       ?NegotiateBorderSpace@CFrameWnd@@UEAAHIPEAUtagRECT@@@Z 00000001400133c9 f   mfc140u:mfc140u.dll
 0001:000123cf       ?OnCreateClient@CFrameWnd@@MEAAHPEAUtagCREATESTRUCTW@@PEAUCCreateContext@@@Z 00000001400133cf f   mfc140u:mfc140u.dll
 0001:000123d5       ?OnUpdateFrameTitle@CFrameWnd@@UEAAXH@Z 00000001400133d5 f   mfc140u:mfc140u.dll
 0001:000123db       ?OnUpdateFrameMenu@CFrameWnd@@UEAAXPEAUHMENU__@@@Z 00000001400133db f   mfc140u:mfc140u.dll
 0001:000123e1       ?GetDefaultAccelerator@CFrameWnd@@UEAAPEAUHACCEL__@@XZ 00000001400133e1 f   mfc140u:mfc140u.dll
 0001:000123e7       ?DelayUpdateFrameMenu@CFrameWnd@@UEAAXPEAUHMENU__@@@Z 00000001400133e7 f   mfc140u:mfc140u.dll
 0001:000123ed       ?ExitHelpMode@CFrameWnd@@UEAAXXZ 00000001400133ed f   mfc140u:mfc140u.dll
 0001:000123f3       ?OnShowMenuBar@CFrameWnd@@MEAAXXZ 00000001400133f3 f   mfc140u:mfc140u.dll
 0001:000123f9       ?OnHideMenuBar@CFrameWnd@@MEAAXXZ 00000001400133f9 f   mfc140u:mfc140u.dll
 0001:000123ff       ?OnFileNew@CWinApp@@IEAAXXZ 00000001400133ff f   mfc140u:mfc140u.dll
 0001:00012405       ?OnFileOpen@CWinApp@@IEAAXXZ 0000000140013405 f   mfc140u:mfc140u.dll
 0001:0001240b       ?OnFilePrintSetup@CWinApp@@IEAAXXZ 000000014001340b f   mfc140u:mfc140u.dll
 0001:00012411       ?GetThisMessageMap@CWinApp@@KAPEBUAFX_MSGMAP@@XZ 0000000140013411 f   mfc140u:mfc140u.dll
 0001:00012417       ??1CCommandLineInfo@@UEAA@XZ 0000000140013417 f   mfc140u:mfc140u.dll
 0001:0001241d       ??1?$CStringT@_WV?$StrTraitMFC_DLL@_WV?$ChTraitsCRT@_W@ATL@@@@@ATL@@QEAA@XZ 000000014001341d f   mfc140u:mfc140u.dll
 0001:00012423       ?GetRuntimeClass@CGdiObject@@UEBAPEAUCRuntimeClass@@XZ 0000000140013423 f   mfc140u:mfc140u.dll
 0001:00012429       ?GetRuntimeClass@CBrush@@UEBAPEAUCRuntimeClass@@XZ 0000000140013429 f   mfc140u:mfc140u.dll
 0001:0001242f       ?GetThisMessageMap@CDialogEx@@KAPEBUAFX_MSGMAP@@XZ 000000014001342f f   mfc140u:mfc140u.dll
 0001:00012435       ?DoModal@CDialog@@UEAA_JXZ 0000000140013435 f   mfc140u:mfc140u.dll
 0001:0001243b       ?GetRuntimeClass@CWinApp@@UEBAPEAUCRuntimeClass@@XZ 000000014001343b f   mfc140u:mfc140u.dll
 0001:00012441       ?OnCmdMsg@CCmdTarget@@UEAAHIHPEAXPEAUAFX_CMDHANDLERINFO@@@Z 0000000140013441 f   mfc140u:mfc140u.dll
 0001:00012447       ?OnFinalRelease@CCmdTarget@@UEAAXXZ 0000000140013447 f   mfc140u:mfc140u.dll
 0001:0001244d       ?GetInterfaceMap@CCmdTarget@@MEBAPEBUAFX_INTERFACEMAP@@XZ 000000014001344d f   mfc140u:mfc140u.dll
 0001:00012453       ?Run@CWinApp@@UEAAHXZ      0000000140013453 f   mfc140u:mfc140u.dll
 0001:00012459       ?PreTranslateMessage@CWinThread@@UEAAHPEAUtagMSG@@@Z 0000000140013459 f   mfc140u:mfc140u.dll
 0001:0001245f       ?PumpMessage@CWinThread@@UEAAHXZ 000000014001345f f   mfc140u:mfc140u.dll
 0001:00012465       ?OnIdle@CWinApp@@UEAAHJ@Z  0000000140013465 f   mfc140u:mfc140u.dll
 0001:0001246b       ?IsIdleMessage@CWinThread@@UEAAHPEAUtagMSG@@@Z 000000014001346b f   mfc140u:mfc140u.dll
 0001:00012471       ?ProcessWndProcException@CWinApp@@UEAA_JPEAVCException@@PEBUtagMSG@@@Z 0000000140013471 f   mfc140u:mfc140u.dll
 0001:00012477       ?ProcessMessageFilter@CWinThread@@UEAAHHPEAUtagMSG@@@Z 0000000140013477 f   mfc140u:mfc140u.dll
 0001:0001247d       ?GetMainWnd@CWinThread@@UEAAPEAVCWnd@@XZ 000000014001347d f   mfc140u:mfc140u.dll
 0001:00012483       ?Delete@CWinThread@@UEAAXXZ 0000000140013483 f   mfc140u:mfc140u.dll
 0001:00012489       ?GetProfileIntW@CWinApp@@UEAAIPEB_W0H@Z 0000000140013489 f   mfc140u:mfc140u.dll
 0001:0001248f       ?WriteProfileInt@CWinApp@@UEAAHPEB_W0H@Z 000000014001348f f   mfc140u:mfc140u.dll
 0001:00012495       ?GetProfileStringW@CWinApp@@UEAA?AV?$CStringT@_WV?$StrTraitMFC_DLL@_WV?$ChTraitsCRT@_W@ATL@@@@@ATL@@PEB_W00@Z 0000000140013495 f   mfc140u:mfc140u.dll
 0001:0001249b       ?WriteProfileStringW@CWinApp@@UEAAHPEB_W00@Z 000000014001349b f   mfc140u:mfc140u.dll
 0001:000124a1       ?GetProfileBinary@CWinApp@@UEAAHPEB_W0PEAPEAEPEAI@Z 00000001400134a1 f   mfc140u:mfc140u.dll
 0001:000124a7       ?WriteProfileBinary@CWinApp@@UEAAHPEB_W0PEAEI@Z 00000001400134a7 f   mfc140u:mfc140u.dll
 0001:000124ad       ?InitLibId@CWinApp@@UEAAXXZ 00000001400134ad f   mfc140u:mfc140u.dll
 0001:000124b3       ?Register@CWinApp@@UEAAHXZ 00000001400134b3 f   mfc140u:mfc140u.dll
 0001:000124b9       ?Unregister@CWinApp@@UEAAHXZ 00000001400134b9 f   mfc140u:mfc140u.dll
 0001:000124bf       ?OpenDocumentFile@CWinApp@@UEAAPEAVCDocument@@PEB_WH@Z 00000001400134bf f   mfc140u:mfc140u.dll
 0001:000124c5       ?OpenDocumentFile@CWinApp@@UEAAPEAVCDocument@@PEB_W@Z 00000001400134c5 f   mfc140u:mfc140u.dll
 0001:000124cb       ?AddToRecentFileList@CWinApp@@UEAAXPEB_W@Z 00000001400134cb f   mfc140u:mfc140u.dll
 0001:000124d1       ?InitApplication@CWinApp@@UEAAHXZ 00000001400134d1 f   mfc140u:mfc140u.dll
 0001:000124d7       ?SaveAllModified@CWinApp@@UEAAHXZ 00000001400134d7 f   mfc140u:mfc140u.dll
 0001:000124dd       ?DoMessageBox@CWinApp@@UEAAHPEB_WII@Z 00000001400134dd f   mfc140u:mfc140u.dll
 0001:000124e3       ?DoWaitCursor@CWinApp@@UEAAXH@Z 00000001400134e3 f   mfc140u:mfc140u.dll
 0001:000124e9       ?OnDDECommand@CWinApp@@UEAAHPEA_W@Z 00000001400134e9 f   mfc140u:mfc140u.dll
 0001:000124ef       ?WinHelpW@CWinApp@@UEAAX_KI@Z 00000001400134ef f   mfc140u:mfc140u.dll
 0001:000124f5       ?HtmlHelpW@CWinApp@@UEAAX_KI@Z 00000001400134f5 f   mfc140u:mfc140u.dll
 0001:000124fb       ?WinHelpInternal@CWinApp@@UEAAX_KI@Z 00000001400134fb f   mfc140u:mfc140u.dll
 0001:00012501       ?RegisterWithRestartManager@CWinApp@@UEAAJPEB_WKP6AKPEAX@Z1KK@Z 0000000140013501 f   mfc140u:mfc140u.dll
 0001:00012507       ?RegisterWithRestartManager@CWinApp@@UEAAJHAEBV?$CStringT@_WV?$StrTraitMFC_DLL@_WV?$ChTraitsCRT@_W@ATL@@@@@ATL@@@Z 0000000140013507 f   mfc140u:mfc140u.dll
 0001:0001250d       ?ApplicationRecoveryCallback@CWinApp@@UEAAKPEAX@Z 000000014001350d f   mfc140u:mfc140u.dll
 0001:00012513       ?GetDataRecoveryHandler@CWinApp@@UEAAPEAVCDataRecoveryHandler@@XZ 0000000140013513 f   mfc140u:mfc140u.dll
 0001:00012519       ?IsTaskbarInteractionEnabled@CWinApp@@UEAAHXZ 0000000140013519 f   mfc140u:mfc140u.dll
 0001:0001251f       ?RestartInstance@CWinApp@@UEAAHXZ 000000014001351f f   mfc140u:mfc140u.dll
 0001:00012525       ?LoadAppLangResourceDLL@CWinApp@@UEAAPEAUHINSTANCE__@@XZ 0000000140013525 f   mfc140u:mfc140u.dll
 0001:0001252b       ?LoadSysPolicies@CWinApp@@UEAAHXZ 000000014001352b f   mfc140u:mfc140u.dll
 0001:00012531       ?GetRuntimeClass@CDialogEx@@UEBAPEAUCRuntimeClass@@XZ 0000000140013531 f   mfc140u:mfc140u.dll
 0001:00012537       ?OnCmdMsg@CDialog@@UEAAHIHPEAXPEAUAFX_CMDHANDLERINFO@@@Z 0000000140013537 f   mfc140u:mfc140u.dll
 0001:0001253d       ?PreCreateWindow@CWnd@@UEAAHAEAUtagCREATESTRUCTW@@@Z 000000014001353d f   mfc140u:mfc140u.dll
 0001:00012543       ?GetMenu@CWnd@@UEBAPEAVCMenu@@XZ 0000000140013543 f   mfc140u:mfc140u.dll
 0001:00012549       ?SetMenu@CWnd@@UEAAHPEAVCMenu@@@Z 0000000140013549 f   mfc140u:mfc140u.dll
 0001:0001254f       ?OnCommand@CDialogEx@@MEAAH_K_J@Z 000000014001354f f   mfc140u:mfc140u.dll
 0001:00012555       ?PreTranslateMessage@CDialogEx@@UEAAHPEAUtagMSG@@@Z 0000000140013555 f   mfc140u:mfc140u.dll
 0001:0001255b       ?PostNcDestroy@CWnd@@MEAAXXZ 000000014001355b f   mfc140u:mfc140u.dll
 0001:00012561       ?CheckAutoCenter@CDialog@@UEAAHXZ 0000000140013561 f   mfc140u:mfc140u.dll
 0001:00012567       ?IsFrameWnd@CWnd@@UEBAHXZ  0000000140013567 f   mfc140u:mfc140u.dll
 0001:0001256d       ?SetOccDialogInfo@CDialog@@MEAAHPEAU_AFX_OCC_DIALOG_INFO@@@Z 000000014001356d f   mfc140u:mfc140u.dll
 0001:00012573       ?GetOccDialogInfo@CDialog@@MEAAPEAU_AFX_OCC_DIALOG_INFO@@XZ 0000000140013573 f   mfc140u:mfc140u.dll
 0001:00012579       ?Create@CDialog@@UEAAHPEB_WPEAVCWnd@@@Z 0000000140013579 f   mfc140u:mfc140u.dll
 0001:0001257f       ?CreateIndirect@CDialog@@UEAAHPEAXPEAVCWnd@@@Z 000000014001357f f   mfc140u:mfc140u.dll
 0001:00012585       ?CreateIndirect@CDialog@@UEAAHPEBUDLGTEMPLATE@@PEAVCWnd@@PEAX@Z 0000000140013585 f   mfc140u:mfc140u.dll
 0001:0001258b       ?OnInitDialog@CDialog@@UEAAHXZ 000000014001358b f   mfc140u:mfc140u.dll
 0001:00012591       ?OnSetFont@CDialog@@UEAAXPEAVCFont@@@Z 0000000140013591 f   mfc140u:mfc140u.dll
 0001:00012597       ?OnOK@CDialog@@MEAAXXZ     0000000140013597 f   mfc140u:mfc140u.dll
 0001:0001259d       ?OnCancel@CDialog@@MEAAXXZ 000000014001359d f   mfc140u:mfc140u.dll
 0001:000125a3       ?PreInitDialog@CDialog@@MEAAXXZ 00000001400135a3 f   mfc140u:mfc140u.dll
 0001:000125a9       ?GetThisMessageMap@CDocument@@KAPEBUAFX_MSGMAP@@XZ 00000001400135a9 f   mfc140u:mfc140u.dll
 0001:000125af       ?OnCmdMsg@CDocument@@UEAAHIHPEAXPEAUAFX_CMDHANDLERINFO@@@Z 00000001400135af f   mfc140u:mfc140u.dll
 0001:000125b5       ?OnFinalRelease@CDocument@@UEAAXXZ 00000001400135b5 f   mfc140u:mfc140u.dll
 0001:000125bb       ?GetInterfaceMap@CDocument@@MEBAPEBUAFX_INTERFACEMAP@@XZ 00000001400135bb f   mfc140u:mfc140u.dll
 0001:000125c1       ?FindChunk@CDocument@@UEAAPEAU__POSITION@@AEBU_GUID@@K@Z 00000001400135c1 f   mfc140u:mfc140u.dll
 0001:000125c7       ?RemoveChunk@CDocument@@UEAAXAEBU_GUID@@K@Z 00000001400135c7 f   mfc140u:mfc140u.dll
 0001:000125cd       ?ReadNextChunkValue@CDocument@@UEAAHPEAPEAUIFilterChunkValue@ATL@@@Z 00000001400135cd f   mfc140u:mfc140u.dll
 0001:000125d3       ?SetChunkValue@CDocument@@UEAAHPEAUIFilterChunkValue@ATL@@@Z 00000001400135d3 f   mfc140u:mfc140u.dll
 0001:000125d9       ?ClearChunkList@CDocument@@UEAAXXZ 00000001400135d9 f   mfc140u:mfc140u.dll
 0001:000125df       ?GetThumbnail@CDocument@@UEAAHIPEAPEAUHBITMAP__@@PEAW4WTS_ALPHATYPE@@@Z 00000001400135df f   mfc140u:mfc140u.dll
 0001:000125e5       ?BeginReadChunks@CDocument@@UEAAXXZ 00000001400135e5 f   mfc140u:mfc140u.dll
 0001:000125eb       ?LoadDocumentFromStream@CDocument@@UEAAJPEAUIStream@@K@Z 00000001400135eb f   mfc140u:mfc140u.dll
 0001:000125f1       ?SetTitle@CDocument@@UEAAXPEB_W@Z 00000001400135f1 f   mfc140u:mfc140u.dll
 0001:000125f7       ?SetPathName@CDocument@@UEAAXPEB_WH@Z 00000001400135f7 f   mfc140u:mfc140u.dll
 0001:000125fd       ?ClearPathName@CDocument@@UEAAXXZ 00000001400135fd f   mfc140u:mfc140u.dll
 0001:00012603       ?GetFirstViewPosition@CDocument@@UEBAPEAU__POSITION@@XZ 0000000140013603 f   mfc140u:mfc140u.dll
 0001:00012609       ?GetNextView@CDocument@@UEBAPEAVCView@@AEAPEAU__POSITION@@@Z 0000000140013609 f   mfc140u:mfc140u.dll
 0001:0001260f       ?OnChangedViewList@CDocument@@UEAAXXZ 000000014001360f f   mfc140u:mfc140u.dll
 0001:00012615       ?DeleteContents@CDocument@@UEAAXXZ 0000000140013615 f   mfc140u:mfc140u.dll
 0001:0001261b       ?OnOpenDocument@CDocument@@UEAAHPEB_W@Z 000000014001361b f   mfc140u:mfc140u.dll
 0001:00012621       ?OnSaveDocument@CDocument@@UEAAHPEB_W@Z 0000000140013621 f   mfc140u:mfc140u.dll
 0001:00012627       ?OnCloseDocument@CDocument@@UEAAXXZ 0000000140013627 f   mfc140u:mfc140u.dll
 0001:0001262d       ?ReportSaveLoadException@CDocument@@UEAAXPEB_WPEAVCException@@HI@Z 000000014001362d f   mfc140u:mfc140u.dll
 0001:00012633       ?GetFile@CDocument@@UEAAPEAVCFile@@PEB_WIPEAVCFileException@@@Z 0000000140013633 f   mfc140u:mfc140u.dll
 0001:00012639       ?ReleaseFile@CDocument@@UEAAXPEAVCFile@@H@Z 0000000140013639 f   mfc140u:mfc140u.dll
 0001:0001263f       ?OnRichPreviewUnload@CDocument@@UEAAXXZ 000000014001363f f   mfc140u:mfc140u.dll
 0001:00012645       ?OnDocumentEvent@CDocument@@UEAAXW4DocumentEvent@1@@Z 0000000140013645 f   mfc140u:mfc140u.dll
 0001:0001264b       ?CanCloseFrame@CDocument@@UEAAHPEAVCFrameWnd@@@Z 000000014001364b f   mfc140u:mfc140u.dll
 0001:00012651       ?SaveModified@CDocument@@UEAAHXZ 0000000140013651 f   mfc140u:mfc140u.dll
 0001:00012657       ?PreCloseFrame@CDocument@@UEAAXPEAVCFrameWnd@@@Z 0000000140013657 f   mfc140u:mfc140u.dll
 0001:0001265d       ?DoSave@CDocument@@UEAAHPEB_WH@Z 000000014001365d f   mfc140u:mfc140u.dll
 0001:00012663       ?DoFileSave@CDocument@@UEAAHXZ 0000000140013663 f   mfc140u:mfc140u.dll
 0001:00012669       ?UpdateFrameCounts@CDocument@@UEAAXXZ 0000000140013669 f   mfc140u:mfc140u.dll
 0001:0001266f       ?GetDefaultMenu@CDocument@@UEAAPEAUHMENU__@@XZ 000000014001366f f   mfc140u:mfc140u.dll
 0001:00012675       ?GetDefaultAccelerator@CDocument@@UEAAPEAUHACCEL__@@XZ 0000000140013675 f   mfc140u:mfc140u.dll
 0001:0001267b       ?OnIdle@CDocument@@UEAAXXZ 000000014001367b f   mfc140u:mfc140u.dll
 0001:00012681       ?OnLoadDocumentFromStream@CDocument@@UEAAJPEAUIStream@@K@Z 0000000140013681 f   mfc140u:mfc140u.dll
 0001:00012687       ?OnPreviewHandlerQueryFocus@CDocument@@UEAAJPEAPEAUHWND__@@@Z 0000000140013687 f   mfc140u:mfc140u.dll
 0001:0001268d       ?OnPreviewHandlerTranslateAccelerator@CDocument@@UEAAJPEAUtagMSG@@@Z 000000014001368d f   mfc140u:mfc140u.dll
 0001:00012693       ?OnCreatePreviewFrame@CDocument@@UEAAHXZ 0000000140013693 f   mfc140u:mfc140u.dll
 0001:00012699       ?OnUnloadHandler@CDocument@@UEAAXXZ 0000000140013699 f   mfc140u:mfc140u.dll
 0001:0001269f       ?OnDrawThumbnail@CDocument@@UEAAXAEAVCDC@@PEAUtagRECT@@@Z 000000014001369f f   mfc140u:mfc140u.dll
 0001:000126a5       ?GetThisMessageMap@CWnd@@KAPEBUAFX_MSGMAP@@XZ 00000001400136a5 f   mfc140u:mfc140u.dll
 0001:000126ab       ?OnFilePrint@CView@@IEAAXXZ 00000001400136ab f   mfc140u:mfc140u.dll
 0001:000126b1       ?OnFilePrintPreview@CView@@IEAAXXZ 00000001400136b1 f   mfc140u:mfc140u.dll
 0001:000126b7       ?GetThisMessageMap@CFormView@@KAPEBUAFX_MSGMAP@@XZ 00000001400136b7 f   mfc140u:mfc140u.dll
 0001:000126bd       ?DeleteItem@CComboBox@@UEAAXPEAUtagDELETEITEMSTRUCT@@@Z 00000001400136bd f   mfc140u:mfc140u.dll
 0001:000126c3       ?CompareItem@CComboBox@@UEAAHPEAUtagCOMPAREITEMSTRUCT@@@Z 00000001400136c3 f   mfc140u:mfc140u.dll
 0001:000126c9       ?MeasureItem@CComboBox@@UEAAXPEAUtagMEASUREITEMSTRUCT@@@Z 00000001400136c9 f   mfc140u:mfc140u.dll
 0001:000126cf       ?DrawItem@CComboBox@@UEAAXPEAUtagDRAWITEMSTRUCT@@@Z 00000001400136cf f   mfc140u:mfc140u.dll
 0001:000126d5       ?Create@CComboBox@@UEAAHKAEBUtagRECT@@PEAVCWnd@@I@Z 00000001400136d5 f   mfc140u:mfc140u.dll
 0001:000126db       ?OnChildNotify@CComboBox@@MEAAHI_K_JPEA_J@Z 00000001400136db f   mfc140u:mfc140u.dll
 0001:000126e1       ?PreTranslateMessage@CWnd@@UEAAHPEAUtagMSG@@@Z 00000001400136e1 f   mfc140u:mfc140u.dll
 0001:000126e7       ?OnCommand@CWnd@@MEAAH_K_J@Z 00000001400136e7 f   mfc140u:mfc140u.dll
 0001:000126ed       ?GetMessageMap@CWnd@@MEBAPEBUAFX_MSGMAP@@XZ 00000001400136ed f   mfc140u:mfc140u.dll
 0001:000126f3       ?GetRuntimeClass@CComboBox@@UEBAPEAUCRuntimeClass@@XZ 00000001400136f3 f   mfc140u:mfc140u.dll
 0001:000126f9       ?GetRuntimeClass@CEdit@@UEBAPEAUCRuntimeClass@@XZ 00000001400136f9 f   mfc140u:mfc140u.dll
 0001:000126ff       ??1CFile@@UEAA@XZ          00000001400136ff f   mfc140u:mfc140u.dll
 0001:00012705       ?GetRuntimeClass@CFont@@UEBAPEAUCRuntimeClass@@XZ 0000000140013705 f   mfc140u:mfc140u.dll
 0001:0001270b       ?AfxGetModuleState@@YAPEAVAFX_MODULE_STATE@@XZ 000000014001370b f   mfc140u:mfc140u.dll
 0001:00012711       ??1CStdioFile@@UEAA@XZ     0000000140013711 f   mfc140u:mfc140u.dll
 0001:00012717       ?OnCmdMsg@CView@@UEAAHIHPEAXPEAUAFX_CMDHANDLERINFO@@@Z 0000000140013717 f   mfc140u:mfc140u.dll
 0001:0001271d       ?Create@CFormView@@MEAAHPEB_W0KAEBUtagRECT@@PEAVCWnd@@IPEAUCCreateContext@@@Z 000000014001371d f   mfc140u:mfc140u.dll
 0001:00012723       ?CalcWindowRect@CScrollView@@UEAAXPEAUtagRECT@@I@Z 0000000140013723 f   mfc140u:mfc140u.dll
 0001:00012729       ?GetScrollBarCtrl@CView@@UEBAPEAVCScrollBar@@H@Z 0000000140013729 f   mfc140u:mfc140u.dll
 0001:0001272f       ?PostNcDestroy@CView@@MEAAXXZ 000000014001372f f   mfc140u:mfc140u.dll
 0001:00012735       ?SetOccDialogInfo@CFormView@@MEAAHPEAU_AFX_OCC_DIALOG_INFO@@@Z 0000000140013735 f   mfc140u:mfc140u.dll
 0001:0001273b       ?GetOccDialogInfo@CFormView@@MEAAPEAU_AFX_OCC_DIALOG_INFO@@XZ 000000014001373b f   mfc140u:mfc140u.dll
 0001:00012741       ?IsSelected@CView@@UEBAHPEBVCObject@@@Z 0000000140013741 f   mfc140u:mfc140u.dll
 0001:00012747       ?OnScroll@CScrollView@@UEAAHIIH@Z 0000000140013747 f   mfc140u:mfc140u.dll
 0001:0001274d       ?OnScrollBy@CScrollView@@UEAAHVCSize@@H@Z 000000014001374d f   mfc140u:mfc140u.dll
 0001:00012753       ?OnDragEnter@CView@@UEAAKPEAVCOleDataObject@@KVCPoint@@@Z 0000000140013753 f   mfc140u:mfc140u.dll
 0001:00012759       ?OnDragOver@CView@@UEAAKPEAVCOleDataObject@@KVCPoint@@@Z 0000000140013759 f   mfc140u:mfc140u.dll
 0001:0001275f       ?OnDragLeave@CView@@UEAAXXZ 000000014001375f f   mfc140u:mfc140u.dll
 0001:00012765       ?OnDrop@CView@@UEAAHPEAVCOleDataObject@@KVCPoint@@@Z 0000000140013765 f   mfc140u:mfc140u.dll
 0001:0001276b       ?OnDropEx@CView@@UEAAKPEAVCOleDataObject@@KKVCPoint@@@Z 000000014001376b f   mfc140u:mfc140u.dll
 0001:00012771       ?OnDragScroll@CView@@UEAAKKVCPoint@@@Z 0000000140013771 f   mfc140u:mfc140u.dll
 0001:00012777       ?OnPrepareDC@CScrollView@@UEAAXPEAVCDC@@PEAUCPrintInfo@@@Z 0000000140013777 f   mfc140u:mfc140u.dll
 0001:0001277d       ?OnActivateView@CFormView@@MEAAXHPEAVCView@@0@Z 000000014001377d f   mfc140u:mfc140u.dll
 0001:00012783       ?OnActivateFrame@CFormView@@MEAAXIPEAVCFrameWnd@@@Z 0000000140013783 f   mfc140u:mfc140u.dll
 0001:00012789       ?OnUpdate@CView@@MEAAXPEAV1@_JPEAVCObject@@@Z 0000000140013789 f   mfc140u:mfc140u.dll
 0001:0001278f       ?OnDraw@CFormView@@MEAAXPEAVCDC@@@Z 000000014001378f f   mfc140u:mfc140u.dll
 0001:00012795       ?OnPreparePrinting@CView@@MEAAHPEAUCPrintInfo@@@Z 0000000140013795 f   mfc140u:mfc140u.dll
 0001:0001279b       ?OnBeginPrinting@CView@@MEAAXPEAVCDC@@PEAUCPrintInfo@@@Z 000000014001379b f   mfc140u:mfc140u.dll
 0001:000127a1       ?OnPrint@CView@@MEAAXPEAVCDC@@PEAUCPrintInfo@@@Z 00000001400137a1 f   mfc140u:mfc140u.dll
 0001:000127a7       ?OnEndPrinting@CView@@MEAAXPEAVCDC@@PEAUCPrintInfo@@@Z 00000001400137a7 f   mfc140u:mfc140u.dll
 0001:000127ad       ?OnEndPrintPreview@CView@@MEAAXPEAVCDC@@PEAUCPrintInfo@@UtagPOINT@@PEAVCPreviewView@@@Z 00000001400137ad f   mfc140u:mfc140u.dll
 0001:000127b3       ?GetWheelScrollDistance@CScrollView@@UEAA?AVCSize@@V2@HH@Z 00000001400137b3 f   mfc140u:mfc140u.dll
 0001:00012a14       wWinMainCRTStartup         0000000140013a14 f   msvcrt:exe_wwinmain.obj
 0001:00012a40       __security_check_cookie    0000000140013a40 f   msvcrt:amdsecgs.obj
 0001:00012a60       ??_Etype_info@@UEAAPEAXI@Z 0000000140013a60 f i msvcrt:std_type_info_static.obj
 0001:00012a60       ??_Gtype_info@@UEAAPEAXI@Z 0000000140013a60 f i msvcrt:std_type_info_static.obj
 0001:00012a8c       __scrt_acquire_startup_lock 0000000140013a8c f   msvcrt:utility.obj
 0001:00012ac8       __scrt_initialize_crt      0000000140013ac8 f   msvcrt:utility.obj
 0001:00012b04       __scrt_initialize_onexit_tables 0000000140013b04 f   msvcrt:utility.obj
 0001:00012b90       __scrt_is_nonwritable_in_current_image 0000000140013b90 f   msvcrt:utility.obj
 0001:00012c28       __scrt_release_startup_lock 0000000140013c28 f   msvcrt:utility.obj
 0001:00012c4c       __scrt_uninitialize_crt    0000000140013c4c f   msvcrt:utility.obj
 0001:00012c78       _onexit                    0000000140013c78 f   msvcrt:utility.obj
 0001:00012cb4       atexit                     0000000140013cb4 f   msvcrt:utility.obj
 0001:00012ccc       ??3@YAXPEAX_K@Z            0000000140013ccc f   msvcrt:delete_scalar_size.obj
 0001:00012cd4       __GSHandlerCheck_SEH       0000000140013cd4 f   msvcrt:gshandlerseh.obj
 0001:00012d5c       __security_init_cookie     0000000140013d5c f   msvcrt:gs_support.obj
 0001:00012e08       _get_startup_argv_mode     0000000140013e08 f   msvcrt:argv_mode.obj
 0001:00012e10       _get_startup_file_mode     0000000140013e10 f   msvcrt:file_mode.obj
 0001:00012e18       ?__scrt_initialize_type_info@@YAXXZ 0000000140013e18 f   msvcrt:tncleanup.obj
 0001:00012e28       __acrt_initialize          0000000140013e28 f   msvcrt:ucrt_stubs.obj
 0001:00012e28       __acrt_uninitialize        0000000140013e28 f   msvcrt:ucrt_stubs.obj
 0001:00012e28       __scrt_stub_for_acrt_initialize 0000000140013e28 f   msvcrt:ucrt_stubs.obj
 0001:00012e28       __scrt_stub_for_acrt_uninitialize 0000000140013e28 f   msvcrt:ucrt_stubs.obj
 0001:00012e28       __vcrt_initialize          0000000140013e28 f   msvcrt:ucrt_stubs.obj
 0001:00012e28       __vcrt_uninitialize        0000000140013e28 f   msvcrt:ucrt_stubs.obj
 0001:00012e28       _should_initialize_environment 0000000140013e28 f   msvcrt:env_mode.obj
 0001:00012e2c       __local_stdio_printf_options 0000000140013e2c f i msvcrt:default_local_stdio_options.obj
 0001:00012e34       __local_stdio_scanf_options 0000000140013e34 f i msvcrt:default_local_stdio_options.obj
 0001:00012e3c       __scrt_initialize_default_local_stdio_options 0000000140013e3c f   msvcrt:default_local_stdio_options.obj
 0001:00012e58       __scrt_is_user_matherr_present 0000000140013e58 f   msvcrt:matherr_detection.obj
 0001:00012e64       __scrt_get_dyn_tls_init_callback 0000000140013e64 f   msvcrt:dyn_tls_init.obj
 0001:00012e6c       __scrt_get_dyn_tls_dtor_callback 0000000140013e6c f   msvcrt:dyn_tls_dtor.obj
 0001:00012e74       __crt_debugger_hook        0000000140013e74 f   msvcrt:utility_desktop.obj
 0001:00012e7c       __scrt_fastfail            0000000140013e7c f   msvcrt:utility_desktop.obj
 0001:00012fc4       __scrt_get_show_window_mode 0000000140013fc4 f   msvcrt:utility_desktop.obj
 0001:00013000       __scrt_initialize_mta      0000000140014000 f   msvcrt:utility_desktop.obj
 0001:00013008       __scrt_is_managed_app      0000000140014008 f   msvcrt:utility_desktop.obj
 0001:0001305c       __scrt_set_unhandled_exception_filter 000000014001405c f   msvcrt:utility_desktop.obj
 0001:0001306c       __scrt_unhandled_exception_filter 000000014001406c f   msvcrt:utility_desktop.obj
 0001:000130c8       _RTC_Initialize            00000001400140c8 f   msvcrt:initsect.obj
 0001:00013104       _RTC_Terminate             0000000140014104 f   msvcrt:initsect.obj
 0001:00013140       __raise_securityfailure    0000000140014140 f   msvcrt:gs_report.obj
 0001:00013174       __report_gsfailure         0000000140014174 f   msvcrt:gs_report.obj
 0001:000132bc       __isa_available_init       00000001400142bc f   msvcrt:cpu_disp.obj
 0001:00013588       __scrt_is_ucrt_dll_in_use  0000000140014588 f   msvcrt:ucrt_detection.obj
 0001:00013594       __GSHandlerCheck           0000000140014594 f   msvcrt:gshandler.obj
 0001:000135b4       __GSHandlerCheckCommon     00000001400145b4 f   msvcrt:gshandler.obj
 0001:00013610       ??0CAtlBaseModule@ATL@@QEAA@XZ 0000000140014610 f   atls:atlbase.obj
 0001:000136b8       ??1CAtlBaseModule@ATL@@QEAA@XZ 00000001400146b8 f   atls:atlbase.obj
 0001:000136f0       ?_com_issue_error@@YAXJ@Z  00000001400146f0 f   comsuppw:comsupp.obj
 0001:00013700       ?ConvertStringToBSTR@_com_util@@YAPEA_WPEBD@Z 0000000140014700 f   comsuppw:comutil.obj
 0001:000138a0       ??0_com_error@@QEAA@AEBV0@@Z 00000001400148a0 f i comsuppw:comraise.obj
 0001:000138f0       ??0_com_error@@QEAA@JPEAUIErrorInfo@@_N@Z 00000001400148f0 f i comsuppw:comraise.obj
 0001:00013940       ??1_com_error@@UEAA@XZ     0000000140014940 f i comsuppw:comraise.obj
 0001:00013990       ??_E_com_error@@UEAAPEAXI@Z 0000000140014990 f i comsuppw:comraise.obj
 0001:00013990       ??_G_com_error@@UEAAPEAXI@Z 0000000140014990 f i comsuppw:comraise.obj
 0001:000139f0       ?_com_raise_error@@YAXJPEAUIErrorInfo@@@Z 00000001400149f0 f   comsuppw:comraise.obj
 0001:00013a18       ??1facet@locale@std@@MEAA@XZ 0000000140014a18 f   msvcprt:MSVCP140.dll
 0001:00013a1e       ?_Decref@facet@locale@std@@UEAAPEAV_Facet_base@3@XZ 0000000140014a1e f   msvcprt:MSVCP140.dll
 0001:00013a24       ?_Incref@facet@locale@std@@UEAAXXZ 0000000140014a24 f   msvcprt:MSVCP140.dll
 0001:00013a2c       ?_Facet_Register@std@@YAXPEAV_Facet_base@1@@Z 0000000140014a2c f   msvcprt:locale0_implib.obj
 0001:00013a64       ??1_Lockit@std@@QEAA@XZ    0000000140014a64 f   msvcprt:MSVCP140.dll
 0001:00013a6a       ?uflow@?$basic_streambuf@_WU?$char_traits@_W@std@@@std@@MEAAGXZ 0000000140014a6a f   msvcprt:MSVCP140.dll
 0001:00013a70       ?uflow@?$basic_streambuf@DU?$char_traits@D@std@@@std@@MEAAHXZ 0000000140014a70 f   msvcprt:MSVCP140.dll
 0001:00013a76       ?_Unlock@?$basic_streambuf@_WU?$char_traits@_W@std@@@std@@UEAAXXZ 0000000140014a76 f   msvcprt:MSVCP140.dll
 0001:00013a7c       ?_Lock@?$basic_streambuf@_WU?$char_traits@_W@std@@@std@@UEAAXXZ 0000000140014a7c f   msvcprt:MSVCP140.dll
 0001:00013a82       ?sync@?$basic_streambuf@_WU?$char_traits@_W@std@@@std@@MEAAHXZ 0000000140014a82 f   msvcprt:MSVCP140.dll
 0001:00013c90       __std_find_trivial_2       0000000140014c90 f   msvcprt:vector_algorithms.obj
 0001:00013ca0       __std_find_trivial_4       0000000140014ca0 f   msvcprt:vector_algorithms.obj
 0001:00013ca5       ?xsputn@?$basic_streambuf@_WU?$char_traits@_W@std@@@std@@MEAA_JPEB_W_J@Z 0000000140014ca5 f   msvcprt:MSVCP140.dll
 0001:00013cab       ?xsputn@?$basic_streambuf@DU?$char_traits@D@std@@@std@@MEAA_JPEBD_J@Z 0000000140014cab f   msvcprt:MSVCP140.dll
 0001:00013cb1       ?_Unlock@?$basic_streambuf@DU?$char_traits@D@std@@@std@@UEAAXXZ 0000000140014cb1 f   msvcprt:MSVCP140.dll
 0001:00013cb7       ?_Lock@?$basic_streambuf@DU?$char_traits@D@std@@@std@@UEAAXXZ 0000000140014cb7 f   msvcprt:MSVCP140.dll
 0001:00013cbd       ?sync@?$basic_streambuf@DU?$char_traits@D@std@@@std@@MEAAHXZ 0000000140014cbd f   msvcprt:MSVCP140.dll
 0001:00013cc3       ?showmanyc@?$basic_streambuf@DU?$char_traits@D@std@@@std@@MEAA_JXZ 0000000140014cc3 f   msvcprt:MSVCP140.dll
 0001:00013cc9       ?xsgetn@?$basic_streambuf@DU?$char_traits@D@std@@@std@@MEAA_JPEAD_J@Z 0000000140014cc9 f   msvcprt:MSVCP140.dll
 0001:00013ccf       ?setbuf@?$basic_streambuf@DU?$char_traits@D@std@@@std@@MEAAPEAV12@PEAD_J@Z 0000000140014ccf f   msvcprt:MSVCP140.dll
 0001:00013cd5       ?imbue@?$basic_streambuf@DU?$char_traits@D@std@@@std@@MEAAXAEBVlocale@2@@Z 0000000140014cd5 f   msvcprt:MSVCP140.dll
 0001:00013cdb       ?showmanyc@?$basic_streambuf@_WU?$char_traits@_W@std@@@std@@MEAA_JXZ 0000000140014cdb f   msvcprt:MSVCP140.dll
 0001:00013ce1       ?xsgetn@?$basic_streambuf@_WU?$char_traits@_W@std@@@std@@MEAA_JPEA_W_J@Z 0000000140014ce1 f   msvcprt:MSVCP140.dll
 0001:00013ce7       ?setbuf@?$basic_streambuf@_WU?$char_traits@_W@std@@@std@@MEAAPEAV12@PEA_W_J@Z 0000000140014ce7 f   msvcprt:MSVCP140.dll
 0001:00013ced       ?imbue@?$basic_streambuf@_WU?$char_traits@_W@std@@@std@@MEAAXAEBVlocale@2@@Z 0000000140014ced f   msvcprt:MSVCP140.dll
 0001:00013cf3       __CxxFrameHandler4         0000000140014cf3 f   vcruntime:VCRUNTIME140_1.dll
 0001:00013cf9       __std_terminate            0000000140014cf9 f   vcruntime:VCRUNTIME140.dll
 0001:00013cff       _purecall                  0000000140014cff f   vcruntime:VCRUNTIME140.dll
 0001:00013d05       memset                     0000000140014d05 f   vcruntime:VCRUNTIME140.dll
 0001:00013d0b       __C_specific_handler       0000000140014d0b f   vcruntime:VCRUNTIME140.dll
 0001:00013d11       __current_exception        0000000140014d11 f   vcruntime:VCRUNTIME140.dll
 0001:00013d17       __current_exception_context 0000000140014d17 f   vcruntime:VCRUNTIME140.dll
 0001:00013d1d       memmove                    0000000140014d1d f   vcruntime:VCRUNTIME140.dll
 0001:00013d23       _CxxThrowException         0000000140014d23 f   vcruntime:VCRUNTIME140.dll
 0001:00013d29       memcpy                     0000000140014d29 f   vcruntime:VCRUNTIME140.dll
 0001:00013d2f       free                       0000000140014d2f f   ucrt:api-ms-win-crt-heap-l1-1-0.dll
 0001:00013d35       _seh_filter_exe            0000000140014d35 f   ucrt:api-ms-win-crt-runtime-l1-1-0.dll
 0001:00013d3b       _set_app_type              0000000140014d3b f   ucrt:api-ms-win-crt-runtime-l1-1-0.dll
 0001:00013d41       __setusermatherr           0000000140014d41 f   ucrt:api-ms-win-crt-math-l1-1-0.dll
 0001:00013d47       _configure_wide_argv       0000000140014d47 f   ucrt:api-ms-win-crt-runtime-l1-1-0.dll
 0001:00013d4d       _initialize_wide_environment 0000000140014d4d f   ucrt:api-ms-win-crt-runtime-l1-1-0.dll
 0001:00013d53       _get_wide_winmain_command_line 0000000140014d53 f   ucrt:api-ms-win-crt-runtime-l1-1-0.dll
 0001:00013d59       _initterm                  0000000140014d59 f   ucrt:api-ms-win-crt-runtime-l1-1-0.dll
 0001:00013d5f       _initterm_e                0000000140014d5f f   ucrt:api-ms-win-crt-runtime-l1-1-0.dll
 0001:00013d65       exit                       0000000140014d65 f   ucrt:api-ms-win-crt-runtime-l1-1-0.dll
 0001:00013d6b       _exit                      0000000140014d6b f   ucrt:api-ms-win-crt-runtime-l1-1-0.dll
 0001:00013d71       _set_fmode                 0000000140014d71 f   ucrt:api-ms-win-crt-stdio-l1-1-0.dll
 0001:00013d77       _cexit                     0000000140014d77 f   ucrt:api-ms-win-crt-runtime-l1-1-0.dll
 0001:00013d7d       _c_exit                    0000000140014d7d f   ucrt:api-ms-win-crt-runtime-l1-1-0.dll
 0001:00013d83       _register_thread_local_exe_atexit_callback 0000000140014d83 f   ucrt:api-ms-win-crt-runtime-l1-1-0.dll
 0001:00013d89       _configthreadlocale        0000000140014d89 f   ucrt:api-ms-win-crt-locale-l1-1-0.dll
 0001:00013d8f       _set_new_mode              0000000140014d8f f   ucrt:api-ms-win-crt-heap-l1-1-0.dll
 0001:00013d95       __p__commode               0000000140014d95 f   ucrt:api-ms-win-crt-stdio-l1-1-0.dll
 0001:00013d9b       _initialize_onexit_table   0000000140014d9b f   ucrt:api-ms-win-crt-runtime-l1-1-0.dll
 0001:00013da1       _register_onexit_function  0000000140014da1 f   ucrt:api-ms-win-crt-runtime-l1-1-0.dll
 0001:00013da7       _crt_atexit                0000000140014da7 f   ucrt:api-ms-win-crt-runtime-l1-1-0.dll
 0001:00013dad       terminate                  0000000140014dad f   ucrt:api-ms-win-crt-runtime-l1-1-0.dll
 0001:00013db3       malloc                     0000000140014db3 f   ucrt:api-ms-win-crt-heap-l1-1-0.dll
 0001:00013dbc       ?AfxInitialize@@YAHHK@Z    0000000140014dbc f   mfcs140u:appmodul.obj
 0001:00013de8       wWinMain                   0000000140014de8 f   mfcs140u:appmodul.obj
 0001:00013e00       __chkstk                   0000000140014e00 f   msvcrt:chkstk.obj
 0001:00013e00       _alloca_probe              0000000140014e00 f   msvcrt:chkstk.obj
 0001:00013e4e       ?AfxWinMain@@YAHPEAUHINSTANCE__@@0PEA_WH@Z 0000000140014e4e f   mfc140u:mfc140u.dll
 0001:00013e54       __GSHandlerCheck_EH4       0000000140014e54 f   msvcrt:gshandlereh4.obj
 0001:00013ed3       __RTDynamicCast            0000000140014ed3 f   vcruntime:VCRUNTIME140.dll
 0001:00013ed9       memcmp                     0000000140014ed9 f   vcruntime:VCRUNTIME140.dll
 0001:00013ef0       _guard_dispatch_icall_nop  0000000140014ef0 f   msvcrt:guard_dispatch.obj
 0001:00013f10       _guard_xfg_dispatch_icall_nop 0000000140014f10 f   msvcrt:guard_xfg_dispatch.obj
 0002:00000000       __imp_InitCommonControlsEx 0000000140016000     comctl32:COMCTL32.dll
 0002:00000008       \177COMCTL32_NULL_THUNK_DATA 0000000140016008     comctl32:COMCTL32.dll
 0002:00000010       __imp_CreateFontIndirectW  0000000140016010     gdi32:GDI32.dll
 0002:00000018       __imp_GetObjectW           0000000140016018     gdi32:GDI32.dll
 0002:00000020       \177GDI32_NULL_THUNK_DATA  0000000140016020     gdi32:GDI32.dll
 0002:00000028       __imp_lstrcpyW             0000000140016028     kernel32:KERNEL32.dll
 0002:00000030       __imp_WideCharToMultiByte  0000000140016030     kernel32:KERNEL32.dll
 0002:00000038       __imp_GetSystemTime        0000000140016038     kernel32:KERNEL32.dll
 0002:00000040       __imp_SystemTimeToFileTime 0000000140016040     kernel32:KERNEL32.dll
 0002:00000048       __imp_InitializeCriticalSectionEx 0000000140016048     kernel32:KERNEL32.dll
 0002:00000050       __imp_GetLastError         0000000140016050     kernel32:KERNEL32.dll
 0002:00000058       __imp_GetCurrentThreadId   0000000140016058     kernel32:KERNEL32.dll
 0002:00000060       __imp_GetSystemTimeAsFileTime 0000000140016060     kernel32:KERNEL32.dll
 0002:00000068       __imp_InitializeSListHead  0000000140016068     kernel32:KERNEL32.dll
 0002:00000070       __imp_RtlCaptureContext    0000000140016070     kernel32:KERNEL32.dll
 0002:00000078       __imp_MultiByteToWideChar  0000000140016078     kernel32:KERNEL32.dll
 0002:00000080       __imp_RtlVirtualUnwind     0000000140016080     kernel32:KERNEL32.dll
 0002:00000088       __imp_IsDebuggerPresent    0000000140016088     kernel32:KERNEL32.dll
 0002:00000090       __imp_UnhandledExceptionFilter 0000000140016090     kernel32:KERNEL32.dll
 0002:00000098       __imp_SetUnhandledExceptionFilter 0000000140016098     kernel32:KERNEL32.dll
 0002:000000a0       __imp_GetStartupInfoW      00000001400160a0     kernel32:KERNEL32.dll
 0002:000000a8       __imp_IsProcessorFeaturePresent 00000001400160a8     kernel32:KERNEL32.dll
 0002:000000b0       __imp_GetModuleHandleW     00000001400160b0     kernel32:KERNEL32.dll
 0002:000000b8       __imp_GetCurrentProcess    00000001400160b8     kernel32:KERNEL32.dll
 0002:000000c0       __imp_TerminateProcess     00000001400160c0     kernel32:KERNEL32.dll
 0002:000000c8       __imp_QueryPerformanceCounter 00000001400160c8     kernel32:KERNEL32.dll
 0002:000000d0       __imp_OutputDebugStringW   00000001400160d0     kernel32:KERNEL32.dll
 0002:000000d8       __imp_FindNextFileW        00000001400160d8     kernel32:KERNEL32.dll
 0002:000000e0       __imp_LocalFree            00000001400160e0     kernel32:KERNEL32.dll
 0002:000000e8       __imp_RtlLookupFunctionEntry 00000001400160e8     kernel32:KERNEL32.dll
 0002:000000f0       __imp_FindFirstFileW       00000001400160f0     kernel32:KERNEL32.dll
 0002:000000f8       __imp_DeleteCriticalSection 00000001400160f8     kernel32:KERNEL32.dll
 0002:00000100       __imp_GetCurrentProcessId  0000000140016100     kernel32:KERNEL32.dll
 0002:00000108       \177KERNEL32_NULL_THUNK_DATA 0000000140016108     kernel32:KERNEL32.dll
 0002:00000110       __imp_MNSCParse            0000000140016110     MNSC:MNSC.dll
 0002:00000118       __imp_MNSCInitilize        0000000140016118     MNSC:MNSC.dll
 0002:00000120       __imp_MNSCCreateMap        0000000140016120     MNSC:MNSC.dll
 0002:00000128       __imp_MNSCCall             0000000140016128     MNSC:MNSC.dll
 0002:00000130       __imp_MNSCClose            0000000140016130     MNSC:MNSC.dll
 0002:00000138       \177MNSC_NULL_THUNK_DATA   0000000140016138     MNSC:MNSC.dll
 0002:00000140       __imp_?imbue@?$basic_streambuf@DU?$char_traits@D@std@@@std@@MEAAXAEBVlocale@2@@Z 0000000140016140     msvcprt:MSVCP140.dll
 0002:00000148       __imp_?setbuf@?$basic_streambuf@DU?$char_traits@D@std@@@std@@MEAAPEAV12@PEAD_J@Z 0000000140016148     msvcprt:MSVCP140.dll
 0002:00000150       __imp_?xsgetn@?$basic_streambuf@DU?$char_traits@D@std@@@std@@MEAA_JPEAD_J@Z 0000000140016150     msvcprt:MSVCP140.dll
 0002:00000158       __imp_?showmanyc@?$basic_streambuf@DU?$char_traits@D@std@@@std@@MEAA_JXZ 0000000140016158     msvcprt:MSVCP140.dll
 0002:00000160       __imp_?tolower@?$ctype@_W@std@@QEBAPEB_WPEA_WPEB_W@Z 0000000140016160     msvcprt:MSVCP140.dll
 0002:00000168       __imp_?_Xregex_error@std@@YAXW4error_type@regex_constants@1@@Z 0000000140016168     msvcprt:MSVCP140.dll
 0002:00000170       __imp_?_Getcoll@_Locinfo@std@@QEBA?AU_Collvec@@XZ 0000000140016170     msvcprt:MSVCP140.dll
 0002:00000178       __imp_?id@?$collate@_W@std@@2V0locale@2@A 0000000140016178     msvcprt:MSVCP140.dll
 0002:00000180       __imp_?sync@?$basic_streambuf@DU?$char_traits@D@std@@@std@@MEAAHXZ 0000000140016180     msvcprt:MSVCP140.dll
 0002:00000188       __imp_?_Lock@?$basic_streambuf@DU?$char_traits@D@std@@@std@@UEAAXXZ 0000000140016188     msvcprt:MSVCP140.dll
 0002:00000190       __imp_?_Unlock@?$basic_streambuf@DU?$char_traits@D@std@@@std@@UEAAXXZ 0000000140016190     msvcprt:MSVCP140.dll
 0002:00000198       __imp_?xsputn@?$basic_streambuf@DU?$char_traits@D@std@@@std@@MEAA_JPEBD_J@Z 0000000140016198     msvcprt:MSVCP140.dll
 0002:000001a0       __imp_?xsputn@?$basic_streambuf@_WU?$char_traits@_W@std@@@std@@MEAA_JPEB_W_J@Z 00000001400161a0     msvcprt:MSVCP140.dll
 0002:000001a8       __imp_?sync@?$basic_streambuf@_WU?$char_traits@_W@std@@@std@@MEAAHXZ 00000001400161a8     msvcprt:MSVCP140.dll
 0002:000001b0       __imp_?_Lock@?$basic_streambuf@_WU?$char_traits@_W@std@@@std@@UEAAXXZ 00000001400161b0     msvcprt:MSVCP140.dll
 0002:000001b8       __imp_?_Unlock@?$basic_streambuf@_WU?$char_traits@_W@std@@@std@@UEAAXXZ 00000001400161b8     msvcprt:MSVCP140.dll
 0002:000001c0       __imp_?sputn@?$basic_streambuf@DU?$char_traits@D@std@@@std@@QEAA_JPEBD_J@Z 00000001400161c0     msvcprt:MSVCP140.dll
 0002:000001c8       __imp_?sputc@?$basic_streambuf@DU?$char_traits@D@std@@@std@@QEAAHD@Z 00000001400161c8     msvcprt:MSVCP140.dll
 0002:000001d0       __imp_?sputc@?$basic_streambuf@_WU?$char_traits@_W@std@@@std@@QEAAG_W@Z 00000001400161d0     msvcprt:MSVCP140.dll
 0002:000001d8       __imp_?good@ios_base@std@@QEBA_NXZ 00000001400161d8     msvcprt:MSVCP140.dll
 0002:000001e0       __imp_?uncaught_exception@std@@YA_NXZ 00000001400161e0     msvcprt:MSVCP140.dll
 0002:000001e8       __imp_?uflow@?$basic_streambuf@DU?$char_traits@D@std@@@std@@MEAAHXZ 00000001400161e8     msvcprt:MSVCP140.dll
 0002:000001f0       __imp_?_Init@locale@std@@CAPEAV_Locimp@12@_N@Z 00000001400161f0     msvcprt:MSVCP140.dll
 0002:000001f8       __imp_?uflow@?$basic_streambuf@_WU?$char_traits@_W@std@@@std@@MEAAGXZ 00000001400161f8     msvcprt:MSVCP140.dll
 0002:00000200       __imp_?tolower@?$ctype@_W@std@@QEBA_W_W@Z 0000000140016200     msvcprt:MSVCP140.dll
 0002:00000208       __imp_??Bid@locale@std@@QEAA_KXZ 0000000140016208     msvcprt:MSVCP140.dll
 0002:00000210       __imp_?id@?$ctype@_W@std@@2V0locale@2@A 0000000140016210     msvcprt:MSVCP140.dll
 0002:00000218       __imp_?_Getgloballocale@locale@std@@CAPEAV_Locimp@12@XZ 0000000140016218     msvcprt:MSVCP140.dll
 0002:00000220       __imp_??0_Lockit@std@@QEAA@H@Z 0000000140016220     msvcprt:MSVCP140.dll
 0002:00000228       __imp_??0_Locinfo@std@@QEAA@PEBD@Z 0000000140016228     msvcprt:MSVCP140.dll
 0002:00000230       __imp_??1_Lockit@std@@QEAA@XZ 0000000140016230     msvcprt:MSVCP140.dll
 0002:00000238       __imp_??1_Locinfo@std@@QEAA@XZ 0000000140016238     msvcprt:MSVCP140.dll
 0002:00000240       __imp_?is@?$ctype@_W@std@@QEBA_NF_W@Z 0000000140016240     msvcprt:MSVCP140.dll
 0002:00000248       __imp_?_Getcat@?$ctype@_W@std@@SA_KPEAPEBVfacet@locale@2@PEBV42@@Z 0000000140016248     msvcprt:MSVCP140.dll
 0002:00000250       __imp_?_Incref@facet@locale@std@@UEAAXXZ 0000000140016250     msvcprt:MSVCP140.dll
 0002:00000258       __imp__Wcscoll             0000000140016258     msvcprt:MSVCP140.dll
 0002:00000260       __imp__Wcsxfrm             0000000140016260     msvcprt:MSVCP140.dll
 0002:00000268       __imp_??1?$basic_iostream@_WU?$char_traits@_W@std@@@std@@UEAA@XZ 0000000140016268     msvcprt:MSVCP140.dll
 0002:00000270       __imp_?showmanyc@?$basic_streambuf@_WU?$char_traits@_W@std@@@std@@MEAA_JXZ 0000000140016270     msvcprt:MSVCP140.dll
 0002:00000278       __imp_??1?$basic_iostream@DU?$char_traits@D@std@@@std@@UEAA@XZ 0000000140016278     msvcprt:MSVCP140.dll
 0002:00000280       __imp_?_Decref@facet@locale@std@@UEAAPEAV_Facet_base@3@XZ 0000000140016280     msvcprt:MSVCP140.dll
 0002:00000288       __imp_??1?$basic_streambuf@DU?$char_traits@D@std@@@std@@UEAA@XZ 0000000140016288     msvcprt:MSVCP140.dll
 0002:00000290       __imp_?wcout@std@@3V?$basic_ostream@_WU?$char_traits@_W@std@@@1@A 0000000140016290     msvcprt:MSVCP140.dll
 0002:00000298       __imp_??1?$basic_ios@DU?$char_traits@D@std@@@std@@UEAA@XZ 0000000140016298     msvcprt:MSVCP140.dll
 0002:000002a0       __imp_??1?$basic_ios@_WU?$char_traits@_W@std@@@std@@UEAA@XZ 00000001400162a0     msvcprt:MSVCP140.dll
 0002:000002a8       __imp_?_Xlength_error@std@@YAXPEBD@Z 00000001400162a8     msvcprt:MSVCP140.dll
 0002:000002b0       __imp_??1facet@locale@std@@MEAA@XZ 00000001400162b0     msvcprt:MSVCP140.dll
 0002:000002b8       __imp_??0facet@locale@std@@IEAA@_K@Z 00000001400162b8     msvcprt:MSVCP140.dll
 0002:000002c0       __imp_?sputn@?$basic_streambuf@_WU?$char_traits@_W@std@@@std@@QEAA_JPEB_W_J@Z 00000001400162c0     msvcprt:MSVCP140.dll
 0002:000002c8       __imp_?setstate@?$basic_ios@DU?$char_traits@D@std@@@std@@QEAAXH_N@Z 00000001400162c8     msvcprt:MSVCP140.dll
 0002:000002d0       __imp_??0?$basic_streambuf@DU?$char_traits@D@std@@@std@@IEAA@XZ 00000001400162d0     msvcprt:MSVCP140.dll
 0002:000002d8       __imp_??0?$basic_streambuf@_WU?$char_traits@_W@std@@@std@@IEAA@XZ 00000001400162d8     msvcprt:MSVCP140.dll
 0002:000002e0       __imp_?_Osfx@?$basic_ostream@_WU?$char_traits@_W@std@@@std@@QEAAXXZ 00000001400162e0     msvcprt:MSVCP140.dll
 0002:000002e8       __imp_?flush@?$basic_ostream@_WU?$char_traits@_W@std@@@std@@QEAAAEAV12@XZ 00000001400162e8     msvcprt:MSVCP140.dll
 0002:000002f0       __imp_??0?$basic_ios@DU?$char_traits@D@std@@@std@@IEAA@XZ 00000001400162f0     msvcprt:MSVCP140.dll
 0002:000002f8       __imp_?xsgetn@?$basic_streambuf@_WU?$char_traits@_W@std@@@std@@MEAA_JPEA_W_J@Z 00000001400162f8     msvcprt:MSVCP140.dll
 0002:00000300       __imp_?setstate@?$basic_ios@_WU?$char_traits@_W@std@@@std@@QEAAXH_N@Z 0000000140016300     msvcprt:MSVCP140.dll
 0002:00000308       __imp_??0?$basic_ios@_WU?$char_traits@_W@std@@@std@@IEAA@XZ 0000000140016308     msvcprt:MSVCP140.dll
 0002:00000310       __imp_??0?$basic_iostream@DU?$char_traits@D@std@@@std@@QEAA@PEAV?$basic_streambuf@DU?$char_traits@D@std@@@1@@Z 0000000140016310     msvcprt:MSVCP140.dll
 0002:00000318       __imp_??0?$basic_iostream@_WU?$char_traits@_W@std@@@std@@QEAA@PEAV?$basic_streambuf@_WU?$char_traits@_W@std@@@1@@Z 0000000140016318     msvcprt:MSVCP140.dll
 0002:00000320       __imp_?rdbuf@?$basic_ios@_WU?$char_traits@_W@std@@@std@@QEAAPEAV?$basic_streambuf@_WU?$char_traits@_W@std@@@2@PEAV32@@Z 0000000140016320     msvcprt:MSVCP140.dll
 0002:00000328       __imp_??6?$basic_ostream@_WU?$char_traits@_W@std@@@std@@QEAAAEAV01@_J@Z 0000000140016328     msvcprt:MSVCP140.dll
 0002:00000330       __imp_?setbuf@?$basic_streambuf@_WU?$char_traits@_W@std@@@std@@MEAAPEAV12@PEA_W_J@Z 0000000140016330     msvcprt:MSVCP140.dll
 0002:00000338       __imp_?imbue@?$basic_streambuf@_WU?$char_traits@_W@std@@@std@@MEAAXAEBVlocale@2@@Z 0000000140016338     msvcprt:MSVCP140.dll
 0002:00000340       __imp_?_Osfx@?$basic_ostream@DU?$char_traits@D@std@@@std@@QEAAXXZ 0000000140016340     msvcprt:MSVCP140.dll
 0002:00000348       __imp_??1?$basic_streambuf@_WU?$char_traits@_W@std@@@std@@UEAA@XZ 0000000140016348     msvcprt:MSVCP140.dll
 0002:00000350       __imp_?flush@?$basic_ostream@DU?$char_traits@D@std@@@std@@QEAAAEAV12@XZ 0000000140016350     msvcprt:MSVCP140.dll
 0002:00000358       __imp_?_Xbad_alloc@std@@YAXXZ 0000000140016358     msvcprt:MSVCP140.dll
 0002:00000360       \177MSVCP140_NULL_THUNK_DATA 0000000140016360     msvcprt:MSVCP140.dll
 0002:00000368       __imp_VariantInit          0000000140016368     oleaut32:OLEAUT32.dll
 0002:00000370       __imp_VariantCopy          0000000140016370     oleaut32:OLEAUT32.dll
 0002:00000378       __imp_SysAllocStringByteLen 0000000140016378     oleaut32:OLEAUT32.dll
 0002:00000380       __imp_SysStringByteLen     0000000140016380     oleaut32:OLEAUT32.dll
 0002:00000388       __imp_SysAllocString       0000000140016388     oleaut32:OLEAUT32.dll
 0002:00000390       __imp_SysFreeString        0000000140016390     oleaut32:OLEAUT32.dll
 0002:00000398       __imp_VariantClear         0000000140016398     oleaut32:OLEAUT32.dll
 0002:000003a0       \177OLEAUT32_NULL_THUNK_DATA 00000001400163a0     oleaut32:OLEAUT32.dll
 0002:000003a8       __imp_SetWindowTextW       00000001400163a8     user32:USER32.dll
 0002:000003b0       __imp_GetDlgItem           00000001400163b0     user32:USER32.dll
 0002:000003b8       __imp_GetKeyState          00000001400163b8     user32:USER32.dll
 0002:000003c0       __imp_SendMessageW         00000001400163c0     user32:USER32.dll
 0002:000003c8       __imp_EnableWindow         00000001400163c8     user32:USER32.dll
 0002:000003d0       __imp_UpdateWindow         00000001400163d0     user32:USER32.dll
 0002:000003d8       \177USER32_NULL_THUNK_DATA 00000001400163d8     user32:USER32.dll
 0002:000003e0       __imp___std_exception_destroy 00000001400163e0     vcruntime:VCRUNTIME140.dll
 0002:000003e8       __imp___std_exception_copy 00000001400163e8     vcruntime:VCRUNTIME140.dll
 0002:000003f0       __imp_strchr               00000001400163f0     vcruntime:VCRUNTIME140.dll
 0002:000003f8       __imp__purecall            00000001400163f8     vcruntime:VCRUNTIME140.dll
 0002:00000400       __imp___C_specific_handler 0000000140016400     vcruntime:VCRUNTIME140.dll
 0002:00000408       __imp___current_exception  0000000140016408     vcruntime:VCRUNTIME140.dll
 0002:00000410       __imp___current_exception_context 0000000140016410     vcruntime:VCRUNTIME140.dll
 0002:00000418       __imp_memmove              0000000140016418     vcruntime:VCRUNTIME140.dll
 0002:00000420       __imp__CxxThrowException   0000000140016420     vcruntime:VCRUNTIME140.dll
 0002:00000428       __imp_memcpy               0000000140016428     vcruntime:VCRUNTIME140.dll
 0002:00000430       __imp___std_terminate      0000000140016430     vcruntime:VCRUNTIME140.dll
 0002:00000438       __imp_memset               0000000140016438     vcruntime:VCRUNTIME140.dll
 0002:00000440       __imp___RTDynamicCast      0000000140016440     vcruntime:VCRUNTIME140.dll
 0002:00000448       __imp_memcmp               0000000140016448     vcruntime:VCRUNTIME140.dll
 0002:00000450       \177VCRUNTIME140_NULL_THUNK_DATA 0000000140016450     vcruntime:VCRUNTIME140.dll
 0002:00000458       __imp___CxxFrameHandler4   0000000140016458     vcruntime:VCRUNTIME140_1.dll
 0002:00000460       \177VCRUNTIME140_1_NULL_THUNK_DATA 0000000140016460     vcruntime:VCRUNTIME140_1.dll
 0002:00000468       __imp__wtoi                0000000140016468     ucrt:api-ms-win-crt-convert-l1-1-0.dll
 0002:00000470       \177api-ms-win-crt-convert-l1-1-0_NULL_THUNK_DATA 0000000140016470     ucrt:api-ms-win-crt-convert-l1-1-0.dll
 0002:00000478       __imp__set_new_mode        0000000140016478     ucrt:api-ms-win-crt-heap-l1-1-0.dll
 0002:00000480       __imp_malloc               0000000140016480     ucrt:api-ms-win-crt-heap-l1-1-0.dll
 0002:00000488       __imp_realloc              0000000140016488     ucrt:api-ms-win-crt-heap-l1-1-0.dll
 0002:00000490       __imp_free                 0000000140016490     ucrt:api-ms-win-crt-heap-l1-1-0.dll
 0002:00000498       \177api-ms-win-crt-heap-l1-1-0_NULL_THUNK_DATA 0000000140016498     ucrt:api-ms-win-crt-heap-l1-1-0.dll
 0002:000004a0       __imp__configthreadlocale  00000001400164a0     ucrt:api-ms-win-crt-locale-l1-1-0.dll
 0002:000004a8       \177api-ms-win-crt-locale-l1-1-0_NULL_THUNK_DATA 00000001400164a8     ucrt:api-ms-win-crt-locale-l1-1-0.dll
 0002:000004b0       __imp___setusermatherr     00000001400164b0     ucrt:api-ms-win-crt-math-l1-1-0.dll
 0002:000004b8       \177api-ms-win-crt-math-l1-1-0_NULL_THUNK_DATA 00000001400164b8     ucrt:api-ms-win-crt-math-l1-1-0.dll
 0002:000004c0       __imp__cexit               00000001400164c0     ucrt:api-ms-win-crt-runtime-l1-1-0.dll
 0002:000004c8       __imp_terminate            00000001400164c8     ucrt:api-ms-win-crt-runtime-l1-1-0.dll
 0002:000004d0       __imp__crt_atexit          00000001400164d0     ucrt:api-ms-win-crt-runtime-l1-1-0.dll
 0002:000004d8       __imp__register_onexit_function 00000001400164d8     ucrt:api-ms-win-crt-runtime-l1-1-0.dll
 0002:000004e0       __imp__initialize_onexit_table 00000001400164e0     ucrt:api-ms-win-crt-runtime-l1-1-0.dll
 0002:000004e8       __imp__seh_filter_exe      00000001400164e8     ucrt:api-ms-win-crt-runtime-l1-1-0.dll
 0002:000004f0       __imp__register_thread_local_exe_atexit_callback 00000001400164f0     ucrt:api-ms-win-crt-runtime-l1-1-0.dll
 0002:000004f8       __imp__c_exit              00000001400164f8     ucrt:api-ms-win-crt-runtime-l1-1-0.dll
 0002:00000500       __imp__invalid_parameter_noinfo_noreturn 0000000140016500     ucrt:api-ms-win-crt-runtime-l1-1-0.dll
 0002:00000508       __imp__set_app_type        0000000140016508     ucrt:api-ms-win-crt-runtime-l1-1-0.dll
 0002:00000510       __imp__exit                0000000140016510     ucrt:api-ms-win-crt-runtime-l1-1-0.dll
 0002:00000518       __imp_exit                 0000000140016518     ucrt:api-ms-win-crt-runtime-l1-1-0.dll
 0002:00000520       __imp__initterm_e          0000000140016520     ucrt:api-ms-win-crt-runtime-l1-1-0.dll
 0002:00000528       __imp__initterm            0000000140016528     ucrt:api-ms-win-crt-runtime-l1-1-0.dll
 0002:00000530       __imp__get_wide_winmain_command_line 0000000140016530     ucrt:api-ms-win-crt-runtime-l1-1-0.dll
 0002:00000538       __imp__initialize_wide_environment 0000000140016538     ucrt:api-ms-win-crt-runtime-l1-1-0.dll
 0002:00000540       __imp__configure_wide_argv 0000000140016540     ucrt:api-ms-win-crt-runtime-l1-1-0.dll
 0002:00000548       \177api-ms-win-crt-runtime-l1-1-0_NULL_THUNK_DATA 0000000140016548     ucrt:api-ms-win-crt-runtime-l1-1-0.dll
 0002:00000550       __imp_fclose               0000000140016550     ucrt:api-ms-win-crt-stdio-l1-1-0.dll
 0002:00000558       __imp_fwrite               0000000140016558     ucrt:api-ms-win-crt-stdio-l1-1-0.dll
 0002:00000560       __imp_fopen_s              0000000140016560     ucrt:api-ms-win-crt-stdio-l1-1-0.dll
 0002:00000568       __imp___p__commode         0000000140016568     ucrt:api-ms-win-crt-stdio-l1-1-0.dll
 0002:00000570       __imp__set_fmode           0000000140016570     ucrt:api-ms-win-crt-stdio-l1-1-0.dll
 0002:00000578       \177api-ms-win-crt-stdio-l1-1-0_NULL_THUNK_DATA 0000000140016578     ucrt:api-ms-win-crt-stdio-l1-1-0.dll
 0002:00000580       __imp_?GetDefaultAccelerator@CDocument@@UEAAPEAUHACCEL__@@XZ 0000000140016580     mfc140u:mfc140u.dll
 0002:00000588       __imp_?OnIdle@CDocument@@UEAAXXZ 0000000140016588     mfc140u:mfc140u.dll
 0002:00000590       __imp_?OnLoadDocumentFromStream@CDocument@@UEAAJPEAUIStream@@K@Z 0000000140016590     mfc140u:mfc140u.dll
 0002:00000598       __imp_?OnPreviewHandlerQueryFocus@CDocument@@UEAAJPEAPEAUHWND__@@@Z 0000000140016598     mfc140u:mfc140u.dll
 0002:000005a0       __imp_?OnPreviewHandlerTranslateAccelerator@CDocument@@UEAAJPEAUtagMSG@@@Z 00000001400165a0     mfc140u:mfc140u.dll
 0002:000005a8       __imp_?OnCreatePreviewFrame@CDocument@@UEAAHXZ 00000001400165a8     mfc140u:mfc140u.dll
 0002:000005b0       __imp_?OnUnloadHandler@CDocument@@UEAAXXZ 00000001400165b0     mfc140u:mfc140u.dll
 0002:000005b8       __imp_?OnDrawThumbnail@CDocument@@UEAAXAEAVCDC@@PEAUtagRECT@@@Z 00000001400165b8     mfc140u:mfc140u.dll
 0002:000005c0       __imp_?GetThisMessageMap@CWnd@@KAPEBUAFX_MSGMAP@@XZ 00000001400165c0     mfc140u:mfc140u.dll
 0002:000005c8       __imp_?Default@CWnd@@IEAA_JXZ 00000001400165c8     mfc140u:mfc140u.dll
 0002:000005d0       __imp_?GetThisClass@CFormView@@SAPEAUCRuntimeClass@@XZ 00000001400165d0     mfc140u:mfc140u.dll
 0002:000005d8       __imp_?OnFilePrint@CView@@IEAAXXZ 00000001400165d8     mfc140u:mfc140u.dll
 0002:000005e0       __imp_?OnFilePrintPreview@CView@@IEAAXXZ 00000001400165e0     mfc140u:mfc140u.dll
 0002:000005e8       __imp_?GetThisMessageMap@CFormView@@KAPEBUAFX_MSGMAP@@XZ 00000001400165e8     mfc140u:mfc140u.dll
 0002:000005f0       __imp_??0CFormView@@IEAA@I@Z 00000001400165f0     mfc140u:mfc140u.dll
 0002:000005f8       __imp_??1CFormView@@UEAA@XZ 00000001400165f8     mfc140u:mfc140u.dll
 0002:00000600       __imp_?DeleteItem@CComboBox@@UEAAXPEAUtagDELETEITEMSTRUCT@@@Z 0000000140016600     mfc140u:mfc140u.dll
 0002:00000608       __imp_?CompareItem@CComboBox@@UEAAHPEAUtagCOMPAREITEMSTRUCT@@@Z 0000000140016608     mfc140u:mfc140u.dll
 0002:00000610       __imp_?MeasureItem@CComboBox@@UEAAXPEAUtagMEASUREITEMSTRUCT@@@Z 0000000140016610     mfc140u:mfc140u.dll
 0002:00000618       __imp_?DrawItem@CComboBox@@UEAAXPEAUtagDRAWITEMSTRUCT@@@Z 0000000140016618     mfc140u:mfc140u.dll
 0002:00000620       __imp_?Create@CComboBox@@UEAAHKAEBUtagRECT@@PEAVCWnd@@I@Z 0000000140016620     mfc140u:mfc140u.dll
 0002:00000628       __imp_?OnChildNotify@CComboBox@@MEAAHI_K_JPEA_J@Z 0000000140016628     mfc140u:mfc140u.dll
 0002:00000630       __imp_?PreTranslateMessage@CWnd@@UEAAHPEAUtagMSG@@@Z 0000000140016630     mfc140u:mfc140u.dll
 0002:00000638       __imp_?OnCommand@CWnd@@MEAAH_K_J@Z 0000000140016638     mfc140u:mfc140u.dll
 0002:00000640       __imp_?GetMessageMap@CWnd@@MEBAPEBUAFX_MSGMAP@@XZ 0000000140016640     mfc140u:mfc140u.dll
 0002:00000648       __imp_?GetRuntimeClass@CComboBox@@UEBAPEAUCRuntimeClass@@XZ 0000000140016648     mfc140u:mfc140u.dll
 0002:00000650       __imp_??0CWnd@@QEAA@XZ     0000000140016650     mfc140u:mfc140u.dll
 0002:00000658       __imp_??1CComboBox@@UEAA@XZ 0000000140016658     mfc140u:mfc140u.dll
 0002:00000660       __imp_?GetRuntimeClass@CEdit@@UEBAPEAUCRuntimeClass@@XZ 0000000140016660     mfc140u:mfc140u.dll
 0002:00000668       __imp_??1CEdit@@UEAA@XZ    0000000140016668     mfc140u:mfc140u.dll
 0002:00000670       __imp_?DDX_Control@@YAXPEAVCDataExchange@@HAEAVCWnd@@@Z 0000000140016670     mfc140u:mfc140u.dll
 0002:00000678       __imp_?PreCreateWindow@CView@@MEAAHAEAUtagCREATESTRUCTW@@@Z 0000000140016678     mfc140u:mfc140u.dll
 0002:00000680       __imp_?GetWindowTextW@CWnd@@QEBAXAEAV?$CStringT@_WV?$StrTraitMFC_DLL@_WV?$ChTraitsCRT@_W@ATL@@@@@ATL@@@Z 0000000140016680     mfc140u:mfc140u.dll
 0002:00000688       __imp_?SetWindowTextW@CWnd@@QEAAXPEB_W@Z 0000000140016688     mfc140u:mfc140u.dll
 0002:00000690       __imp_?GetDlgItem@CWnd@@QEBAPEAV1@H@Z 0000000140016690     mfc140u:mfc140u.dll
 0002:00000698       __imp_?PreTranslateMessage@CFormView@@MEAAHPEAUtagMSG@@@Z 0000000140016698     mfc140u:mfc140u.dll
 0002:000006a0       __imp_?OnInitialUpdate@CFormView@@UEAAXXZ 00000001400166a0     mfc140u:mfc140u.dll
 0002:000006a8       __imp_?GetParentFrame@CWnd@@QEBAPEAVCFrameWnd@@XZ 00000001400166a8     mfc140u:mfc140u.dll
 0002:000006b0       __imp_?ResizeParentToFit@CScrollView@@QEAAXH@Z 00000001400166b0     mfc140u:mfc140u.dll
 0002:000006b8       __imp_??4?$CStringT@_WV?$StrTraitMFC_DLL@_WV?$ChTraitsCRT@_W@ATL@@@@@ATL@@QEAAAEAV01@PEB_W@Z 00000001400166b8     mfc140u:mfc140u.dll
 0002:000006c0       __imp_?GetBuffer@?$CSimpleStringT@_W$00@ATL@@QEAAPEA_WH@Z 00000001400166c0     mfc140u:mfc140u.dll
 0002:000006c8       __imp_?EnableWindow@CWnd@@QEAAHH@Z 00000001400166c8     mfc140u:mfc140u.dll
 0002:000006d0       __imp_?Concatenate@?$CSimpleStringT@_W$00@ATL@@KAXAEAV12@PEB_WH1H@Z 00000001400166d0     mfc140u:mfc140u.dll
 0002:000006d8       __imp_?GetManager@?$CStringT@_WV?$StrTraitMFC_DLL@_WV?$ChTraitsCRT@_W@ATL@@@@@ATL@@QEBAPEAUIAtlStringMgr@2@XZ 00000001400166d8     mfc140u:mfc140u.dll
 0002:000006e0       __imp_??0?$CStringT@_WV?$StrTraitMFC_DLL@_WV?$ChTraitsCRT@_W@ATL@@@@@ATL@@QEAA@PEAUIAtlStringMgr@1@@Z 00000001400166e0     mfc140u:mfc140u.dll
 0002:000006e8       __imp_??0CFile@@QEAA@XZ    00000001400166e8     mfc140u:mfc140u.dll
 0002:000006f0       __imp_??1CFile@@UEAA@XZ    00000001400166f0     mfc140u:mfc140u.dll
 0002:000006f8       __imp_?Open@CFile@@UEAAHPEB_WIPEAVCFileException@@@Z 00000001400166f8     mfc140u:mfc140u.dll
 0002:00000700       __imp_?Close@CFile@@UEAAXXZ 0000000140016700     mfc140u:mfc140u.dll
 0002:00000708       __imp_?Read@CFile@@UEAAIPEAXI@Z 0000000140016708     mfc140u:mfc140u.dll
 0002:00000710       __imp_?FromHandle@CGdiObject@@SAPEAV1@PEAX@Z 0000000140016710     mfc140u:mfc140u.dll
 0002:00000718       __imp_?IsFrameWnd@CWnd@@UEBAHXZ 0000000140016718     mfc140u:mfc140u.dll
 0002:00000720       __imp_?Attach@CGdiObject@@QEAAHPEAX@Z 0000000140016720     mfc140u:mfc140u.dll
 0002:00000728       __imp_??_V@YAXPEAX@Z       0000000140016728     mfc140u:mfc140u.dll
 0002:00000730       __imp_?AfxGetModuleState@@YAPEAVAFX_MODULE_STATE@@XZ 0000000140016730     mfc140u:mfc140u.dll
 0002:00000738       __imp_?BeginWaitCursor@CCmdTarget@@QEAAXXZ 0000000140016738     mfc140u:mfc140u.dll
 0002:00000740       __imp_?EndWaitCursor@CCmdTarget@@QEAAXXZ 0000000140016740     mfc140u:mfc140u.dll
 0002:00000748       __imp_?IsWindowEnabled@CWnd@@QEBAHXZ 0000000140016748     mfc140u:mfc140u.dll
 0002:00000750       __imp_??0?$CStringT@_WV?$StrTraitMFC_DLL@_WV?$ChTraitsCRT@_W@ATL@@@@@ATL@@QEAA@PEB_W@Z 0000000140016750     mfc140u:mfc140u.dll
 0002:00000758       __imp_??Y?$CStringT@_WV?$StrTraitMFC_DLL@_WV?$ChTraitsCRT@_W@ATL@@@@@ATL@@QEAAAEAV01@AEBV?$CSimpleStringT@_W$00@1@@Z 0000000140016758     mfc140u:mfc140u.dll
 0002:00000760       __imp_?OnDestroy@CView@@IEAAXXZ 0000000140016760     mfc140u:mfc140u.dll
 0002:00000768       __imp_??0CStdioFile@@QEAA@XZ 0000000140016768     mfc140u:mfc140u.dll
 0002:00000770       __imp_??1CStdioFile@@UEAA@XZ 0000000140016770     mfc140u:mfc140u.dll
 0002:00000778       __imp_?Open@CStdioFile@@UEAAHPEB_WIPEAVCFileException@@@Z 0000000140016778     mfc140u:mfc140u.dll
 0002:00000780       __imp_?GetLength@CStdioFile@@UEBA_KXZ 0000000140016780     mfc140u:mfc140u.dll
 0002:00000788       __imp_??_U@YAPEAX_K@Z      0000000140016788     mfc140u:mfc140u.dll
 0002:00000790       __imp_?Read@CStdioFile@@UEAAIPEAXI@Z 0000000140016790     mfc140u:mfc140u.dll
 0002:00000798       __imp_?ReleaseBuffer@?$CSimpleStringT@_W$00@ATL@@QEAAXH@Z 0000000140016798     mfc140u:mfc140u.dll
 0002:000007a0       __imp_?Close@CStdioFile@@UEAAXXZ 00000001400167a0     mfc140u:mfc140u.dll
 0002:000007a8       __imp_?Compare@?$CStringT@_WV?$StrTraitMFC_DLL@_WV?$ChTraitsCRT@_W@ATL@@@@@ATL@@QEBAHPEB_W@Z 00000001400167a8     mfc140u:mfc140u.dll
 0002:000007b0       __imp_?OnCmdMsg@CView@@UEAAHIHPEAXPEAUAFX_CMDHANDLERINFO@@@Z 00000001400167b0     mfc140u:mfc140u.dll
 0002:000007b8       __imp_?Create@CFormView@@MEAAHPEB_W0KAEBUtagRECT@@PEAVCWnd@@IPEAUCCreateContext@@@Z 00000001400167b8     mfc140u:mfc140u.dll
 0002:000007c0       __imp_?CalcWindowRect@CScrollView@@UEAAXPEAUtagRECT@@I@Z 00000001400167c0     mfc140u:mfc140u.dll
 0002:000007c8       __imp_?GetScrollBarCtrl@CView@@UEBAPEAVCScrollBar@@H@Z 00000001400167c8     mfc140u:mfc140u.dll
 0002:000007d0       __imp_?GetAccessibleChildCount@CWnd@@QEAAJXZ 00000001400167d0     mfc140u:mfc140u.dll
 0002:000007d8       __imp_?GetAccessibleChild@CWnd@@QEAAJUtagVARIANT@@PEAPEAUIDispatch@@@Z 00000001400167d8     mfc140u:mfc140u.dll
 0002:000007e0       __imp_?GetAccessibleName@CWnd@@QEAAJUtagVARIANT@@PEAPEA_W@Z 00000001400167e0     mfc140u:mfc140u.dll
 0002:000007e8       __imp_?GetAccessibilityLocation@CWnd@@QEAAJUtagVARIANT@@PEAJ111@Z 00000001400167e8     mfc140u:mfc140u.dll
 0002:000007f0       __imp_?GetAccessibilityHitTest@CWnd@@QEAAJJJPEAUtagVARIANT@@@Z 00000001400167f0     mfc140u:mfc140u.dll
 0002:000007f8       __imp_?PostNcDestroy@CView@@MEAAXXZ 00000001400167f8     mfc140u:mfc140u.dll
 0002:00000800       __imp_?SetOccDialogInfo@CFormView@@MEAAHPEAU_AFX_OCC_DIALOG_INFO@@@Z 0000000140016800     mfc140u:mfc140u.dll
 0002:00000808       __imp_?GetOccDialogInfo@CFormView@@MEAAPEAU_AFX_OCC_DIALOG_INFO@@XZ 0000000140016808     mfc140u:mfc140u.dll
 0002:00000810       __imp_?IsSelected@CView@@UEBAHPEBVCObject@@@Z 0000000140016810     mfc140u:mfc140u.dll
 0002:00000818       __imp_?OnScroll@CScrollView@@UEAAHIIH@Z 0000000140016818     mfc140u:mfc140u.dll
 0002:00000820       __imp_?OnScrollBy@CScrollView@@UEAAHVCSize@@H@Z 0000000140016820     mfc140u:mfc140u.dll
 0002:00000828       __imp_?OnDragEnter@CView@@UEAAKPEAVCOleDataObject@@KVCPoint@@@Z 0000000140016828     mfc140u:mfc140u.dll
 0002:00000830       __imp_?OnDragOver@CView@@UEAAKPEAVCOleDataObject@@KVCPoint@@@Z 0000000140016830     mfc140u:mfc140u.dll
 0002:00000838       __imp_?OnDragLeave@CView@@UEAAXXZ 0000000140016838     mfc140u:mfc140u.dll
 0002:00000840       __imp_?OnDrop@CView@@UEAAHPEAVCOleDataObject@@KVCPoint@@@Z 0000000140016840     mfc140u:mfc140u.dll
 0002:00000848       __imp_?GetDefaultMenu@CDocument@@UEAAPEAUHMENU__@@XZ 0000000140016848     mfc140u:mfc140u.dll
 0002:00000850       __imp_?OnDragScroll@CView@@UEAAKKVCPoint@@@Z 0000000140016850     mfc140u:mfc140u.dll
 0002:00000858       __imp_?OnPrepareDC@CScrollView@@UEAAXPEAVCDC@@PEAUCPrintInfo@@@Z 0000000140016858     mfc140u:mfc140u.dll
 0002:00000860       __imp_?OnActivateView@CFormView@@MEAAXHPEAVCView@@0@Z 0000000140016860     mfc140u:mfc140u.dll
 0002:00000868       __imp_?OnActivateFrame@CFormView@@MEAAXIPEAVCFrameWnd@@@Z 0000000140016868     mfc140u:mfc140u.dll
 0002:00000870       __imp_?OnUpdate@CView@@MEAAXPEAV1@_JPEAVCObject@@@Z 0000000140016870     mfc140u:mfc140u.dll
 0002:00000878       __imp_?OnDraw@CFormView@@MEAAXPEAVCDC@@@Z 0000000140016878     mfc140u:mfc140u.dll
 0002:00000880       __imp_?OnPreparePrinting@CView@@MEAAHPEAUCPrintInfo@@@Z 0000000140016880     mfc140u:mfc140u.dll
 0002:00000888       __imp_?OnBeginPrinting@CView@@MEAAXPEAVCDC@@PEAUCPrintInfo@@@Z 0000000140016888     mfc140u:mfc140u.dll
 0002:00000890       __imp_?OnPrint@CView@@MEAAXPEAVCDC@@PEAUCPrintInfo@@@Z 0000000140016890     mfc140u:mfc140u.dll
 0002:00000898       __imp_?OnEndPrinting@CView@@MEAAXPEAVCDC@@PEAUCPrintInfo@@@Z 0000000140016898     mfc140u:mfc140u.dll
 0002:000008a0       __imp_?OnEndPrintPreview@CView@@MEAAXPEAVCDC@@PEAUCPrintInfo@@UtagPOINT@@PEAVCPreviewView@@@Z 00000001400168a0     mfc140u:mfc140u.dll
 0002:000008a8       __imp_?GetWheelScrollDistance@CScrollView@@UEAA?AVCSize@@V2@HH@Z 00000001400168a8     mfc140u:mfc140u.dll
 0002:000008b0       __imp_??0?$CStringT@DV?$StrTraitMFC_DLL@DV?$ChTraitsCRT@D@ATL@@@@@ATL@@QEAA@PEB_W@Z 00000001400168b0     mfc140u:mfc140u.dll
 0002:000008b8       __imp_??1?$CStringT@DV?$StrTraitMFC_DLL@DV?$ChTraitsCRT@D@ATL@@@@@ATL@@QEAA@XZ 00000001400168b8     mfc140u:mfc140u.dll
 0002:000008c0       __imp_?Left@?$CStringT@_WV?$StrTraitMFC_DLL@_WV?$ChTraitsCRT@_W@ATL@@@@@ATL@@QEBA?AV12@H@Z 00000001400168c0     mfc140u:mfc140u.dll
 0002:000008c8       __imp_?CheckAutoCenter@CDialog@@UEAAHXZ 00000001400168c8     mfc140u:mfc140u.dll
 0002:000008d0       __imp_?PostNcDestroy@CWnd@@MEAAXXZ 00000001400168d0     mfc140u:mfc140u.dll
 0002:000008d8       __imp_?PreTranslateMessage@CDialogEx@@UEAAHPEAUtagMSG@@@Z 00000001400168d8     mfc140u:mfc140u.dll
 0002:000008e0       __imp_?OnCommand@CDialogEx@@MEAAH_K_J@Z 00000001400168e0     mfc140u:mfc140u.dll
 0002:000008e8       __imp_?SetMenu@CWnd@@UEAAHPEAVCMenu@@@Z 00000001400168e8     mfc140u:mfc140u.dll
 0002:000008f0       __imp_?GetMenu@CWnd@@UEBAPEAVCMenu@@XZ 00000001400168f0     mfc140u:mfc140u.dll
 0002:000008f8       __imp_?PreCreateWindow@CWnd@@UEAAHAEAUtagCREATESTRUCTW@@@Z 00000001400168f8     mfc140u:mfc140u.dll
 0002:00000900       __imp_?OnCmdMsg@CDialog@@UEAAHIHPEAXPEAUAFX_CMDHANDLERINFO@@@Z 0000000140016900     mfc140u:mfc140u.dll
 0002:00000908       __imp_?GetRuntimeClass@CDialogEx@@UEBAPEAUCRuntimeClass@@XZ 0000000140016908     mfc140u:mfc140u.dll
 0002:00000910       __imp_?LoadSysPolicies@CWinApp@@UEAAHXZ 0000000140016910     mfc140u:mfc140u.dll
 0002:00000918       __imp_?LoadAppLangResourceDLL@CWinApp@@UEAAPEAUHINSTANCE__@@XZ 0000000140016918     mfc140u:mfc140u.dll
 0002:00000920       __imp_?RestartInstance@CWinApp@@UEAAHXZ 0000000140016920     mfc140u:mfc140u.dll
 0002:00000928       __imp_?IsTaskbarInteractionEnabled@CWinApp@@UEAAHXZ 0000000140016928     mfc140u:mfc140u.dll
 0002:00000930       __imp_?GetDataRecoveryHandler@CWinApp@@UEAAPEAVCDataRecoveryHandler@@XZ 0000000140016930     mfc140u:mfc140u.dll
 0002:00000938       __imp_?ApplicationRecoveryCallback@CWinApp@@UEAAKPEAX@Z 0000000140016938     mfc140u:mfc140u.dll
 0002:00000940       __imp_?RegisterWithRestartManager@CWinApp@@UEAAJHAEBV?$CStringT@_WV?$StrTraitMFC_DLL@_WV?$ChTraitsCRT@_W@ATL@@@@@ATL@@@Z 0000000140016940     mfc140u:mfc140u.dll
 0002:00000948       __imp_?RegisterWithRestartManager@CWinApp@@UEAAJPEB_WKP6AKPEAX@Z1KK@Z 0000000140016948     mfc140u:mfc140u.dll
 0002:00000950       __imp_?WinHelpInternal@CWinApp@@UEAAX_KI@Z 0000000140016950     mfc140u:mfc140u.dll
 0002:00000958       __imp_?HtmlHelpW@CWinApp@@UEAAX_KI@Z 0000000140016958     mfc140u:mfc140u.dll
 0002:00000960       __imp_?WinHelpW@CWinApp@@UEAAX_KI@Z 0000000140016960     mfc140u:mfc140u.dll
 0002:00000968       __imp_?OnDDECommand@CWinApp@@UEAAHPEA_W@Z 0000000140016968     mfc140u:mfc140u.dll
 0002:00000970       __imp_?DoWaitCursor@CWinApp@@UEAAXH@Z 0000000140016970     mfc140u:mfc140u.dll
 0002:00000978       __imp_?DoMessageBox@CWinApp@@UEAAHPEB_WII@Z 0000000140016978     mfc140u:mfc140u.dll
 0002:00000980       __imp_?SaveAllModified@CWinApp@@UEAAHXZ 0000000140016980     mfc140u:mfc140u.dll
 0002:00000988       __imp_?InitApplication@CWinApp@@UEAAHXZ 0000000140016988     mfc140u:mfc140u.dll
 0002:00000990       __imp_?AddToRecentFileList@CWinApp@@UEAAXPEB_W@Z 0000000140016990     mfc140u:mfc140u.dll
 0002:00000998       __imp_?OpenDocumentFile@CWinApp@@UEAAPEAVCDocument@@PEB_W@Z 0000000140016998     mfc140u:mfc140u.dll
 0002:000009a0       __imp_?OpenDocumentFile@CWinApp@@UEAAPEAVCDocument@@PEB_WH@Z 00000001400169a0     mfc140u:mfc140u.dll
 0002:000009a8       __imp_?Unregister@CWinApp@@UEAAHXZ 00000001400169a8     mfc140u:mfc140u.dll
 0002:000009b0       __imp_?Register@CWinApp@@UEAAHXZ 00000001400169b0     mfc140u:mfc140u.dll
 0002:000009b8       __imp_?InitLibId@CWinApp@@UEAAXXZ 00000001400169b8     mfc140u:mfc140u.dll
 0002:000009c0       __imp_?WriteProfileBinary@CWinApp@@UEAAHPEB_W0PEAEI@Z 00000001400169c0     mfc140u:mfc140u.dll
 0002:000009c8       __imp_?GetProfileBinary@CWinApp@@UEAAHPEB_W0PEAPEAEPEAI@Z 00000001400169c8     mfc140u:mfc140u.dll
 0002:000009d0       __imp_?WriteProfileStringW@CWinApp@@UEAAHPEB_W00@Z 00000001400169d0     mfc140u:mfc140u.dll
 0002:000009d8       __imp_?GetProfileStringW@CWinApp@@UEAA?AV?$CStringT@_WV?$StrTraitMFC_DLL@_WV?$ChTraitsCRT@_W@ATL@@@@@ATL@@PEB_W00@Z 00000001400169d8     mfc140u:mfc140u.dll
 0002:000009e0       __imp_?WriteProfileInt@CWinApp@@UEAAHPEB_W0H@Z 00000001400169e0     mfc140u:mfc140u.dll
 0002:000009e8       __imp_?GetProfileIntW@CWinApp@@UEAAIPEB_W0H@Z 00000001400169e8     mfc140u:mfc140u.dll
 0002:000009f0       __imp_?Delete@CWinThread@@UEAAXXZ 00000001400169f0     mfc140u:mfc140u.dll
 0002:000009f8       __imp_?GetMainWnd@CWinThread@@UEAAPEAVCWnd@@XZ 00000001400169f8     mfc140u:mfc140u.dll
 0002:00000a00       __imp_?ProcessMessageFilter@CWinThread@@UEAAHHPEAUtagMSG@@@Z 0000000140016a00     mfc140u:mfc140u.dll
 0002:00000a08       __imp_?ProcessWndProcException@CWinApp@@UEAA_JPEAVCException@@PEBUtagMSG@@@Z 0000000140016a08     mfc140u:mfc140u.dll
 0002:00000a10       __imp_?IsIdleMessage@CWinThread@@UEAAHPEAUtagMSG@@@Z 0000000140016a10     mfc140u:mfc140u.dll
 0002:00000a18       __imp_?OnIdle@CWinApp@@UEAAHJ@Z 0000000140016a18     mfc140u:mfc140u.dll
 0002:00000a20       __imp_?PumpMessage@CWinThread@@UEAAHXZ 0000000140016a20     mfc140u:mfc140u.dll
 0002:00000a28       __imp_?PreTranslateMessage@CWinThread@@UEAAHPEAUtagMSG@@@Z 0000000140016a28     mfc140u:mfc140u.dll
 0002:00000a30       __imp_?OnCmdMsg@CDocument@@UEAAHIHPEAXPEAUAFX_CMDHANDLERINFO@@@Z 0000000140016a30     mfc140u:mfc140u.dll
 0002:00000a38       __imp_?GetInterfaceMap@CCmdTarget@@MEBAPEBUAFX_INTERFACEMAP@@XZ 0000000140016a38     mfc140u:mfc140u.dll
 0002:00000a40       __imp_?OnFinalRelease@CCmdTarget@@UEAAXXZ 0000000140016a40     mfc140u:mfc140u.dll
 0002:00000a48       __imp_?OnCmdMsg@CCmdTarget@@UEAAHIHPEAXPEAUAFX_CMDHANDLERINFO@@@Z 0000000140016a48     mfc140u:mfc140u.dll
 0002:00000a50       __imp_?GetRuntimeClass@CWinApp@@UEBAPEAUCRuntimeClass@@XZ 0000000140016a50     mfc140u:mfc140u.dll
 0002:00000a58       __imp_?DoModal@CDialog@@UEAA_JXZ 0000000140016a58     mfc140u:mfc140u.dll
 0002:00000a60       __imp_?DoFileSave@CDocument@@UEAAHXZ 0000000140016a60     mfc140u:mfc140u.dll
 0002:00000a68       __imp_??1CDialogImpl@@MEAA@XZ 0000000140016a68     mfc140u:mfc140u.dll
 0002:00000a70       __imp_?GetRuntimeClass@CBrush@@UEBAPEAUCRuntimeClass@@XZ 0000000140016a70     mfc140u:mfc140u.dll
 0002:00000a78       __imp_?GetRuntimeClass@CGdiObject@@UEBAPEAUCRuntimeClass@@XZ 0000000140016a78     mfc140u:mfc140u.dll
 0002:00000a80       __imp_?DeleteObject@CGdiObject@@QEAAHXZ 0000000140016a80     mfc140u:mfc140u.dll
 0002:00000a88       __imp_??0?$CStringT@_WV?$StrTraitMFC_DLL@_WV?$ChTraitsCRT@_W@ATL@@@@@ATL@@QEAA@XZ 0000000140016a88     mfc140u:mfc140u.dll
 0002:00000a90       __imp_??1?$CStringT@_WV?$StrTraitMFC_DLL@_WV?$ChTraitsCRT@_W@ATL@@@@@ATL@@QEAA@XZ 0000000140016a90     mfc140u:mfc140u.dll
 0002:00000a98       __imp_?Format@?$CStringT@_WV?$StrTraitMFC_DLL@_WV?$ChTraitsCRT@_W@ATL@@@@@ATL@@QEAAXPEB_WZZ 0000000140016a98     mfc140u:mfc140u.dll
 0002:00000aa0       __imp_?AfxMessageBox@@YAHPEB_WII@Z 0000000140016aa0     mfc140u:mfc140u.dll
 0002:00000aa8       __imp_??1CDialog@@UEAA@XZ  0000000140016aa8     mfc140u:mfc140u.dll
 0002:00000ab0       __imp_??0CDialogEx@@QEAA@IPEAVCWnd@@@Z 0000000140016ab0     mfc140u:mfc140u.dll
 0002:00000ab8       __imp_?ExitInstance@CWinApp@@UEAAHXZ 0000000140016ab8     mfc140u:mfc140u.dll
 0002:00000ac0       __imp_?AfxOleTerm@@YAXH@Z  0000000140016ac0     mfc140u:mfc140u.dll
 0002:00000ac8       __imp_?ShowWindow@CWnd@@QEAAHH@Z 0000000140016ac8     mfc140u:mfc140u.dll
 0002:00000ad0       __imp_?AfxWinMain@@YAHPEAUHINSTANCE__@@0PEA_WH@Z 0000000140016ad0     mfc140u:mfc140u.dll
 0002:00000ad8       __imp_?ProcessShellCommand@CWinApp@@QEAAHAEAVCCommandLineInfo@@@Z 0000000140016ad8     mfc140u:mfc140u.dll
 0002:00000ae0       __imp_?ParseCommandLine@CWinApp@@QEAAXAEAVCCommandLineInfo@@@Z 0000000140016ae0     mfc140u:mfc140u.dll
 0002:00000ae8       __imp_??1CCommandLineInfo@@UEAA@XZ 0000000140016ae8     mfc140u:mfc140u.dll
 0002:00000af0       __imp_??0CCommandLineInfo@@QEAA@XZ 0000000140016af0     mfc140u:mfc140u.dll
 0002:00000af8       __imp_?AddDocTemplate@CWinApp@@QEAAXPEAVCDocTemplate@@@Z 0000000140016af8     mfc140u:mfc140u.dll
 0002:00000b00       __imp_??0CSingleDocTemplate@@QEAA@IPEAUCRuntimeClass@@00@Z 0000000140016b00     mfc140u:mfc140u.dll
 0002:00000b08       __imp_?LoadStdProfileSettings@CWinApp@@IEAAXI@Z 0000000140016b08     mfc140u:mfc140u.dll
 0002:00000b10       __imp_?SetRegistryKey@CWinApp@@IEAAXPEB_W@Z 0000000140016b10     mfc140u:mfc140u.dll
 0002:00000b18       __imp_?EnableTaskbarInteraction@CWinApp@@QEAAHH@Z 0000000140016b18     mfc140u:mfc140u.dll
 0002:00000b20       __imp_?AfxEnableControlContainer@@YAXPEAVCOccManager@@@Z 0000000140016b20     mfc140u:mfc140u.dll
 0002:00000b28       __imp_?OnDropEx@CView@@UEAAKPEAVCOleDataObject@@KKVCPoint@@@Z 0000000140016b28     mfc140u:mfc140u.dll
 0002:00000b30       __imp_?UpdateFrameCounts@CDocument@@UEAAXXZ 0000000140016b30     mfc140u:mfc140u.dll
 0002:00000b38       __imp_?AfxMessageBox@@YAHIII@Z 0000000140016b38     mfc140u:mfc140u.dll
 0002:00000b40       __imp_?AfxOleInit@@YAHXZ   0000000140016b40     mfc140u:mfc140u.dll
 0002:00000b48       __imp_?InitInstance@CWinApp@@UEAAHXZ 0000000140016b48     mfc140u:mfc140u.dll
 0002:00000b50       __imp_?SetAppID@CWinApp@@IEAAXPEB_W@Z 0000000140016b50     mfc140u:mfc140u.dll
 0002:00000b58       __imp_??1CWinApp@@UEAA@XZ  0000000140016b58     mfc140u:mfc140u.dll
 0002:00000b60       __imp_??0CWinApp@@QEAA@PEB_W@Z 0000000140016b60     mfc140u:mfc140u.dll
 0002:00000b68       __imp_?GetThisMessageMap@CWinApp@@KAPEBUAFX_MSGMAP@@XZ 0000000140016b68     mfc140u:mfc140u.dll
 0002:00000b70       __imp_?OnFilePrintSetup@CWinApp@@IEAAXXZ 0000000140016b70     mfc140u:mfc140u.dll
 0002:00000b78       __imp_?OnFileOpen@CWinApp@@IEAAXXZ 0000000140016b78     mfc140u:mfc140u.dll
 0002:00000b80       __imp_?OnFileNew@CWinApp@@IEAAXXZ 0000000140016b80     mfc140u:mfc140u.dll
 0002:00000b88       __imp_?OnHideMenuBar@CFrameWnd@@MEAAXXZ 0000000140016b88     mfc140u:mfc140u.dll
 0002:00000b90       __imp_?OnShowMenuBar@CFrameWnd@@MEAAXXZ 0000000140016b90     mfc140u:mfc140u.dll
 0002:00000b98       __imp_?ExitHelpMode@CFrameWnd@@UEAAXXZ 0000000140016b98     mfc140u:mfc140u.dll
 0002:00000ba0       __imp_?DelayUpdateFrameMenu@CFrameWnd@@UEAAXPEAUHMENU__@@@Z 0000000140016ba0     mfc140u:mfc140u.dll
 0002:00000ba8       __imp_?GetDefaultAccelerator@CFrameWnd@@UEAAPEAUHACCEL__@@XZ 0000000140016ba8     mfc140u:mfc140u.dll
 0002:00000bb0       __imp_?OnUpdateFrameMenu@CFrameWnd@@UEAAXPEAUHMENU__@@@Z 0000000140016bb0     mfc140u:mfc140u.dll
 0002:00000bb8       __imp_?OnUpdateFrameTitle@CFrameWnd@@UEAAXH@Z 0000000140016bb8     mfc140u:mfc140u.dll
 0002:00000bc0       __imp_?OnCreateClient@CFrameWnd@@MEAAHPEAUtagCREATESTRUCTW@@PEAUCCreateContext@@@Z 0000000140016bc0     mfc140u:mfc140u.dll
 0002:00000bc8       __imp_?NegotiateBorderSpace@CFrameWnd@@UEAAHIPEAUtagRECT@@@Z 0000000140016bc8     mfc140u:mfc140u.dll
 0002:00000bd0       __imp_?GetMessageBar@CFrameWnd@@UEAAPEAVCWnd@@XZ 0000000140016bd0     mfc140u:mfc140u.dll
 0002:00000bd8       __imp_?OnSetPreviewMode@CFrameWnd@@UEAAXHPEAUCPrintPreviewState@@@Z 0000000140016bd8     mfc140u:mfc140u.dll
 0002:00000be0       __imp_?GetMenuBarState@CFrameWnd@@UEBAKXZ 0000000140016be0     mfc140u:mfc140u.dll
 0002:00000be8       __imp_?SetMenuBarState@CFrameWnd@@UEAAHK@Z 0000000140016be8     mfc140u:mfc140u.dll
 0002:00000bf0       __imp_?GetMenuBarVisibility@CFrameWnd@@UEBAKXZ 0000000140016bf0     mfc140u:mfc140u.dll
 0002:00000bf8       __imp_?SetMenuBarVisibility@CFrameWnd@@UEAAXK@Z 0000000140016bf8     mfc140u:mfc140u.dll
 0002:00000c00       __imp_?ActivateFrame@CFrameWnd@@UEAAXH@Z 0000000140016c00     mfc140u:mfc140u.dll
 0002:00000c08       __imp_?RecalcLayout@CFrameWnd@@UEAAXH@Z 0000000140016c08     mfc140u:mfc140u.dll
 0002:00000c10       __imp_?GetMessageString@CFrameWnd@@UEBAXIAEAV?$CStringT@_WV?$StrTraitMFC_DLL@_WV?$ChTraitsCRT@_W@ATL@@@@@ATL@@@Z 0000000140016c10     mfc140u:mfc140u.dll
 0002:00000c18       __imp_?GetActiveFrame@CFrameWnd@@UEAAPEAV1@XZ 0000000140016c18     mfc140u:mfc140u.dll
 0002:00000c20       __imp_?GetActiveDocument@CFrameWnd@@UEAAPEAVCDocument@@XZ 0000000140016c20     mfc140u:mfc140u.dll
 0002:00000c28       __imp_?LoadFrame@CFrameWnd@@UEAAHIKPEAVCWnd@@PEAUCCreateContext@@@Z 0000000140016c28     mfc140u:mfc140u.dll
 0002:00000c30       __imp_?Create@CFrameWnd@@UEAAHPEB_W0KAEBUtagRECT@@PEAVCWnd@@0KPEAUCCreateContext@@@Z 0000000140016c30     mfc140u:mfc140u.dll
 0002:00000c38       __imp_?GetOccDialogInfo@CWnd@@MEAAPEAU_AFX_OCC_DIALOG_INFO@@XZ 0000000140016c38     mfc140u:mfc140u.dll
 0002:00000c40       __imp_?SetOccDialogInfo@CWnd@@MEAAHPEAU_AFX_OCC_DIALOG_INFO@@@Z 0000000140016c40     mfc140u:mfc140u.dll
 0002:00000c48       __imp_?CreateControlSite@CWnd@@MEAAHPEAVCOleControlContainer@@PEAPEAVCOleControlSite@@IAEBU_GUID@@@Z 0000000140016c48     mfc140u:mfc140u.dll
 0002:00000c50       __imp_?CreateControlContainer@CWnd@@MEAAHPEAPEAVCOleControlContainer@@@Z 0000000140016c50     mfc140u:mfc140u.dll
 0002:00000c58       __imp_?IsFrameWnd@CFrameWnd@@UEBAHXZ 0000000140016c58     mfc140u:mfc140u.dll
 0002:00000c60       __imp_?CheckAutoCenter@CWnd@@UEAAHXZ 0000000140016c60     mfc140u:mfc140u.dll
 0002:00000c68       __imp_?ResizeDynamicLayout@CWnd@@MEAAXXZ 0000000140016c68     mfc140u:mfc140u.dll
 0002:00000c70       __imp_?OnGesturePressAndTap@CWnd@@MEAAHVCPoint@@J@Z 0000000140016c70     mfc140u:mfc140u.dll
 0002:00000c78       __imp_?OnGestureTwoFingerTap@CWnd@@MEAAHVCPoint@@@Z 0000000140016c78     mfc140u:mfc140u.dll
 0002:00000c80       __imp_?OnGestureRotate@CWnd@@MEAAHVCPoint@@N@Z 0000000140016c80     mfc140u:mfc140u.dll
 0002:00000c88       __imp_?OnGesturePan@CWnd@@MEAAHVCPoint@@0@Z 0000000140016c88     mfc140u:mfc140u.dll
 0002:00000c90       __imp_?OnGestureZoom@CWnd@@MEAAHVCPoint@@J@Z 0000000140016c90     mfc140u:mfc140u.dll
 0002:00000c98       __imp_?GetGestureStatus@CWnd@@MEAAKVCPoint@@@Z 0000000140016c98     mfc140u:mfc140u.dll
 0002:00000ca0       __imp_?OnTouchInput@CWnd@@MEAAHVCPoint@@HHPEAUtagTOUCHINPUT@@@Z 0000000140016ca0     mfc140u:mfc140u.dll
 0002:00000ca8       __imp_?OnTouchInputs@CWnd@@MEAAHIPEAUtagTOUCHINPUT@@@Z 0000000140016ca8     mfc140u:mfc140u.dll
 0002:00000cb0       __imp_?OnChildNotify@CWnd@@MEAAHI_K_JPEA_J@Z 0000000140016cb0     mfc140u:mfc140u.dll
 0002:00000cb8       __imp_?PostNcDestroy@CFrameWnd@@MEAAXXZ 0000000140016cb8     mfc140u:mfc140u.dll
 0002:00000cc0       __imp_?DefWindowProcW@CWnd@@MEAA_JI_K_J@Z 0000000140016cc0     mfc140u:mfc140u.dll
 0002:00000cc8       __imp_?OnWndMsg@CWnd@@MEAAHI_K_JPEA_J@Z 0000000140016cc8     mfc140u:mfc140u.dll
 0002:00000cd0       __imp_?WindowProc@CWnd@@MEAA_JI_K_J@Z 0000000140016cd0     mfc140u:mfc140u.dll
 0002:00000cd8       __imp_?OnAmbientProperty@CWnd@@UEAAHPEAVCOleControlSite@@JPEAUtagVARIANT@@@Z 0000000140016cd8     mfc140u:mfc140u.dll
 0002:00000ce0       __imp_?PreTranslateMessage@CFrameWnd@@UEAAHPEAUtagMSG@@@Z 0000000140016ce0     mfc140u:mfc140u.dll
 0002:00000ce8       __imp_?EndModalState@CFrameWnd@@UEAAXXZ 0000000140016ce8     mfc140u:mfc140u.dll
 0002:00000cf0       __imp_?BeginModalState@CFrameWnd@@UEAAXXZ 0000000140016cf0     mfc140u:mfc140u.dll
 0002:00000cf8       __imp_?GetSuperWndProcAddr@CWnd@@MEAAPEAP6A_JPEAUHWND__@@I_K_J@ZXZ 0000000140016cf8     mfc140u:mfc140u.dll
 0002:00000d00       __imp_?OnNotify@CWnd@@MEAAH_K_JPEA_J@Z 0000000140016d00     mfc140u:mfc140u.dll
 0002:00000d08       __imp_?OnCommand@CFrameWnd@@MEAAH_K_J@Z 0000000140016d08     mfc140u:mfc140u.dll
 0002:00000d10       __imp_?CreateAccessibleProxy@CWnd@@UEAAJ_K_JPEA_J@Z 0000000140016d10     mfc140u:mfc140u.dll
 0002:00000d18       __imp_?SetProxy@CWnd@@UEAAJPEAUIAccessibleProxy@@@Z 0000000140016d18     mfc140u:mfc140u.dll
 0002:00000d20       __imp_?put_accValue@CWnd@@UEAAJUtagVARIANT@@PEA_W@Z 0000000140016d20     mfc140u:mfc140u.dll
 0002:00000d28       __imp_?put_accName@CWnd@@UEAAJUtagVARIANT@@PEA_W@Z 0000000140016d28     mfc140u:mfc140u.dll
 0002:00000d30       __imp_?accDoDefaultAction@CWnd@@UEAAJUtagVARIANT@@@Z 0000000140016d30     mfc140u:mfc140u.dll
 0002:00000d38       __imp_?accHitTest@CWnd@@UEAAJJJPEAUtagVARIANT@@@Z 0000000140016d38     mfc140u:mfc140u.dll
 0002:00000d40       __imp_?accNavigate@CWnd@@UEAAJJUtagVARIANT@@PEAU2@@Z 0000000140016d40     mfc140u:mfc140u.dll
 0002:00000d48       __imp_?accLocation@CWnd@@UEAAJPEAJ000UtagVARIANT@@@Z 0000000140016d48     mfc140u:mfc140u.dll
 0002:00000d50       __imp_?accSelect@CWnd@@UEAAJJUtagVARIANT@@@Z 0000000140016d50     mfc140u:mfc140u.dll
 0002:00000d58       __imp_?get_accDefaultAction@CWnd@@UEAAJUtagVARIANT@@PEAPEA_W@Z 0000000140016d58     mfc140u:mfc140u.dll
 0002:00000d60       __imp_?get_accSelection@CWnd@@UEAAJPEAUtagVARIANT@@@Z 0000000140016d60     mfc140u:mfc140u.dll
 0002:00000d68       __imp_?get_accFocus@CWnd@@UEAAJPEAUtagVARIANT@@@Z 0000000140016d68     mfc140u:mfc140u.dll
 0002:00000d70       __imp_?get_accKeyboardShortcut@CWnd@@UEAAJUtagVARIANT@@PEAPEA_W@Z 0000000140016d70     mfc140u:mfc140u.dll
 0002:00000d78       __imp_?get_accHelpTopic@CWnd@@UEAAJPEAPEA_WUtagVARIANT@@PEAJ@Z 0000000140016d78     mfc140u:mfc140u.dll
 0002:00000d80       __imp_?get_accHelp@CWnd@@UEAAJUtagVARIANT@@PEAPEA_W@Z 0000000140016d80     mfc140u:mfc140u.dll
 0002:00000d88       __imp_?get_accState@CWnd@@UEAAJUtagVARIANT@@PEAU2@@Z 0000000140016d88     mfc140u:mfc140u.dll
 0002:00000d90       __imp_?get_accRole@CWnd@@UEAAJUtagVARIANT@@PEAU2@@Z 0000000140016d90     mfc140u:mfc140u.dll
 0002:00000d98       __imp_?get_accDescription@CWnd@@UEAAJUtagVARIANT@@PEAPEA_W@Z 0000000140016d98     mfc140u:mfc140u.dll
 0002:00000da0       __imp_?get_accValue@CWnd@@UEAAJUtagVARIANT@@PEAPEA_W@Z 0000000140016da0     mfc140u:mfc140u.dll
 0002:00000da8       __imp_?get_accName@CWnd@@UEAAJUtagVARIANT@@PEAPEA_W@Z 0000000140016da8     mfc140u:mfc140u.dll
 0002:00000db0       __imp_?get_accChild@CWnd@@UEAAJUtagVARIANT@@PEAPEAUIDispatch@@@Z 0000000140016db0     mfc140u:mfc140u.dll
 0002:00000db8       __imp_?get_accChildCount@CWnd@@UEAAJPEAJ@Z 0000000140016db8     mfc140u:mfc140u.dll
 0002:00000dc0       __imp_?get_accParent@CWnd@@UEAAJPEAPEAUIDispatch@@@Z 0000000140016dc0     mfc140u:mfc140u.dll
 0002:00000dc8       __imp_?EnsureStdObj@CWnd@@UEAAJXZ 0000000140016dc8     mfc140u:mfc140u.dll
 0002:00000dd0       __imp_?OnDrawIconicThumbnailOrLivePreview@CWnd@@UEAAXAEAVCDC@@VCRect@@VCSize@@HAEAH@Z 0000000140016dd0     mfc140u:mfc140u.dll
 0002:00000dd8       __imp_?EndModalLoop@CWnd@@UEAAXH@Z 0000000140016dd8     mfc140u:mfc140u.dll
 0002:00000de0       __imp_?ContinueModal@CWnd@@UEAAHXZ 0000000140016de0     mfc140u:mfc140u.dll
 0002:00000de8       __imp_?WinHelpInternal@CWnd@@UEAAX_KI@Z 0000000140016de8     mfc140u:mfc140u.dll
 0002:00000df0       __imp_?HtmlHelpW@CWnd@@UEAAX_KI@Z 0000000140016df0     mfc140u:mfc140u.dll
 0002:00000df8       __imp_?WinHelpW@CWnd@@UEAAX_KI@Z 0000000140016df8     mfc140u:mfc140u.dll
 0002:00000e00       __imp_?GetScrollBarCtrl@CWnd@@UEBAPEAVCScrollBar@@H@Z 0000000140016e00     mfc140u:mfc140u.dll
 0002:00000e08       __imp_?OnToolHitTest@CWnd@@UEBA_JVCPoint@@PEAUtagTOOLINFOW@@@Z 0000000140016e08     mfc140u:mfc140u.dll
 0002:00000e10       __imp_?SetMenu@CFrameWnd@@UEAAHPEAVCMenu@@@Z 0000000140016e10     mfc140u:mfc140u.dll
 0002:00000e18       __imp_?GetMenu@CFrameWnd@@UEBAPEAVCMenu@@XZ 0000000140016e18     mfc140u:mfc140u.dll
 0002:00000e20       __imp_?CalcWindowRect@CWnd@@UEAAXPEAUtagRECT@@I@Z 0000000140016e20     mfc140u:mfc140u.dll
 0002:00000e28       __imp_?DestroyWindow@CWnd@@UEAAHXZ 0000000140016e28     mfc140u:mfc140u.dll
 0002:00000e30       __imp_?CreateEx@CWnd@@UEAAHKPEB_W0KHHHHPEAUHWND__@@PEAUHMENU__@@PEAX@Z 0000000140016e30     mfc140u:mfc140u.dll
 0002:00000e38       __imp_?CreateEx@CWnd@@UEAAHKPEB_W0KAEBUtagRECT@@PEAV1@IPEAX@Z 0000000140016e38     mfc140u:mfc140u.dll
 0002:00000e40       __imp_?Create@CWnd@@UEAAHPEB_W0KAEBUtagRECT@@PEAV1@IPEAUCCreateContext@@@Z 0000000140016e40     mfc140u:mfc140u.dll
 0002:00000e48       __imp_?PreSubclassWindow@CWnd@@UEAAXXZ 0000000140016e48     mfc140u:mfc140u.dll
 0002:00000e50       __imp_?GetConnectionHook@CCmdTarget@@MEAAPEAUIConnectionPoint@@AEBU_GUID@@@Z 0000000140016e50     mfc140u:mfc140u.dll
 0002:00000e58       __imp_?GetExtraConnectionPoints@CCmdTarget@@MEAAHPEAVCPtrArray@@@Z 0000000140016e58     mfc140u:mfc140u.dll
 0002:00000e60       __imp_?GetInterfaceHook@CCmdTarget@@UEAAPEAUIUnknown@@PEBX@Z 0000000140016e60     mfc140u:mfc140u.dll
 0002:00000e68       __imp_?OnCreateAggregates@CCmdTarget@@UEAAHXZ 0000000140016e68     mfc140u:mfc140u.dll
 0002:00000e70       __imp_?GetEventSinkMap@CCmdTarget@@MEBAPEBUAFX_EVENTSINKMAP@@XZ 0000000140016e70     mfc140u:mfc140u.dll
 0002:00000e78       __imp_?GetInterfaceMap@CWnd@@MEBAPEBUAFX_INTERFACEMAP@@XZ 0000000140016e78     mfc140u:mfc140u.dll
 0002:00000e80       __imp_?GetConnectionMap@CCmdTarget@@MEBAPEBUAFX_CONNECTIONMAP@@XZ 0000000140016e80     mfc140u:mfc140u.dll
 0002:00000e88       __imp_?GetDispatchMap@CCmdTarget@@MEBAPEBUAFX_DISPMAP@@XZ 0000000140016e88     mfc140u:mfc140u.dll
 0002:00000e90       __imp_?GetCommandMap@CCmdTarget@@MEBAPEBUAFX_OLECMDMAP@@XZ 0000000140016e90     mfc140u:mfc140u.dll
 0002:00000e98       __imp_?GetTypeLib@CCmdTarget@@UEAAJKPEAPEAUITypeLib@@@Z 0000000140016e98     mfc140u:mfc140u.dll
 0002:00000ea0       __imp_?GetTypeLibCache@CCmdTarget@@UEAAPEAVCTypeLibCache@@XZ 0000000140016ea0     mfc140u:mfc140u.dll
 0002:00000ea8       __imp_?GetTypeInfoCount@CCmdTarget@@UEAAIXZ 0000000140016ea8     mfc140u:mfc140u.dll
 0002:00000eb0       __imp_?GetDispatchIID@CCmdTarget@@UEAAHPEAU_GUID@@@Z 0000000140016eb0     mfc140u:mfc140u.dll
 0002:00000eb8       __imp_?IsInvokeAllowed@CCmdTarget@@UEAAHJ@Z 0000000140016eb8     mfc140u:mfc140u.dll
 0002:00000ec0       __imp_?OnNewDocument@CDocument@@UEAAHXZ 0000000140016ec0     mfc140u:mfc140u.dll
 0002:00000ec8       __imp_?OnFinalRelease@CWnd@@UEAAXXZ 0000000140016ec8     mfc140u:mfc140u.dll
 0002:00000ed0       __imp_?OnCmdMsg@CFrameWnd@@UEAAHIHPEAXPEAUAFX_CMDHANDLERINFO@@@Z 0000000140016ed0     mfc140u:mfc140u.dll
 0002:00000ed8       __imp_?PreCreateWindow@CFrameWnd@@MEAAHAEAUtagCREATESTRUCTW@@@Z 0000000140016ed8     mfc140u:mfc140u.dll
 0002:00000ee0       __imp_?DockControlBar@CFrameWnd@@QEAAXPEAVCControlBar@@IPEBUtagRECT@@@Z 0000000140016ee0     mfc140u:mfc140u.dll
 0002:00000ee8       __imp_?EnableDocking@CFrameWnd@@QEAAXK@Z 0000000140016ee8     mfc140u:mfc140u.dll
 0002:00000ef0       __imp_?EnableDocking@CControlBar@@QEAAXK@Z 0000000140016ef0     mfc140u:mfc140u.dll
 0002:00000ef8       __imp_?SetIndicators@CStatusBar@@QEAAHPEBIH@Z 0000000140016ef8     mfc140u:mfc140u.dll
 0002:00000f00       __imp_?LoadToolBar@CToolBar@@QEAAHPEB_W@Z 0000000140016f00     mfc140u:mfc140u.dll
 0002:00000f08       __imp_?OnCreate@CFrameWnd@@IEAAHPEAUtagCREATESTRUCTW@@@Z 0000000140016f08     mfc140u:mfc140u.dll
 0002:00000f10       __imp_??1CStatusBar@@UEAA@XZ 0000000140016f10     mfc140u:mfc140u.dll
 0002:00000f18       __imp_??0CStatusBar@@QEAA@XZ 0000000140016f18     mfc140u:mfc140u.dll
 0002:00000f20       __imp_??1CToolBar@@UEAA@XZ 0000000140016f20     mfc140u:mfc140u.dll
 0002:00000f28       __imp_??0CToolBar@@QEAA@XZ 0000000140016f28     mfc140u:mfc140u.dll
 0002:00000f30       __imp_??1CFrameWnd@@UEAA@XZ 0000000140016f30     mfc140u:mfc140u.dll
 0002:00000f38       __imp_??1CDocument@@UEAA@XZ 0000000140016f38     mfc140u:mfc140u.dll
 0002:00000f40       __imp_??0CDocument@@QEAA@XZ 0000000140016f40     mfc140u:mfc140u.dll
 0002:00000f48       __imp_?DoSave@CDocument@@UEAAHPEB_WH@Z 0000000140016f48     mfc140u:mfc140u.dll
 0002:00000f50       __imp_?GetThisMessageMap@CDocument@@KAPEBUAFX_MSGMAP@@XZ 0000000140016f50     mfc140u:mfc140u.dll
 0002:00000f58       __imp_?PreCloseFrame@CDocument@@UEAAXPEAVCFrameWnd@@@Z 0000000140016f58     mfc140u:mfc140u.dll
 0002:00000f60       __imp_?SaveModified@CDocument@@UEAAHXZ 0000000140016f60     mfc140u:mfc140u.dll
 0002:00000f68       __imp_?CanCloseFrame@CDocument@@UEAAHPEAVCFrameWnd@@@Z 0000000140016f68     mfc140u:mfc140u.dll
 0002:00000f70       __imp_?GetThisClass@CDocument@@SAPEAUCRuntimeClass@@XZ 0000000140016f70     mfc140u:mfc140u.dll
 0002:00000f78       __imp_?PreInitDialog@CDialog@@MEAAXXZ 0000000140016f78     mfc140u:mfc140u.dll
 0002:00000f80       __imp_?OnCancel@CDialog@@MEAAXXZ 0000000140016f80     mfc140u:mfc140u.dll
 0002:00000f88       __imp_?OnDocumentEvent@CDocument@@UEAAXW4DocumentEvent@1@@Z 0000000140016f88     mfc140u:mfc140u.dll
 0002:00000f90       __imp_?OnRichPreviewUnload@CDocument@@UEAAXXZ 0000000140016f90     mfc140u:mfc140u.dll
 0002:00000f98       __imp_?OnOK@CDialog@@MEAAXXZ 0000000140016f98     mfc140u:mfc140u.dll
 0002:00000fa0       __imp_?ReleaseFile@CDocument@@UEAAXPEAVCFile@@H@Z 0000000140016fa0     mfc140u:mfc140u.dll
 0002:00000fa8       __imp_?GetFile@CDocument@@UEAAPEAVCFile@@PEB_WIPEAVCFileException@@@Z 0000000140016fa8     mfc140u:mfc140u.dll
 0002:00000fb0       __imp_?ReportSaveLoadException@CDocument@@UEAAXPEB_WPEAVCException@@HI@Z 0000000140016fb0     mfc140u:mfc140u.dll
 0002:00000fb8       __imp_?OnCloseDocument@CDocument@@UEAAXXZ 0000000140016fb8     mfc140u:mfc140u.dll
 0002:00000fc0       __imp_?OnSaveDocument@CDocument@@UEAAHPEB_W@Z 0000000140016fc0     mfc140u:mfc140u.dll
 0002:00000fc8       __imp_?OnOpenDocument@CDocument@@UEAAHPEB_W@Z 0000000140016fc8     mfc140u:mfc140u.dll
 0002:00000fd0       __imp_?DeleteContents@CDocument@@UEAAXXZ 0000000140016fd0     mfc140u:mfc140u.dll
 0002:00000fd8       __imp_?OnChangedViewList@CDocument@@UEAAXXZ 0000000140016fd8     mfc140u:mfc140u.dll
 0002:00000fe0       __imp_?GetNextView@CDocument@@UEBAPEAVCView@@AEAPEAU__POSITION@@@Z 0000000140016fe0     mfc140u:mfc140u.dll
 0002:00000fe8       __imp_?GetFirstViewPosition@CDocument@@UEBAPEAU__POSITION@@XZ 0000000140016fe8     mfc140u:mfc140u.dll
 0002:00000ff0       __imp_?ClearPathName@CDocument@@UEAAXXZ 0000000140016ff0     mfc140u:mfc140u.dll
 0002:00000ff8       __imp_?OnSetFont@CDialog@@UEAAXPEAVCFont@@@Z 0000000140016ff8     mfc140u:mfc140u.dll
 0002:00001000       __imp_?OnInitDialog@CDialog@@UEAAHXZ 0000000140017000     mfc140u:mfc140u.dll
 0002:00001008       __imp_?SetPathName@CDocument@@UEAAXPEB_WH@Z 0000000140017008     mfc140u:mfc140u.dll
 0002:00001010       __imp_?SetTitle@CDocument@@UEAAXPEB_W@Z 0000000140017010     mfc140u:mfc140u.dll
 0002:00001018       __imp_?LoadDocumentFromStream@CDocument@@UEAAJPEAUIStream@@K@Z 0000000140017018     mfc140u:mfc140u.dll
 0002:00001020       __imp_?BeginReadChunks@CDocument@@UEAAXXZ 0000000140017020     mfc140u:mfc140u.dll
 0002:00001028       __imp_?GetThumbnail@CDocument@@UEAAHIPEAPEAUHBITMAP__@@PEAW4WTS_ALPHATYPE@@@Z 0000000140017028     mfc140u:mfc140u.dll
 0002:00001030       __imp_?ClearChunkList@CDocument@@UEAAXXZ 0000000140017030     mfc140u:mfc140u.dll
 0002:00001038       __imp_?SetChunkValue@CDocument@@UEAAHPEAUIFilterChunkValue@ATL@@@Z 0000000140017038     mfc140u:mfc140u.dll
 0002:00001040       __imp_?ReadNextChunkValue@CDocument@@UEAAHPEAPEAUIFilterChunkValue@ATL@@@Z 0000000140017040     mfc140u:mfc140u.dll
 0002:00001048       __imp_?RemoveChunk@CDocument@@UEAAXAEBU_GUID@@K@Z 0000000140017048     mfc140u:mfc140u.dll
 0002:00001050       __imp_?FindChunk@CDocument@@UEAAPEAU__POSITION@@AEBU_GUID@@K@Z 0000000140017050     mfc140u:mfc140u.dll
 0002:00001058       __imp_?Delete@CException@@QEAAXXZ 0000000140017058     mfc140u:mfc140u.dll
 0002:00001060       __imp_?GetInterfaceMap@CDocument@@MEBAPEBUAFX_INTERFACEMAP@@XZ 0000000140017060     mfc140u:mfc140u.dll
 0002:00001068       __imp_?CreateIndirect@CDialog@@UEAAHPEBUDLGTEMPLATE@@PEAVCWnd@@PEAX@Z 0000000140017068     mfc140u:mfc140u.dll
 0002:00001070       __imp_?CreateIndirect@CDialog@@UEAAHPEAXPEAVCWnd@@@Z 0000000140017070     mfc140u:mfc140u.dll
 0002:00001078       __imp_?GetThisMessageMap@CDialogEx@@KAPEBUAFX_MSGMAP@@XZ 0000000140017078     mfc140u:mfc140u.dll
 0002:00001080       __imp_?Create@CDialog@@UEAAHPEB_WPEAVCWnd@@@Z 0000000140017080     mfc140u:mfc140u.dll
 0002:00001088       __imp_?OnFinalRelease@CDocument@@UEAAXXZ 0000000140017088     mfc140u:mfc140u.dll
 0002:00001090       __imp_?GetOccDialogInfo@CDialog@@MEAAPEAU_AFX_OCC_DIALOG_INFO@@XZ 0000000140017090     mfc140u:mfc140u.dll
 0002:00001098       __imp_?Run@CWinApp@@UEAAHXZ 0000000140017098     mfc140u:mfc140u.dll
 0002:000010a0       __imp_?SetOccDialogInfo@CDialog@@MEAAHPEAU_AFX_OCC_DIALOG_INFO@@@Z 00000001400170a0     mfc140u:mfc140u.dll
 0002:000010a8       __imp_??0CFrameWnd@@QEAA@XZ 00000001400170a8     mfc140u:mfc140u.dll
 0002:000010b0       __imp_?GetThisMessageMap@CFrameWnd@@KAPEBUAFX_MSGMAP@@XZ 00000001400170b0     mfc140u:mfc140u.dll
 0002:000010b8       __imp_?GetThisClass@CFrameWnd@@SAPEAUCRuntimeClass@@XZ 00000001400170b8     mfc140u:mfc140u.dll
 0002:000010c0       __imp_??2@YAPEAX_K@Z       00000001400170c0     mfc140u:mfc140u.dll
 0002:000010c8       __imp_?GetRuntimeClass@CFont@@UEBAPEAUCRuntimeClass@@XZ 00000001400170c8     mfc140u:mfc140u.dll
 0002:000010d0       __imp_??3@YAXPEAX@Z        00000001400170d0     mfc140u:mfc140u.dll
 0002:000010d8       \177mfc140u_NULL_THUNK_DATA 00000001400170d8     mfc140u:mfc140u.dll
 0002:000010e0       __imp_CoInitialize         00000001400170e0     ole32:ole32.dll
 0002:000010e8       __imp_CoCreateInstance     00000001400170e8     ole32:ole32.dll
 0002:000010f0       \177ole32_NULL_THUNK_DATA  00000001400170f0     ole32:ole32.dll
 0002:000010f8       __guard_check_icall_fptr   00000001400170f8     msvcrt:guard_support.obj
 0002:00001100       __guard_xfg_check_icall_fptr 0000000140017100     msvcrt:guard_support.obj
 0002:00001108       __guard_dispatch_icall_fptr 0000000140017108     msvcrt:guard_support.obj
 0002:00001110       __guard_xfg_dispatch_icall_fptr 0000000140017110     msvcrt:guard_support.obj
 0002:00001118       __guard_xfg_table_dispatch_icall_fptr 0000000140017118     msvcrt:guard_support.obj
 0002:00001120       __castguard_check_failure_os_handled_fptr 0000000140017120     msvcrt:guard_support.obj
 0002:00001128       __guard_memcpy_fptr        0000000140017128     vcruntime:softmemtag.obj
 0002:00001130       __xc_a                     0000000140017130     msvcrt:initializers.obj
 0002:00001168       __xc_z                     0000000140017168     msvcrt:initializers.obj
 0002:00001170       __xi_a                     0000000140017170     msvcrt:initializers.obj
 0002:00001188       __xi_z                     0000000140017188     msvcrt:initializers.obj
 0002:00001190       __xl_a                     0000000140017190     msvcrt:tlssup.obj
 0002:00001198       __xl_z                     0000000140017198     msvcrt:tlssup.obj
 0002:000011a0       __xp_a                     00000001400171a0     msvcrt:initializers.obj
 0002:000011a8       __xp_z                     00000001400171a8     msvcrt:initializers.obj
 0002:000011b0       __xt_a                     00000001400171b0     msvcrt:initializers.obj
 0002:000011b8       __xt_z                     00000001400171b8     msvcrt:initializers.obj
 0002:000011c8       ??_7type_info@@6B@         00000001400171c8     msvcrt:std_type_info_static.obj
 0002:000011d0       __xmm@ffffffffffffffffffffffffffffffff 00000001400171d0     msvcrt:utility.obj
 0002:000011f0       IID_IUnknown               00000001400171f0     uuid:unknwn_i.obj
 0002:00001200       GUID_ATLVer110             0000000140017200     atls:atlbase.obj
 0002:00001210       ??_C@_1IC@ONKHOIDK@?$AAE?$AAR?$AAR?$AAO?$AAR?$AA?5?$AA?3?$AA?5?$AAU?$AAn?$AAa?$AAb?$AAl?$AAe?$AA?5@ 0000000140017210     atls:atlbase.obj
 0002:00001298       ??_7_com_error@@6B@        0000000140017298     comsuppw:comraise.obj
 0002:000012e0       CLSID_XMLHTTP60            00000001400172e0     msxml6:msxml6_i.obj
 0002:000012f0       ??_C@_0L@GOKPKJAL@CMainFrame@ 00000001400172f0     MainFrm.obj
 0002:00001308       ??_7CMainFrame@@6B@        0000000140017308     MainFrm.obj
 0002:000016f0       ?classCMainFrame@CMainFrame@@2UCRuntimeClass@@B 00000001400176f0     MainFrm.obj
 0002:00001720       ??_C@_1DA@BEMNJDFC@?$AAM?$AAF?$AAC?$AAE?$AAd?$AAi?$AAt?$AA?4?$AAA?$AAp?$AAp?$AAI?$AAD?$AA?4?$AAN@ 0000000140017720     MFCEdit.obj
 0002:00001750       ??_C@_1EE@HOJFMPCP@?$PP?$KC?$PP?W?$PP?j?$PP?$LB?$PP?$PM?$PP?$LH?$PP?g?$PP?s?$AA?5?$PP?$KG?$PP?$KD?$PP?$LG?$PP?$PM?$PP?I?$AAg@ 0000000140017750     MFCEdit.obj
 0002:000017d0       ??_7CBrush@@6B@            00000001400177d0     MFCEdit.obj
 0002:00001800       ??_7CGdiObject@@6B@        0000000140017800     MFCEdit.obj
 0002:00001828       ??_C@_1CC@GGIAOFGJ@?$AA?$CF?$AAT?$AAs?$AA?5?$AA?$CI?$AA?$CF?$AAT?$AAs?$AA?3?$AA?$CF?$AAd?$AA?$CJ?$AA?6?$AA?$CF?$AAT@ 0000000140017828     MFCEdit.obj
 0002:00001850       ??_C@_1OA@OICBIDAB@?$AAC?$AA?3?$AA?2?$AAP?$AAr?$AAo?$AAg?$AAr?$AAa?$AAm?$AA?5?$AAF?$AAi?$AAl?$AAe@ 0000000140017850     MFCEdit.obj
 0002:00001930       ??_C@_1DO@DFDGGJKE@?$AAE?$AAx?$AAc?$AAe?$AAp?$AAt?$AAi?$AAo?$AAn?$AA?5?$AAt?$AAh?$AAr?$AAo?$AAw@ 0000000140017930     MFCEdit.obj
 0002:00001970       ??_C@_1BK@CAEGKIAC@?$AA?$CF?$AAT?$AAs?$AA?5?$AA?$CI?$AA?$CF?$AAT?$AAs?$AA?3?$AA?$CF?$AAd?$AA?$CJ@ 0000000140017970     MFCEdit.obj
 0002:00001998       ??_7CAboutDlg@@6B@         0000000140017998     MFCEdit.obj
 0002:00001cc8       ??_7CMFCEditApp@@6B@       0000000140017cc8     MFCEdit.obj
 0002:00001fb0       ??_C@_0M@IOLAIHKM@CMFCEditDoc@ 0000000140017fb0     MFCEditDoc.obj
 0002:00001fc8       ??_7IDocument@ATL@@6B@     0000000140017fc8     MFCEditDoc.obj
 0002:00002038       ??_7CDocumentAdapter@CDocument@@6B@ 0000000140018038     MFCEditDoc.obj
 0002:000020a8       ??_7CMFCEditDoc@@6B@       00000001400180a8     MFCEditDoc.obj
 0002:00002308       ?classCMFCEditDoc@CMFCEditDoc@@2UCRuntimeClass@@B 0000000140018308     MFCEditDoc.obj
 0002:00002338       ??_C@_13KDLDGPGJ@?$AA?7@   0000000140018338     MFCEditView.obj
 0002:00002340       ??_C@_0N@IEFGFHPJ@CMFCEditView@ 0000000140018340     MFCEditView.obj
 0002:00002350       ??_C@_17CEAMNBIG@?$AAA?$AAI?$AAQ@ 0000000140018350     MFCEditView.obj
 0002:00002358       ??_C@_1BK@PBGNBLKL@?$AAv?$AAa?$AAr?$AA?5?$AAa?$AA?0?$AAb?$AA?0?$AAc?$AA?$DL?$AA?$AN?$AA?6@ 0000000140018358     MFCEditView.obj
 0002:00002378       ??_C@_1CI@GFPCKMDE@?$AA?$AN?$AA?6?$AAf?$AAu?$AAn?$AAc?$AA?5?$AAt?$AAe?$AAm?$AAp?$AAl?$AAa?$AAt?$AAe@ 0000000140018378     MFCEditView.obj
 0002:000023a0       ??_C@_1CK@MFPOILEG@?$AAb?$AAe?$AAg?$AAi?$AAn?$AA?$AN?$AA?6?$AA?7?$AA?$AN?$AA?6?$AA?7?$AA?$AN?$AA?6?$AAe?$AAn@ 00000001400183a0     MFCEditView.obj
 0002:000023cc       ??_C@_15PCEAIKAA@?$AA?4?$AA?2@ 00000001400183cc     MFCEditView.obj
 0002:000023d8       ??_C@_1BI@FLCGNDFP@?$AAo?$AAu?$AAt?$AAp?$AAu?$AAt?$AA?5?$AAv?$AAi?$AAe?$AAw@ 00000001400183d8     MFCEditView.obj
 0002:000023f0       ??_C@_19HMEDOBKD@?$PP?a?$PP?$KE?$PP?j?$PP?$KK@ 00000001400183f0     MFCEditView.obj
 0002:00002400       ??_C@_1M@ECCAGBOJ@?$AAM?$AAS?$AA?5?$AA?$AO?$AA?$BN@ 0000000140018400     MFCEditView.obj
 0002:00002410       ??_C@_1BE@OMMHOOBI@?$AAF?$AAi?$AAr?$AAa?$AA?5?$AAC?$AAo?$AAd?$AAe@ 0000000140018410     MFCEditView.obj
 0002:00002428       ??_C@_1BK@JGKGLEIF@?$AAs?$AAc?$AAr?$AAi?$AAp?$AAt?$AA?2?$AA?$CK?$AA?4?$AAt?$AAx?$AAt@ 0000000140018428     MFCEditView.obj
 0002:00002448       ??_C@_1BC@KMHABLMG@?$AAi?$AAn?$AAi?$AAt?$AA?4?$AAb?$AAi?$AAn@ 0000000140018448     MFCEditView.obj
 0002:0000245c       ??_C@_03HAPOJHBM@GET@      000000014001845c     MFCEditView.obj
 0002:00002460       ??_C@_1EM@NCBDLPKG@?$AAM?$AAo?$AAz?$AAi?$AAl?$AAl?$AAa?$AA?1?$AA5?$AA?4?$AA0?$AA?5?$AA?$CI?$AAc?$AAo@ 0000000140018460     MFCEditView.obj
 0002:000024b0       ??_C@_1BG@OILBOCEN@?$AAU?$AAs?$AAe?$AAr?$AA?9?$AAA?$AAg?$AAe?$AAn?$AAt@ 00000001400184b0     MFCEditView.obj
 0002:000024c8       ??_C@_15JNBOKNOG@?$AA?$AN?$AA?6@ 00000001400184c8     MFCEditView.obj
 0002:000024d0       ??_C@_13EBCNDICG@?$AA?3@   00000001400184d0     MFCEditView.obj
 0002:000024d8       ??_C@_1O@PHBBLDEN@?$AAr?$AAe?$AAs?$AAu?$AAl?$AAt@ 00000001400184d8     MFCEditView.obj
 0002:000024e8       ??_C@_19NKDEKIPM@?$AAj?$AAs?$AAo?$AAn@ 00000001400184e8     MFCEditView.obj
 0002:000024f8       ??_C@_1BE@MMJBFEGG@?$AAQ?$AAu?$AAe?$AAr?$AAy?$AA?5?$AAe?$AAr?$AAr@ 00000001400184f8     MFCEditView.obj
 0002:00002510       ??_C@_1BA@GAFHLBHG@?$AAi?$AAn?$AAe?$AAt?$AAG?$AAe?$AAt@ 0000000140018510     MFCEditView.obj
 0002:00002520       ??_C@_1M@KBCLFMHN@?$AAv?$AAa?$AAl?$AAu?$AAe@ 0000000140018520     MFCEditView.obj
 0002:00002530       ??_C@_1BO@EPAFOIHD@?$AAr?$AAe?$AAa?$AAd?$AA_?$AAf?$AAi?$AAl?$AAe?$AA_?$AAu?$AAt?$AAf?$AA8@ 0000000140018530     MFCEditView.obj
 0002:00002550       ??_C@_1BA@ICANLBCA@?$AAs?$AAu?$AAc?$AAc?$AAe?$AAs?$AAs@ 0000000140018550     MFCEditView.obj
 0002:00002560       ??_C@_19BCDHFEBA@?$AAt?$AAe?$AAs?$AAt@ 0000000140018560     MFCEditView.obj
 0002:00002570       ??_C@_19GCEOPFEI@?$AAt?$AAo?$AAo?$AAl@ 0000000140018570     MFCEditView.obj
 0002:00002580       ??_C@_1O@KLFMMJAJ@?$AAs?$AAt?$AAa?$AAt?$AAu?$AAs@ 0000000140018580     MFCEditView.obj
 0002:00002590       ??_C@_1BG@FGCOJABM@?$AAI?$AAn?$AAv?$AAo?$AAk?$AAe?$AA?5?$AAe?$AAr?$AAr@ 0000000140018590     MFCEditView.obj
 0002:000025a8       ??_C@_17LOEMLNJP@?$AA_?$AAa?$AAp@ 00000001400185a8     MFCEditView.obj
 0002:000025b0       ??_C@_1BI@IJEBFFMH@?$AAH?$AAe?$AAl?$AAl?$AAo?$AA?5?$AAw?$AAo?$AAr?$AAl?$AAd@ 00000001400185b0     MFCEditView.obj
 0002:000025c8       ??_C@_19NACPGGMO@?$AAm?$AAa?$AAi?$AAn@ 00000001400185c8     MFCEditView.obj
 0002:000025d8       ??_C@_1BA@ENONEHDP@?$AAs?$AAc?$AAr?$AAi?$AAp?$AAt?$AA?2@ 00000001400185d8     MFCEditView.obj
 0002:000025e8       ??_C@_01NOFIACDB@w@        00000001400185e8     MFCEditView.obj
 0002:000025f0       ??_C@_1GG@KNJGAJCC@?$AAh?$AAt?$AAt?$AAp?$AAs?$AA?3?$AA?1?$AA?1?$AAq?$AAu?$AAe?$AAr?$AAy?$AA1?$AA?4@ 00000001400185f0     MFCEditView.obj
 0002:00002658       ??_C@_1BK@DHKKPNCJ@?$AA?$CG?$AAi?$AAn?$AAt?$AAe?$AAr?$AAv?$AAa?$AAl?$AA?$DN?$AA1?$AAd@ 0000000140018658     MFCEditView.obj
 0002:00002678       ??_C@_1BE@GFMBDLGC@?$AA?$CG?$AAp?$AAe?$AAr?$AAi?$AAo?$AAd?$AA2?$AA?$DN@ 0000000140018678     MFCEditView.obj
 0002:00002690       ??_C@_1BE@PLCPAPBN@?$AA?$DP?$AAp?$AAe?$AAr?$AAi?$AAo?$AAd?$AA1?$AA?$DN@ 0000000140018690     MFCEditView.obj
 0002:000026a8       ??_C@_0BA@FOIKENOD@vector?5too?5long@ 00000001400186a8     MFCEditView.obj
 0002:000026b8       ??_C@_0BC@KBDMBKEH@deque?$DMT?$DO?5too?5long@ 00000001400186b8     MFCEditView.obj
 0002:000026d0       ??_C@_0BG@EOMJEIFA@vector?$DMbool?$DO?5too?5long@ 00000001400186d0     MFCEditView.obj
 0002:000026e8       ??_C@_05IIMHCHIO@alnum@    00000001400186e8     MFCEditView.obj
 0002:000026f0       ??_C@_1M@KLMEPMCM@?$AAa?$AAl?$AAn?$AAu?$AAm@ 00000001400186f0     MFCEditView.obj
 0002:000026fc       ??_C@_05IAEKHIAN@alpha@    00000001400186fc     MFCEditView.obj
 0002:00002708       ??_C@_1M@DHGLHBMI@?$AAa?$AAl?$AAp?$AAh?$AAa@ 0000000140018708     MFCEditView.obj
 0002:00002714       ??_C@_05BABJKOGB@blank@    0000000140018714     MFCEditView.obj
 0002:00002720       ??_C@_1M@EJAAJBPE@?$AAb?$AAl?$AAa?$AAn?$AAk@ 0000000140018720     MFCEditView.obj
 0002:0000272c       ??_C@_05JMDPEFNK@cntrl@    000000014001872c     MFCEditView.obj
 0002:00002738       ??_C@_1M@LMIMILA@?$AAc?$AAn?$AAt?$AAr?$AAl@ 0000000140018738     MFCEditView.obj
 0002:00002744       ??_C@_01LPLHEDKD@d@        0000000140018744     MFCEditView.obj
 0002:00002748       ??_C@_13GKPPEALH@?$AAd@    0000000140018748     MFCEditView.obj
 0002:0000274c       ??_C@_05ODNOIFML@digit@    000000014001874c     MFCEditView.obj
 0002:00002758       ??_C@_1M@JDAEIBKG@?$AAd?$AAi?$AAg?$AAi?$AAt@ 0000000140018758     MFCEditView.obj
 0002:00002764       ??_C@_05KCJBMLII@graph@    0000000140018764     MFCEditView.obj
 0002:00002770       ??_C@_1M@MDKNJLLK@?$AAg?$AAr?$AAa?$AAp?$AAh@ 0000000140018770     MFCEditView.obj
 0002:0000277c       ??_C@_05IPJEPLHL@lower@    000000014001877c     MFCEditView.obj
 0002:00002788       ??_C@_1M@LGAECJJD@?$AAl?$AAo?$AAw?$AAe?$AAr@ 0000000140018788     MFCEditView.obj
 0002:00002794       ??_C@_05IJDJACGD@print@    0000000140018794     MFCEditView.obj
 0002:000027a0       ??_C@_1M@ELNLAPLA@?$AAp?$AAr?$AAi?$AAn?$AAt@ 00000001400187a0     MFCEditView.obj
 0002:000027ac       ??_C@_05KOBGHFJJ@punct@    00000001400187ac     MFCEditView.obj
 0002:000027b8       ??_C@_1M@BPFMAOAO@?$AAp?$AAu?$AAn?$AAc?$AAt@ 00000001400187b8     MFCEditView.obj
 0002:000027c4       ??_C@_05OLNILLAB@space@    00000001400187c4     MFCEditView.obj
 0002:000027d0       ??_C@_1M@LPGODFOM@?$AAs?$AAp?$AAa?$AAc?$AAe@ 00000001400187d0     MFCEditView.obj
 0002:000027dc       ??_C@_01LKDEMHDF@s@        00000001400187dc     MFCEditView.obj
 0002:000027e0       ??_C@_13KHDBCPJB@?$AAs@    00000001400187e0     MFCEditView.obj
 0002:000027e4       ??_C@_05NECKJAMC@upper@    00000001400187e4     MFCEditView.obj
 0002:000027f0       ??_C@_1M@PLNFCNIC@?$AAu?$AAp?$AAp?$AAe?$AAr@ 00000001400187f0     MFCEditView.obj
 0002:000027fc       ??_C@_13CIFDLIMG@?$AAw@    00000001400187fc     MFCEditView.obj
 0002:00002800       ??_C@_06BAPHGFFK@xdigit@   0000000140018800     MFCEditView.obj
 0002:00002808       ??_C@_1O@OAFMJDHN@?$AAx?$AAd?$AAi?$AAg?$AAi?$AAt@ 0000000140018808     MFCEditView.obj
 0002:00002820       ?_Names@?1???$lookup_classname@PEB_W@?$_Regex_traits@_W@std@@QEBAFPEB_W0_N@Z@4QBU_Cl_names@2@B 0000000140018820     MFCEditView.obj
 0002:000029a8       ??_7?$_Node_str@_W@std@@6B@ 00000001400189a8     MFCEditView.obj
 0002:000029b0       ?_Meta_map@?1??_Trans@?$_Parser@PEB_W_WV?$regex_traits@_W@std@@@std@@AEAAXXZ@4QBDB 00000001400189b0     MFCEditView.obj
 0002:000029d0       ??_7?$_Node_class@_WV?$regex_traits@_W@std@@@std@@6B@ 00000001400189d0     MFCEditView.obj
 0002:000029e0       ??_7?$_Ref_count_obj2@Ust@?1??Value@CVARIANTTool@@IEAA?AUtagVARIANT@@U4@0@Z@@std@@6B@ 00000001400189e0     MFCEditView.obj
 0002:00002a00       ??_C@_08EPJLHIJG@bad?5cast@ 0000000140018a00     MFCEditView.obj
 0002:00002a18       ??_7bad_cast@std@@6B@      0000000140018a18     MFCEditView.obj
 0002:00002a30       ??_7?$collate@_W@std@@6B@  0000000140018a30     MFCEditView.obj
 0002:00002a60       ??_8?$basic_stringstream@DU?$char_traits@D@std@@V?$allocator@D@2@@std@@7B?$basic_ostream@DU?$char_traits@D@std@@@1@@ 0000000140018a60     MFCEditView.obj
 0002:00002a60       ??_8?$basic_stringstream@_WU?$char_traits@_W@std@@V?$allocator@_W@2@@std@@7B?$basic_ostream@_WU?$char_traits@_W@std@@@1@@ 0000000140018a60     MFCEditView.obj
 0002:00002a68       ??_8?$basic_stringstream@DU?$char_traits@D@std@@V?$allocator@D@2@@std@@7B?$basic_istream@DU?$char_traits@D@std@@@1@@ 0000000140018a68     MFCEditView.obj
 0002:00002a68       ??_8?$basic_stringstream@_WU?$char_traits@_W@std@@V?$allocator@_W@2@@std@@7B?$basic_istream@_WU?$char_traits@_W@std@@@1@@ 0000000140018a68     MFCEditView.obj
 0002:00002a78       ??_7?$basic_stringstream@_WU?$char_traits@_W@std@@V?$allocator@_W@2@@std@@6B@ 0000000140018a78     MFCEditView.obj
 0002:00002a88       ??_7?$basic_stringbuf@_WU?$char_traits@_W@std@@V?$allocator@_W@2@@std@@6B@ 0000000140018a88     MFCEditView.obj
 0002:00002b00       _GUID_ed8c108d_4349_11d2_91a4_00c04f7969e8 0000000140018b00     MFCEditView.obj
 0002:00002b18       ??_7?$basic_stringstream@DU?$char_traits@D@std@@V?$allocator@D@2@@std@@6B@ 0000000140018b18     MFCEditView.obj
 0002:00002b28       ??_7?$basic_stringbuf@DU?$char_traits@D@std@@V?$allocator@D@2@@std@@6B@ 0000000140018b28     MFCEditView.obj
 0002:00002ba0       ??_C@_11LOCGONAA@@         0000000140018ba0     MFCEditView.obj
 0002:00002bb0       ??_C@_1OA@JPLPFBPB@?$AAC?$AA?3?$AA?2?$AAP?$AAr?$AAo?$AAg?$AAr?$AAa?$AAm?$AA?5?$AAF?$AAi?$AAl?$AAe@ 0000000140018bb0     MFCEditView.obj
 0002:00002c98       ??_7IVARIANTApplication@@6B@ 0000000140018c98     MFCEditView.obj
 0002:00002cd8       ??_7CVARIANTTool@@6B@      0000000140018cd8     MFCEditView.obj
 0002:00002d18       ??_7CFont@@6B@             0000000140018d18     MFCEditView.obj
 0002:00002d40       ??_C@_15KNBIKKIN@?$AA?$CF?$AAd@ 0000000140018d40     MFCEditView.obj
 0002:00002d50       ??_7CSimpleEdit@@6B@       0000000140018d50     MFCEditView.obj
 0002:00003028       ??_C@_0BA@JFNIOLAK@string?5too?5long@ 0000000140019028     MFCEditView.obj
 0002:00003040       ??_C@_0BF@KINCDENJ@bad?5array?5new?5length@ 0000000140019040     MFCEditView.obj
 0002:00003060       ??_7bad_array_new_length@std@@6B@ 0000000140019060     MFCEditView.obj
 0002:00003078       ??_7bad_alloc@std@@6B@     0000000140019078     MFCEditView.obj
 0002:00003090       ??_7CComboBox@@6B@         0000000140019090     MFCEditView.obj
 0002:00003398       ??_7CMFCEditView@@6B@      0000000140019398     MFCEditView.obj
 0002:000038d0       ?classCMFCEditView@CMFCEditView@@2UCRuntimeClass@@B 00000001400198d0     MFCEditView.obj
 0002:00003958       ??_7_Node_rep@std@@6B@     0000000140019958     MFCEditView.obj
 0002:00003968       ??_7_Node_end_rep@std@@6B@ 0000000140019968     MFCEditView.obj
 0002:00003978       ??_7_Node_if@std@@6B@      0000000140019978     MFCEditView.obj
 0002:00003988       ??_7_Node_endif@std@@6B@   0000000140019988     MFCEditView.obj
 0002:00003998       ??_7_Node_back@std@@6B@    0000000140019998     MFCEditView.obj
 0002:000039a8       ??_7_Node_capture@std@@6B@ 00000001400199a8     MFCEditView.obj
 0002:000039b8       ??_7_Node_assert@std@@6B@  00000001400199b8     MFCEditView.obj
 0002:000039c8       ??_7_Node_end_group@std@@6B@ 00000001400199c8     MFCEditView.obj
 0002:000039d8       ??_7_Root_node@std@@6B@    00000001400199d8     MFCEditView.obj
 0002:000039e8       ??_7_Node_base@std@@6B@    00000001400199e8     MFCEditView.obj
 0002:000039f0       ?_Is_word_table@?1??_Is_word@std@@YA_NE@Z@4QB_NB 00000001400199f0     MFCEditView.obj
 0002:00003af8       ??_7exception@std@@6B@     0000000140019af8     MFCEditView.obj
 0002:00003b08       ??_C@_0BC@EOODALEL@Unknown?5exception@ 0000000140019b08     MFCEditView.obj
 0002:00003b28       ??_7IVARIANTAbstract@@6B@  0000000140019b28     MFCEditView.obj
 0002:00003b60       __xmm@00000000000000070000000000000000 0000000140019b60     MFCEditView.obj
 0002:00003b70       __xmm@000000000000000f0000000000000000 0000000140019b70     MFCEditView.obj
 0002:00003b80       __xmm@000003f0000003e9000003f2000003e8 0000000140019b80     MFCEditView.obj
 0002:00003b90       __xmm@000003f0000003f2000003e8000003e9 0000000140019b90     MFCEditView.obj
 0002:00003ba0       _load_config_used          0000000140019ba0     msvcrt:loadcfg.obj
 0002:00003d80       _tls_used                  0000000140019d80     msvcrt:tlssup.obj
 0002:00003db0       ??_R4type_info@@6B@        0000000140019db0     msvcrt:std_type_info_static.obj
 0002:00003dd8       ??_R3type_info@@8          0000000140019dd8     msvcrt:std_type_info_static.obj
 0002:00003df0       ??_R2type_info@@8          0000000140019df0     msvcrt:std_type_info_static.obj
 0002:00003e00       ??_R1A@?0A@EA@type_info@@8 0000000140019e00     msvcrt:std_type_info_static.obj
 0002:00003e28       ??_R2CMainFrame@@8         0000000140019e28     MainFrm.obj
 0002:00003e58       ??_R2CWnd@@8               0000000140019e58     MainFrm.obj
 0002:00003e78       ??_R3CWnd@@8               0000000140019e78     MainFrm.obj
 0002:00003e90       ??_R1A@?0A@EA@CWnd@@8      0000000140019e90     MainFrm.obj
 0002:00003eb8       ??_R2CCmdTarget@@8         0000000140019eb8     MainFrm.obj
 0002:00003ed0       ??_R3CCmdTarget@@8         0000000140019ed0     MainFrm.obj
 0002:00003ee8       ??_R1A@?0A@EA@CCmdTarget@@8 0000000140019ee8     MainFrm.obj
 0002:00003f10       ??_R2CObject@@8            0000000140019f10     MainFrm.obj
 0002:00003f20       ??_R3CObject@@8            0000000140019f20     MainFrm.obj
 0002:00003f38       ??_R1A@?0A@EA@CObject@@8   0000000140019f38     MainFrm.obj
 0002:00003f60       ??_R2CFrameWnd@@8          0000000140019f60     MainFrm.obj
 0002:00003f88       ??_R3CFrameWnd@@8          0000000140019f88     MainFrm.obj
 0002:00003fa0       ??_R1A@?0A@EA@CFrameWnd@@8 0000000140019fa0     MainFrm.obj
 0002:00003fc8       ??_R1A@?0A@EA@CMainFrame@@8 0000000140019fc8     MainFrm.obj
 0002:00003ff0       ??_R3CMainFrame@@8         0000000140019ff0     MainFrm.obj
 0002:00004008       ??_R4CMainFrame@@6B@       000000014001a008     MainFrm.obj
 0002:00004030       ??_R2CAboutDlg@@8          000000014001a030     MFCEdit.obj
 0002:00004068       ??_R2CDialogEx@@8          000000014001a068     MFCEdit.obj
 0002:00004098       ??_R2CMFCEditApp@@8        000000014001a098     MFCEdit.obj
 0002:000040c8       ??_R2CWinApp@@8            000000014001a0c8     MFCEdit.obj
 0002:000040f0       ??_R2CWinThread@@8         000000014001a0f0     MFCEdit.obj
 0002:00004110       ??_R1A@?0A@EA@CAboutDlg@@8 000000014001a110     MFCEdit.obj
 0002:00004138       ??_R2CDialog@@8            000000014001a138     MFCEdit.obj
 0002:00004160       ??_R3CDialog@@8            000000014001a160     MFCEdit.obj
 0002:00004178       ??_R1A@?0A@EA@CDialog@@8   000000014001a178     MFCEdit.obj
 0002:000041a0       ??_R1A@?0A@EA@CDialogEx@@8 000000014001a1a0     MFCEdit.obj
 0002:000041c8       ??_R1A@?0A@EA@CMFCEditApp@@8 000000014001a1c8     MFCEdit.obj
 0002:000041f0       ??_R1A@?0A@EA@CWinApp@@8   000000014001a1f0     MFCEdit.obj
 0002:00004218       ??_R1A@?0A@EA@CWinThread@@8 000000014001a218     MFCEdit.obj
 0002:00004240       ??_R3CDialogEx@@8          000000014001a240     MFCEdit.obj
 0002:00004258       ??_R3CAboutDlg@@8          000000014001a258     MFCEdit.obj
 0002:00004270       ??_R3CWinApp@@8            000000014001a270     MFCEdit.obj
 0002:00004288       ??_R3CWinThread@@8         000000014001a288     MFCEdit.obj
 0002:000042a0       ??_R3CMFCEditApp@@8        000000014001a2a0     MFCEdit.obj
 0002:000042b8       ??_R4CAboutDlg@@6B@        000000014001a2b8     MFCEdit.obj
 0002:000042e0       ??_R4CMFCEditApp@@6B@      000000014001a2e0     MFCEdit.obj
 0002:00004308       ??_R1A@?0A@EA@CBrush@@8    000000014001a308     MFCEdit.obj
 0002:00004330       ??_R2CBrush@@8             000000014001a330     MFCEdit.obj
 0002:00004350       ??_R3CBrush@@8             000000014001a350     MFCEdit.obj
 0002:00004368       ??_R4CBrush@@6B@           000000014001a368     MFCEdit.obj
 0002:00004390       ??_R1A@?0A@EA@CGdiObject@@8 000000014001a390     MFCEdit.obj
 0002:000043b8       ??_R2CGdiObject@@8         000000014001a3b8     MFCEdit.obj
 0002:000043d0       ??_R3CGdiObject@@8         000000014001a3d0     MFCEdit.obj
 0002:000043e8       ??_R4CGdiObject@@6B@       000000014001a3e8     MFCEdit.obj
 0002:00004410       ??_R2CMFCEditDoc@@8        000000014001a410     MFCEditDoc.obj
 0002:00004438       ??_R2CDocument@@8          000000014001a438     MFCEditDoc.obj
 0002:00004458       ??_R1A@?0A@EA@CMFCEditDoc@@8 000000014001a458     MFCEditDoc.obj
 0002:00004480       ??_R1A@?0A@EA@CDocument@@8 000000014001a480     MFCEditDoc.obj
 0002:000044a8       ??_R3CDocument@@8          000000014001a4a8     MFCEditDoc.obj
 0002:000044c0       ??_R3CMFCEditDoc@@8        000000014001a4c0     MFCEditDoc.obj
 0002:000044d8       ??_R1A@?0A@EA@CDocumentAdapter@CDocument@@8 000000014001a4d8     MFCEditDoc.obj
 0002:00004500       ??_R2CDocumentAdapter@CDocument@@8 000000014001a500     MFCEditDoc.obj
 0002:00004518       ??_R3CDocumentAdapter@CDocument@@8 000000014001a518     MFCEditDoc.obj
 0002:00004530       ??_R4CDocumentAdapter@CDocument@@6B@ 000000014001a530     MFCEditDoc.obj
 0002:00004558       ??_R1A@?0A@EA@IDocument@ATL@@8 000000014001a558     MFCEditDoc.obj
 0002:00004580       ??_R2IDocument@ATL@@8      000000014001a580     MFCEditDoc.obj
 0002:00004590       ??_R3IDocument@ATL@@8      000000014001a590     MFCEditDoc.obj
 0002:000045a8       ??_R4IDocument@ATL@@6B@    000000014001a5a8     MFCEditDoc.obj
 0002:000045d0       ??_R4CMFCEditDoc@@6B@      000000014001a5d0     MFCEditDoc.obj
 0002:000045f8       ??_R2?$_Node_str@_W@std@@8 000000014001a5f8     MFCEditView.obj
 0002:00004610       ??_R2?$_Node_class@_WV?$regex_traits@_W@std@@@std@@8 000000014001a610     MFCEditView.obj
 0002:00004628       ??_R2?$_Ref_count_obj2@Ust@?1??Value@CVARIANTTool@@IEAA?AUtagVARIANT@@U4@0@Z@@std@@8 000000014001a628     MFCEditView.obj
 0002:00004640       ??_R2IVARIANTApplication@@8 000000014001a640     MFCEditView.obj
 0002:00004660       ??_R2CVARIANTTool@@8       000000014001a660     MFCEditView.obj
 0002:00004680       ??_R2_Node_end_rep@std@@8  000000014001a680     MFCEditView.obj
 0002:00004698       ??_R2_Node_rep@std@@8      000000014001a698     MFCEditView.obj
 0002:000046b0       ??_R2_Node_if@std@@8       000000014001a6b0     MFCEditView.obj
 0002:000046c8       ??_R2_Node_endif@std@@8    000000014001a6c8     MFCEditView.obj
 0002:000046e0       ??_R2_Node_back@std@@8     000000014001a6e0     MFCEditView.obj
 0002:000046f8       ??_R2_Node_capture@std@@8  000000014001a6f8     MFCEditView.obj
 0002:00004710       ??_R2_Node_assert@std@@8   000000014001a710     MFCEditView.obj
 0002:00004728       ??_R2_Node_end_group@std@@8 000000014001a728     MFCEditView.obj
 0002:00004740       ??_R2_Root_node@std@@8     000000014001a740     MFCEditView.obj
 0002:00004758       ??_R2_Node_base@std@@8     000000014001a758     MFCEditView.obj
 0002:00004768       ??_R2?$collate@_W@std@@8   000000014001a768     MFCEditView.obj
 0002:00004790       ??_R2IVARIANTAbstract@@8   000000014001a790     MFCEditView.obj
 0002:000047a8       ??_R2CMFCEditView@@8       000000014001a7a8     MFCEditView.obj
 0002:000047e8       ??_R2CFormView@@8          000000014001a7e8     MFCEditView.obj
 0002:00004820       ??_R2CScrollView@@8        000000014001a820     MFCEditView.obj
 0002:00004850       ??_R2CView@@8              000000014001a850     MFCEditView.obj
 0002:00004878       ??_R2CSimpleEdit@@8        000000014001a878     MFCEditView.obj
 0002:000048b0       ??_R2?$basic_stringstream@_WU?$char_traits@_W@std@@V?$allocator@_W@2@@std@@8 000000014001a8b0     MFCEditView.obj
 0002:00004910       ??_R2?$basic_iostream@_WU?$char_traits@_W@std@@@std@@8 000000014001a910     MFCEditView.obj
 0002:00004960       ??_R2?$basic_ostream@_WU?$char_traits@_W@std@@@std@@8 000000014001a960     MFCEditView.obj
 0002:00004988       ??_R2?$basic_istream@_WU?$char_traits@_W@std@@@std@@8 000000014001a988     MFCEditView.obj
 0002:000049b0       ??_R2?$basic_ios@_WU?$char_traits@_W@std@@@std@@8 000000014001a9b0     MFCEditView.obj
 0002:000049d0       ??_R2?$basic_stringbuf@_WU?$char_traits@_W@std@@V?$allocator@_W@2@@std@@8 000000014001a9d0     MFCEditView.obj
 0002:000049e8       ??_R2?$basic_streambuf@_WU?$char_traits@_W@std@@@std@@8 000000014001a9e8     MFCEditView.obj
 0002:00004a00       ??_R2?$basic_stringstream@DU?$char_traits@D@std@@V?$allocator@D@2@@std@@8 000000014001aa00     MFCEditView.obj
 0002:00004a60       ??_R2?$basic_iostream@DU?$char_traits@D@std@@@std@@8 000000014001aa60     MFCEditView.obj
 0002:00004ab0       ??_R2?$basic_ostream@DU?$char_traits@D@std@@@std@@8 000000014001aab0     MFCEditView.obj
 0002:00004ad8       ??_R2?$basic_istream@DU?$char_traits@D@std@@@std@@8 000000014001aad8     MFCEditView.obj
 0002:00004b00       ??_R2?$basic_ios@DU?$char_traits@D@std@@@std@@8 000000014001ab00     MFCEditView.obj
 0002:00004b20       ??_R2ios_base@std@@8       000000014001ab20     MFCEditView.obj
 0002:00004b38       ??_R2?$_Iosb@H@std@@8      000000014001ab38     MFCEditView.obj
 0002:00004b48       ??_R2?$basic_stringbuf@DU?$char_traits@D@std@@V?$allocator@D@2@@std@@8 000000014001ab48     MFCEditView.obj
 0002:00004b60       ??_R2?$basic_streambuf@DU?$char_traits@D@std@@@std@@8 000000014001ab60     MFCEditView.obj
 0002:00004b70       ??_R1A@?0A@EA@?$_Node_str@_W@std@@8 000000014001ab70     MFCEditView.obj
 0002:00004b98       ??_R1A@?0A@EA@?$_Node_class@_WV?$regex_traits@_W@std@@@std@@8 000000014001ab98     MFCEditView.obj
 0002:00004bc0       ??_R2_Ref_count_base@std@@8 000000014001abc0     MFCEditView.obj
 0002:00004bd0       ??_R3_Ref_count_base@std@@8 000000014001abd0     MFCEditView.obj
 0002:00004be8       ??_R1A@?0A@EA@_Ref_count_base@std@@8 000000014001abe8     MFCEditView.obj
 0002:00004c10       ??_R1A@?0A@EA@?$_Ref_count_obj2@Ust@?1??Value@CVARIANTTool@@IEAA?AUtagVARIANT@@U4@0@Z@@std@@8 000000014001ac10     MFCEditView.obj
 0002:00004c38       ??_R1A@?0A@EA@IVARIANTApplication@@8 000000014001ac38     MFCEditView.obj
 0002:00004c60       ??_R1A@?0A@EA@CVARIANTTool@@8 000000014001ac60     MFCEditView.obj
 0002:00004c88       ??_R1A@?0A@EA@_Node_end_rep@std@@8 000000014001ac88     MFCEditView.obj
 0002:00004cb0       ??_R1A@?0A@EA@_Node_rep@std@@8 000000014001acb0     MFCEditView.obj
 0002:00004cd8       ??_R1A@?0A@EA@_Node_if@std@@8 000000014001acd8     MFCEditView.obj
 0002:00004d00       ??_R1A@?0A@EA@_Node_endif@std@@8 000000014001ad00     MFCEditView.obj
 0002:00004d28       ??_R1A@?0A@EA@_Node_back@std@@8 000000014001ad28     MFCEditView.obj
 0002:00004d50       ??_R1A@?0A@EA@_Node_capture@std@@8 000000014001ad50     MFCEditView.obj
 0002:00004d78       ??_R1A@?0A@EA@_Node_assert@std@@8 000000014001ad78     MFCEditView.obj
 0002:00004da0       ??_R1A@?0A@EA@_Node_end_group@std@@8 000000014001ada0     MFCEditView.obj
 0002:00004dc8       ??_R1A@?0A@EA@_Root_node@std@@8 000000014001adc8     MFCEditView.obj
 0002:00004df0       ??_R1A@?0A@EA@_Node_base@std@@8 000000014001adf0     MFCEditView.obj
 0002:00004e18       ??_R1A@?0A@EA@?$collate@_W@std@@8 000000014001ae18     MFCEditView.obj
 0002:00004e40       ??_R2IUnknown@@8           000000014001ae40     MFCEditView.obj
 0002:00004e50       ??_R3IUnknown@@8           000000014001ae50     MFCEditView.obj
 0002:00004e68       ??_R1A@?0A@EA@IUnknown@@8  000000014001ae68     MFCEditView.obj
 0002:00004e90       ??_R1A@?0A@EA@IVARIANTAbstract@@8 000000014001ae90     MFCEditView.obj
 0002:00004eb8       ??_R1A@?0A@EA@CMFCEditView@@8 000000014001aeb8     MFCEditView.obj
 0002:00004ee0       ??_R1A@?0A@EA@CFormView@@8 000000014001aee0     MFCEditView.obj
 0002:00004f08       ??_R1A@?0A@EA@CScrollView@@8 000000014001af08     MFCEditView.obj
 0002:00004f30       ??_R1A@?0A@EA@CView@@8     000000014001af30     MFCEditView.obj
 0002:00004f58       ??_R1A@?0A@EA@CSimpleEdit@@8 000000014001af58     MFCEditView.obj
 0002:00004f80       ??_R1A@?0A@EA@?$basic_stringstream@_WU?$char_traits@_W@std@@V?$allocator@_W@2@@std@@8 000000014001af80     MFCEditView.obj
 0002:00004fa8       ??_R1BA@?0A@EA@?$basic_ostream@_WU?$char_traits@_W@std@@@std@@8 000000014001afa8     MFCEditView.obj
 0002:00004fd0       ??_R1A@?0A@EA@?$basic_iostream@_WU?$char_traits@_W@std@@@std@@8 000000014001afd0     MFCEditView.obj
 0002:00004ff8       ??_R1A@?0A@EA@?$basic_ostream@_WU?$char_traits@_W@std@@@std@@8 000000014001aff8     MFCEditView.obj
 0002:00005020       ??_R1A@A@3FA@?$basic_ios@_WU?$char_traits@_W@std@@@std@@8 000000014001b020     MFCEditView.obj
 0002:00005048       ??_R1A@?0A@EA@?$basic_istream@_WU?$char_traits@_W@std@@@std@@8 000000014001b048     MFCEditView.obj
 0002:00005070       ??_R1A@?0A@EA@?$basic_ios@_WU?$char_traits@_W@std@@@std@@8 000000014001b070     MFCEditView.obj
 0002:00005098       ??_R1A@?0A@EA@?$basic_stringbuf@_WU?$char_traits@_W@std@@V?$allocator@_W@2@@std@@8 000000014001b098     MFCEditView.obj
 0002:000050c0       ??_R1A@?0A@EA@?$basic_streambuf@_WU?$char_traits@_W@std@@@std@@8 000000014001b0c0     MFCEditView.obj
 0002:000050e8       ??_R1A@?0A@EA@?$basic_stringstream@DU?$char_traits@D@std@@V?$allocator@D@2@@std@@8 000000014001b0e8     MFCEditView.obj
 0002:00005110       ??_R1BA@?0A@EA@?$basic_ostream@DU?$char_traits@D@std@@@std@@8 000000014001b110     MFCEditView.obj
 0002:00005138       ??_R1A@?0A@EA@?$basic_iostream@DU?$char_traits@D@std@@@std@@8 000000014001b138     MFCEditView.obj
 0002:00005160       ??_R1A@?0A@EA@?$basic_ostream@DU?$char_traits@D@std@@@std@@8 000000014001b160     MFCEditView.obj
 0002:00005188       ??_R17A@3EA@?$_Iosb@H@std@@8 000000014001b188     MFCEditView.obj
 0002:000051b0       ??_R1A@A@3EA@ios_base@std@@8 000000014001b1b0     MFCEditView.obj
 0002:000051d8       ??_R1A@A@3FA@?$basic_ios@DU?$char_traits@D@std@@@std@@8 000000014001b1d8     MFCEditView.obj
 0002:00005200       ??_R1A@?0A@EA@?$basic_istream@DU?$char_traits@D@std@@@std@@8 000000014001b200     MFCEditView.obj
 0002:00005228       ??_R1A@?0A@EA@?$basic_ios@DU?$char_traits@D@std@@@std@@8 000000014001b228     MFCEditView.obj
 0002:00005250       ??_R17?0A@EA@?$_Iosb@H@std@@8 000000014001b250     MFCEditView.obj
 0002:00005278       ??_R1A@?0A@EA@ios_base@std@@8 000000014001b278     MFCEditView.obj
 0002:000052a0       ??_R1A@?0A@EA@?$_Iosb@H@std@@8 000000014001b2a0     MFCEditView.obj
 0002:000052c8       ??_R1A@?0A@EA@?$basic_stringbuf@DU?$char_traits@D@std@@V?$allocator@D@2@@std@@8 000000014001b2c8     MFCEditView.obj
 0002:000052f0       ??_R1A@?0A@EA@?$basic_streambuf@DU?$char_traits@D@std@@@std@@8 000000014001b2f0     MFCEditView.obj
 0002:00005318       ??_R3?$_Node_str@_W@std@@8 000000014001b318     MFCEditView.obj
 0002:00005330       ??_R3?$_Node_class@_WV?$regex_traits@_W@std@@@std@@8 000000014001b330     MFCEditView.obj
 0002:00005348       ??_R3?$_Ref_count_obj2@Ust@?1??Value@CVARIANTTool@@IEAA?AUtagVARIANT@@U4@0@Z@@std@@8 000000014001b348     MFCEditView.obj
 0002:00005360       ??_R3IVARIANTApplication@@8 000000014001b360     MFCEditView.obj
 0002:00005378       ??_R3CVARIANTTool@@8       000000014001b378     MFCEditView.obj
 0002:00005390       ??_R3_Node_end_rep@std@@8  000000014001b390     MFCEditView.obj
 0002:000053a8       ??_R3_Node_rep@std@@8      000000014001b3a8     MFCEditView.obj
 0002:000053c0       ??_R3_Node_if@std@@8       000000014001b3c0     MFCEditView.obj
 0002:000053d8       ??_R3_Node_endif@std@@8    000000014001b3d8     MFCEditView.obj
 0002:000053f0       ??_R3_Node_back@std@@8     000000014001b3f0     MFCEditView.obj
 0002:00005408       ??_R3_Node_capture@std@@8  000000014001b408     MFCEditView.obj
 0002:00005420       ??_R3_Node_assert@std@@8   000000014001b420     MFCEditView.obj
 0002:00005438       ??_R3_Node_end_group@std@@8 000000014001b438     MFCEditView.obj
 0002:00005450       ??_R3_Root_node@std@@8     000000014001b450     MFCEditView.obj
 0002:00005468       ??_R3_Node_base@std@@8     000000014001b468     MFCEditView.obj
 0002:00005480       ??_R3?$collate@_W@std@@8   000000014001b480     MFCEditView.obj
 0002:00005498       ??_R3IVARIANTAbstract@@8   000000014001b498     MFCEditView.obj
 0002:000054b0       ??_R3CFormView@@8          000000014001b4b0     MFCEditView.obj
 0002:000054c8       ??_R3CScrollView@@8        000000014001b4c8     MFCEditView.obj
 0002:000054e0       ??_R3CView@@8              000000014001b4e0     MFCEditView.obj
 0002:000054f8       ??_R3CMFCEditView@@8       000000014001b4f8     MFCEditView.obj
 0002:00005510       ??_R3CSimpleEdit@@8        000000014001b510     MFCEditView.obj
 0002:00005528       ??_R3?$basic_iostream@_WU?$char_traits@_W@std@@@std@@8 000000014001b528     MFCEditView.obj
 0002:00005540       ??_R3?$basic_ostream@_WU?$char_traits@_W@std@@@std@@8 000000014001b540     MFCEditView.obj
 0002:00005558       ??_R3?$basic_istream@_WU?$char_traits@_W@std@@@std@@8 000000014001b558     MFCEditView.obj
 0002:00005570       ??_R3?$basic_ios@_WU?$char_traits@_W@std@@@std@@8 000000014001b570     MFCEditView.obj
 0002:00005588       ??_R3?$basic_stringstream@_WU?$char_traits@_W@std@@V?$allocator@_W@2@@std@@8 000000014001b588     MFCEditView.obj
 0002:000055a0       ??_R3?$basic_streambuf@_WU?$char_traits@_W@std@@@std@@8 000000014001b5a0     MFCEditView.obj
 0002:000055b8       ??_R3?$basic_stringbuf@_WU?$char_traits@_W@std@@V?$allocator@_W@2@@std@@8 000000014001b5b8     MFCEditView.obj
 0002:000055d0       ??_R3?$basic_iostream@DU?$char_traits@D@std@@@std@@8 000000014001b5d0     MFCEditView.obj
 0002:000055e8       ??_R3?$basic_ostream@DU?$char_traits@D@std@@@std@@8 000000014001b5e8     MFCEditView.obj
 0002:00005600       ??_R3?$basic_istream@DU?$char_traits@D@std@@@std@@8 000000014001b600     MFCEditView.obj
 0002:00005618       ??_R3ios_base@std@@8       000000014001b618     MFCEditView.obj
 0002:00005630       ??_R3?$_Iosb@H@std@@8      000000014001b630     MFCEditView.obj
 0002:00005648       ??_R3?$basic_ios@DU?$char_traits@D@std@@@std@@8 000000014001b648     MFCEditView.obj
 0002:00005660       ??_R3?$basic_stringstream@DU?$char_traits@D@std@@V?$allocator@D@2@@std@@8 000000014001b660     MFCEditView.obj
 0002:00005678       ??_R3?$basic_streambuf@DU?$char_traits@D@std@@@std@@8 000000014001b678     MFCEditView.obj
 0002:00005690       ??_R3?$basic_stringbuf@DU?$char_traits@D@std@@V?$allocator@D@2@@std@@8 000000014001b690     MFCEditView.obj
 0002:000056a8       ??_R4?$_Node_str@_W@std@@6B@ 000000014001b6a8     MFCEditView.obj
 0002:000056d0       ??_R4?$_Node_class@_WV?$regex_traits@_W@std@@@std@@6B@ 000000014001b6d0     MFCEditView.obj
 0002:000056f8       ??_R4?$_Ref_count_obj2@Ust@?1??Value@CVARIANTTool@@IEAA?AUtagVARIANT@@U4@0@Z@@std@@6B@ 000000014001b6f8     MFCEditView.obj
 0002:00005720       ??_R4IVARIANTApplication@@6B@ 000000014001b720     MFCEditView.obj
 0002:00005748       ??_R4CVARIANTTool@@6B@     000000014001b748     MFCEditView.obj
 0002:00005770       ??_R4_Node_end_rep@std@@6B@ 000000014001b770     MFCEditView.obj
 0002:00005798       ??_R4_Node_rep@std@@6B@    000000014001b798     MFCEditView.obj
 0002:000057c0       ??_R4_Node_if@std@@6B@     000000014001b7c0     MFCEditView.obj
 0002:000057e8       ??_R4_Node_endif@std@@6B@  000000014001b7e8     MFCEditView.obj
 0002:00005810       ??_R4_Node_back@std@@6B@   000000014001b810     MFCEditView.obj
 0002:00005838       ??_R4_Node_capture@std@@6B@ 000000014001b838     MFCEditView.obj
 0002:00005860       ??_R4_Node_assert@std@@6B@ 000000014001b860     MFCEditView.obj
 0002:00005888       ??_R4_Node_end_group@std@@6B@ 000000014001b888     MFCEditView.obj
 0002:000058b0       ??_R4_Root_node@std@@6B@   000000014001b8b0     MFCEditView.obj
 0002:000058d8       ??_R4_Node_base@std@@6B@   000000014001b8d8     MFCEditView.obj
 0002:00005900       ??_R4?$collate@_W@std@@6B@ 000000014001b900     MFCEditView.obj
 0002:00005928       ??_R4IVARIANTAbstract@@6B@ 000000014001b928     MFCEditView.obj
 0002:00005950       ??_R4CMFCEditView@@6B@     000000014001b950     MFCEditView.obj
 0002:00005978       ??_R4CSimpleEdit@@6B@      000000014001b978     MFCEditView.obj
 0002:000059a0       ??_R4?$basic_stringstream@_WU?$char_traits@_W@std@@V?$allocator@_W@2@@std@@6B@ 000000014001b9a0     MFCEditView.obj
 0002:000059c8       ??_R4?$basic_stringbuf@_WU?$char_traits@_W@std@@V?$allocator@_W@2@@std@@6B@ 000000014001b9c8     MFCEditView.obj
 0002:000059f0       ??_R4?$basic_stringstream@DU?$char_traits@D@std@@V?$allocator@D@2@@std@@6B@ 000000014001b9f0     MFCEditView.obj
 0002:00005a18       ??_R4?$basic_stringbuf@DU?$char_traits@D@std@@V?$allocator@D@2@@std@@6B@ 000000014001ba18     MFCEditView.obj
 0002:00005a40       ??_R2facet@locale@std@@8   000000014001ba40     MFCEditView.obj
 0002:00005a60       ??_R3facet@locale@std@@8   000000014001ba60     MFCEditView.obj
 0002:00005a78       ??_R1A@?0A@EA@facet@locale@std@@8 000000014001ba78     MFCEditView.obj
 0002:00005aa0       ??_R2_Facet_base@std@@8    000000014001baa0     MFCEditView.obj
 0002:00005ab0       ??_R3_Facet_base@std@@8    000000014001bab0     MFCEditView.obj
 0002:00005ac8       ??_R1A@?0A@EA@_Facet_base@std@@8 000000014001bac8     MFCEditView.obj
 0002:00005af0       ??_R1A@?0A@EA@_Crt_new_delete@std@@8 000000014001baf0     MFCEditView.obj
 0002:00005b18       ??_R2_Crt_new_delete@std@@8 000000014001bb18     MFCEditView.obj
 0002:00005b28       ??_R3_Crt_new_delete@std@@8 000000014001bb28     MFCEditView.obj
 0002:00005b40       ??_R17?0A@EA@_Crt_new_delete@std@@8 000000014001bb40     MFCEditView.obj
 0002:00005b68       ??_R1A@?0A@EA@bad_cast@std@@8 000000014001bb68     MFCEditView.obj
 0002:00005b90       ??_R2bad_cast@std@@8       000000014001bb90     MFCEditView.obj
 0002:00005ba8       ??_R3bad_cast@std@@8       000000014001bba8     MFCEditView.obj
 0002:00005bc0       ??_R4bad_cast@std@@6B@     000000014001bbc0     MFCEditView.obj
 0002:00005be8       ??_R1A@?0A@EA@CFont@@8     000000014001bbe8     MFCEditView.obj
 0002:00005c10       ??_R2CFont@@8              000000014001bc10     MFCEditView.obj
 0002:00005c30       ??_R3CFont@@8              000000014001bc30     MFCEditView.obj
 0002:00005c48       ??_R4CFont@@6B@            000000014001bc48     MFCEditView.obj
 0002:00005c70       ??_R1A@?0A@EA@CEdit@@8     000000014001bc70     MFCEditView.obj
 0002:00005c98       ??_R2CEdit@@8              000000014001bc98     MFCEditView.obj
 0002:00005cc0       ??_R3CEdit@@8              000000014001bcc0     MFCEditView.obj
 0002:00005cd8       ??_R1A@?0A@EA@bad_array_new_length@std@@8 000000014001bcd8     MFCEditView.obj
 0002:00005d00       ??_R2bad_array_new_length@std@@8 000000014001bd00     MFCEditView.obj
 0002:00005d20       ??_R3bad_array_new_length@std@@8 000000014001bd20     MFCEditView.obj
 0002:00005d38       ??_R4bad_array_new_length@std@@6B@ 000000014001bd38     MFCEditView.obj
 0002:00005d60       ??_R1A@?0A@EA@bad_alloc@std@@8 000000014001bd60     MFCEditView.obj
 0002:00005d88       ??_R2bad_alloc@std@@8      000000014001bd88     MFCEditView.obj
 0002:00005da0       ??_R3bad_alloc@std@@8      000000014001bda0     MFCEditView.obj
 0002:00005db8       ??_R4bad_alloc@std@@6B@    000000014001bdb8     MFCEditView.obj
 0002:00005de0       ??_R1A@?0A@EA@CComboBox@@8 000000014001bde0     MFCEditView.obj
 0002:00005e08       ??_R2CComboBox@@8          000000014001be08     MFCEditView.obj
 0002:00005e30       ??_R3CComboBox@@8          000000014001be30     MFCEditView.obj
 0002:00005e48       ??_R4CComboBox@@6B@        000000014001be48     MFCEditView.obj
 0002:00005e70       ??_R4exception@std@@6B@    000000014001be70     MFCEditView.obj
 0002:00005e98       ??_R2exception@std@@8      000000014001be98     MFCEditView.obj
 0002:00005ea8       ??_R3exception@std@@8      000000014001bea8     MFCEditView.obj
 0002:00005ec0       ??_R1A@?0A@EA@exception@std@@8 000000014001bec0     MFCEditView.obj
 0002:00005ee4       __volatile_metadata        000000014001bee4     <linker-defined>
 0002:00006360       __rtc_iaa                  000000014001c360     msvcrt:initsect.obj
 0002:00006368       __rtc_izz                  000000014001c368     msvcrt:initsect.obj
 0002:00006370       __rtc_taa                  000000014001c370     msvcrt:initsect.obj
 0002:00006378       __rtc_tzz                  000000014001c378     msvcrt:initsect.obj
 0002:00006380       _tls_start                 000000014001c380     msvcrt:tlssup.obj
 0002:00006384       _Init_thread_epoch         000000014001c384     msvcrt:thread_safe_statics.obj
 0002:00006388       _tls_end                   000000014001c388     msvcrt:tlssup.obj
 0002:000083f8       _TI1?AV_com_error@@        000000014001e3f8     comsuppw:comraise.obj
 0002:00008418       _CTA1?AV_com_error@@       000000014001e418     comsuppw:comraise.obj
 0002:00008428       _CT??_R0?AV_com_error@@@8??0_com_error@@QEAA@AEBV0@@Z32 000000014001e428     comsuppw:comraise.obj
 0002:00008450       _CT??_R0?AVbad_cast@std@@@8??0bad_cast@std@@QEAA@AEBV01@@Z24 000000014001e450     MFCEditView.obj
 0002:00008478       _CTA2?AVbad_cast@std@@     000000014001e478     MFCEditView.obj
 0002:00008490       _TI2?AVbad_cast@std@@      000000014001e490     MFCEditView.obj
 0002:000084b0       _CTA1?AV?$basic_string@_WU?$char_traits@_W@std@@V?$allocator@_W@2@@std@@ 000000014001e4b0     MFCEditView.obj
 0002:000084c0       _CT??_R0?AV?$basic_string@_WU?$char_traits@_W@std@@V?$allocator@_W@2@@std@@@8??0?$basic_string@_WU?$char_traits@_W@std@@V?$allocator@_W@2@@std@@QEAA@AEBV01@@Z32 000000014001e4c0     MFCEditView.obj
 0002:000084e8       _TI1?AV?$basic_string@_WU?$char_traits@_W@std@@V?$allocator@_W@2@@std@@ 000000014001e4e8     MFCEditView.obj
 0002:00008508       _CTA2PEA_W                 000000014001e508     MFCEditView.obj
 0002:00008520       _CT??_R0PEAX@88            000000014001e520     MFCEditView.obj
 0002:00008548       _CT??_R0PEA_W@88           000000014001e548     MFCEditView.obj
 0002:00008570       _TI2PEA_W                  000000014001e570     MFCEditView.obj
 0002:00008590       _CT??_R0?AVbad_array_new_length@std@@@8??0bad_array_new_length@std@@QEAA@AEBV01@@Z24 000000014001e590     MFCEditView.obj
 0002:000085b8       _CT??_R0?AVbad_alloc@std@@@8??0bad_alloc@std@@QEAA@AEBV01@@Z24 000000014001e5b8     MFCEditView.obj
 0002:000085e0       _CT??_R0?AVexception@std@@@8??0exception@std@@QEAA@AEBV01@@Z24 000000014001e5e0     MFCEditView.obj
 0002:00008608       _CTA3?AVbad_array_new_length@std@@ 000000014001e608     MFCEditView.obj
 0002:00008628       _TI3?AVbad_array_new_length@std@@ 000000014001e628     MFCEditView.obj
 0002:00008648       __IMPORT_DESCRIPTOR_mfc140u 000000014001e648     mfc140u:mfc140u.dll
 0002:0000865c       __IMPORT_DESCRIPTOR_KERNEL32 000000014001e65c     kernel32:KERNEL32.dll
 0002:00008670       __IMPORT_DESCRIPTOR_USER32 000000014001e670     user32:USER32.dll
 0002:00008684       __IMPORT_DESCRIPTOR_GDI32  000000014001e684     gdi32:GDI32.dll
 0002:00008698       __IMPORT_DESCRIPTOR_COMCTL32 000000014001e698     comctl32:COMCTL32.dll
 0002:000086ac       __IMPORT_DESCRIPTOR_ole32  000000014001e6ac     ole32:ole32.dll
 0002:000086c0       __IMPORT_DESCRIPTOR_OLEAUT32 000000014001e6c0     oleaut32:OLEAUT32.dll
 0002:000086d4       __IMPORT_DESCRIPTOR_MSVCP140 000000014001e6d4     msvcprt:MSVCP140.dll
 0002:000086e8       __IMPORT_DESCRIPTOR_MNSC   000000014001e6e8     MNSC:MNSC.dll
 0002:000086fc       __IMPORT_DESCRIPTOR_VCRUNTIME140_1 000000014001e6fc     vcruntime:VCRUNTIME140_1.dll
 0002:00008710       __IMPORT_DESCRIPTOR_VCRUNTIME140 000000014001e710     vcruntime:VCRUNTIME140.dll
 0002:00008724       __IMPORT_DESCRIPTOR_api-ms-win-crt-runtime-l1-1-0 000000014001e724     ucrt:api-ms-win-crt-runtime-l1-1-0.dll
 0002:00008738       __IMPORT_DESCRIPTOR_api-ms-win-crt-convert-l1-1-0 000000014001e738     ucrt:api-ms-win-crt-convert-l1-1-0.dll
 0002:0000874c       __IMPORT_DESCRIPTOR_api-ms-win-crt-stdio-l1-1-0 000000014001e74c     ucrt:api-ms-win-crt-stdio-l1-1-0.dll
 0002:00008760       __IMPORT_DESCRIPTOR_api-ms-win-crt-heap-l1-1-0 000000014001e760     ucrt:api-ms-win-crt-heap-l1-1-0.dll
 0002:00008774       __IMPORT_DESCRIPTOR_api-ms-win-crt-math-l1-1-0 000000014001e774     ucrt:api-ms-win-crt-math-l1-1-0.dll
 0002:00008788       __IMPORT_DESCRIPTOR_api-ms-win-crt-locale-l1-1-0 000000014001e788     ucrt:api-ms-win-crt-locale-l1-1-0.dll
 0002:0000879c       __NULL_IMPORT_DESCRIPTOR   000000014001e79c     mfc140u:mfc140u.dll
 0003:00000000       __scrt_native_dllmain_reason 0000000140021000     msvcrt:utility.obj
 0003:00000004       _Init_global_epoch         0000000140021004     msvcrt:thread_safe_statics.obj
 0003:00000040       __security_cookie          0000000140021040     msvcrt:gs_cookie.obj
 0003:00000080       __security_cookie_complement 0000000140021080     msvcrt:gs_cookie.obj
 0003:00000088       __scrt_default_matherr     0000000140021088     msvcrt:matherr.obj
 0003:00000090       __isa_inverted             0000000140021090     msvcrt:cpu_disp.obj
 0003:00000098       __isa_available            0000000140021098     msvcrt:cpu_disp.obj
 0003:0000009c       __isa_enabled              000000014002109c     msvcrt:cpu_disp.obj
 0003:000000a0       __memset_fast_string_threshold 00000001400210a0     msvcrt:cpu_disp.obj
 0003:000000a8       __memset_nt_threshold      00000001400210a8     msvcrt:cpu_disp.obj
 0003:000000b0       ?__errorPfn@@3P6AXJPEAUIErrorInfo@@@ZEA 00000001400210b0     comsuppw:comsupp.obj
 0003:000000b8       ?vtMissing@@3V_variant_t@@A 00000001400210b8     comsuppw:comutil.obj
 0003:000000d0       _fltused                   00000001400210d0     msvcrt:fltused.obj
 0003:000000d4       __scrt_ucrt_dll_is_in_use  00000001400210d4     msvcrt:ucrt_stubs.obj
 0003:000000f0       ??_R0?AV_com_error@@@8     00000001400210f0     comsuppw:comraise.obj
 0003:00000118       ??_R0PEAVCException@@@8    0000000140021118     MFCEdit.obj
 0003:00000140       ??_R0?AVbad_cast@std@@@8   0000000140021140     MFCEditView.obj
 0003:00000170       ??_R0?AV?$basic_string@_WU?$char_traits@_W@std@@V?$allocator@_W@2@@std@@@8 0000000140021170     MFCEditView.obj
 0003:000001c8       ??_R0PEAX@8                00000001400211c8     MFCEditView.obj
 0003:000001e0       ??_R0PEA_W@8               00000001400211e0     MFCEditView.obj
 0003:000001f8       ??_R0?AVIVARIANTArray@@@8  00000001400211f8     MFCEditView.obj
 0003:00000220       ??_R0?AUIUnknown@@@8       0000000140021220     MFCEditView.obj
 0003:00000240       ??_R0?AVIVARIANTMap@@@8    0000000140021240     MFCEditView.obj
 0003:00000268       ??_R0?AVbad_array_new_length@std@@@8 0000000140021268     MFCEditView.obj
 0003:00000298       ??_R0?AVbad_alloc@std@@@8  0000000140021298     MFCEditView.obj
 0003:000002c0       ??_R0?AVexception@std@@@8  00000001400212c0     MFCEditView.obj
 0003:000002f0       ??_R0?AVtype_info@@@8      00000001400212f0     msvcrt:std_type_info_static.obj
 0003:00000310       ??_R0?AVCFrameWnd@@@8      0000000140021310     MainFrm.obj
 0003:00000330       ??_R0?AVCWnd@@@8           0000000140021330     MainFrm.obj
 0003:00000350       ??_R0?AVCCmdTarget@@@8     0000000140021350     MainFrm.obj
 0003:00000378       ??_R0?AVCObject@@@8        0000000140021378     MainFrm.obj
 0003:00000398       ??_R0?AVCMainFrame@@@8     0000000140021398     MainFrm.obj
 0003:000003c0       ??_R0?AVCDialog@@@8        00000001400213c0     MFCEdit.obj
 0003:000003e0       ??_R0?AVCDialogEx@@@8      00000001400213e0     MFCEdit.obj
 0003:00000400       ??_R0?AVCAboutDlg@@@8      0000000140021400     MFCEdit.obj
 0003:00000420       ??_R0?AVCWinApp@@@8        0000000140021420     MFCEdit.obj
 0003:00000440       ??_R0?AVCWinThread@@@8     0000000140021440     MFCEdit.obj
 0003:00000468       ??_R0?AVCMFCEditApp@@@8    0000000140021468     MFCEdit.obj
 0003:00000490       ??_R0?AVCBrush@@@8         0000000140021490     MFCEdit.obj
 0003:000004b0       ??_R0?AVCGdiObject@@@8     00000001400214b0     MFCEdit.obj
 0003:000004d8       ??_R0?AVCDocument@@@8      00000001400214d8     MFCEditDoc.obj
 0003:000004f8       ??_R0?AVCMFCEditDoc@@@8    00000001400214f8     MFCEditDoc.obj
 0003:00000520       ??_R0?AVCDocumentAdapter@CDocument@@@8 0000000140021520     MFCEditDoc.obj
 0003:00000558       ??_R0?AUIDocument@ATL@@@8  0000000140021558     MFCEditDoc.obj
 0003:00000580       ??_R0?AV_Ref_count_base@std@@@8 0000000140021580     MFCEditView.obj
 0003:000005b0       ??_R0?AV?$_Node_str@_W@std@@@8 00000001400215b0     MFCEditView.obj
 0003:000005e0       ??_R0?AV?$_Node_class@_WV?$regex_traits@_W@std@@@std@@@8 00000001400215e0     MFCEditView.obj
 0003:00000630       ??_R0?AV?$_Ref_count_obj2@Ust@?1??Value@CVARIANTTool@@IEAA?AUtagVARIANT@@U4@0@Z@@std@@@8 0000000140021630     MFCEditView.obj
 0003:00000698       ??_R0?AVIVARIANTApplication@@@8 0000000140021698     MFCEditView.obj
 0003:000006c8       ??_R0?AVCVARIANTTool@@@8   00000001400216c8     MFCEditView.obj
 0003:000006f0       ??_R0?AV_Node_end_rep@std@@@8 00000001400216f0     MFCEditView.obj
 0003:00000718       ??_R0?AV_Node_rep@std@@@8  0000000140021718     MFCEditView.obj
 0003:00000740       ??_R0?AV_Node_if@std@@@8   0000000140021740     MFCEditView.obj
 0003:00000768       ??_R0?AV_Node_endif@std@@@8 0000000140021768     MFCEditView.obj
 0003:00000790       ??_R0?AV_Node_back@std@@@8 0000000140021790     MFCEditView.obj
 0003:000007b8       ??_R0?AV_Node_capture@std@@@8 00000001400217b8     MFCEditView.obj
 0003:000007e0       ??_R0?AV_Node_assert@std@@@8 00000001400217e0     MFCEditView.obj
 0003:00000808       ??_R0?AV_Node_end_group@std@@@8 0000000140021808     MFCEditView.obj
 0003:00000838       ??_R0?AV_Root_node@std@@@8 0000000140021838     MFCEditView.obj
 0003:00000860       ??_R0?AV_Node_base@std@@@8 0000000140021860     MFCEditView.obj
 0003:00000888       ??_R0?AV?$collate@_W@std@@@8 0000000140021888     MFCEditView.obj
 0003:000008b0       ??_R0?AVIVARIANTAbstract@@@8 00000001400218b0     MFCEditView.obj
 0003:000008d8       ??_R0?AVCFormView@@@8      00000001400218d8     MFCEditView.obj
 0003:000008f8       ??_R0?AVCScrollView@@@8    00000001400218f8     MFCEditView.obj
 0003:00000920       ??_R0?AVCView@@@8          0000000140021920     MFCEditView.obj
 0003:00000940       ??_R0?AVCMFCEditView@@@8   0000000140021940     MFCEditView.obj
 0003:00000968       ??_R0?AVCSimpleEdit@@@8    0000000140021968     MFCEditView.obj
 0003:00000990       ??_R0?AV?$basic_iostream@_WU?$char_traits@_W@std@@@std@@@8 0000000140021990     MFCEditView.obj
 0003:000009e0       ??_R0?AV?$basic_ostream@_WU?$char_traits@_W@std@@@std@@@8 00000001400219e0     MFCEditView.obj
 0003:00000a30       ??_R0?AV?$basic_istream@_WU?$char_traits@_W@std@@@std@@@8 0000000140021a30     MFCEditView.obj
 0003:00000a80       ??_R0?AV?$basic_ios@_WU?$char_traits@_W@std@@@std@@@8 0000000140021a80     MFCEditView.obj
 0003:00000ac0       ??_R0?AV?$basic_stringstream@_WU?$char_traits@_W@std@@V?$allocator@_W@2@@std@@@8 0000000140021ac0     MFCEditView.obj
 0003:00000b20       ??_R0?AV?$basic_streambuf@_WU?$char_traits@_W@std@@@std@@@8 0000000140021b20     MFCEditView.obj
 0003:00000b70       ??_R0?AV?$basic_stringbuf@_WU?$char_traits@_W@std@@V?$allocator@_W@2@@std@@@8 0000000140021b70     MFCEditView.obj
 0003:00000bd0       ??_R0?AV?$basic_iostream@DU?$char_traits@D@std@@@std@@@8 0000000140021bd0     MFCEditView.obj
 0003:00000c20       ??_R0?AV?$basic_ostream@DU?$char_traits@D@std@@@std@@@8 0000000140021c20     MFCEditView.obj
 0003:00000c70       ??_R0?AV?$basic_istream@DU?$char_traits@D@std@@@std@@@8 0000000140021c70     MFCEditView.obj
 0003:00000cb8       ??_R0?AVios_base@std@@@8   0000000140021cb8     MFCEditView.obj
 0003:00000ce0       ??_R0?AV?$_Iosb@H@std@@@8  0000000140021ce0     MFCEditView.obj
 0003:00000d08       ??_R0?AV?$basic_ios@DU?$char_traits@D@std@@@std@@@8 0000000140021d08     MFCEditView.obj
 0003:00000d50       ??_R0?AV?$basic_stringstream@DU?$char_traits@D@std@@V?$allocator@D@2@@std@@@8 0000000140021d50     MFCEditView.obj
 0003:00000db0       ??_R0?AV?$basic_streambuf@DU?$char_traits@D@std@@@std@@@8 0000000140021db0     MFCEditView.obj
 0003:00000e00       ??_R0?AV?$basic_stringbuf@DU?$char_traits@D@std@@V?$allocator@D@2@@std@@@8 0000000140021e00     MFCEditView.obj
 0003:00000e58       ??_R0?AVfacet@locale@std@@@8 0000000140021e58     MFCEditView.obj
 0003:00000e80       ??_R0?AV_Facet_base@std@@@8 0000000140021e80     MFCEditView.obj
 0003:00000ea8       ??_R0?AU_Crt_new_delete@std@@@8 0000000140021ea8     MFCEditView.obj
 0003:00000ed8       ??_R0?AVCFont@@@8          0000000140021ed8     MFCEditView.obj
 0003:00000ef8       ??_R0?AVCEdit@@@8          0000000140021ef8     MFCEditView.obj
 0003:00000f18       ??_R0?AVCComboBox@@@8      0000000140021f18     MFCEditView.obj
 0003:00000f40       __afxForceEXCLUDE          0000000140021f40     mfcs140u:nolib.obj
 0003:00000f44       __afxForceSTDAFX           0000000140021f44     mfcs140u:stdafx.obj
 0003:00000f48       __scrt_current_native_startup_state 0000000140021f48     msvcrt:utility.obj
 0003:00000f50       __scrt_native_startup_lock 0000000140021f50     msvcrt:utility.obj
 0003:00000fa0       ?__type_info_root_node@@3U__type_info_node@@A 0000000140021fa0     msvcrt:tncleanup.obj
 0003:00000fb0       ?_OptionsStorage@?1??__local_stdio_printf_options@@9@4_KA 0000000140021fb0     msvcrt:default_local_stdio_options.obj
 0003:00000fb8       ?_OptionsStorage@?1??__local_stdio_scanf_options@@9@4_KA 0000000140021fb8     msvcrt:default_local_stdio_options.obj
 0003:00000fc0       __scrt_debugger_hook_flag  0000000140021fc0     msvcrt:utility_desktop.obj
 0003:00001540       __avx10_version            0000000140022540     msvcrt:cpu_disp.obj
 0003:00001544       __favor                    0000000140022544     msvcrt:cpu_disp.obj
 0003:00001548       _tls_index                 0000000140022548     msvcrt:tlssup.obj
 0003:00001550       ?_AtlBaseModule@ATL@@3VCAtlBaseModule@1@A 0000000140022550     atls:atlbase.obj
 0003:000015b0       __@@_PchSym_@00@UzUPdlipUBUhUrmgvinvwrzgvUexHoryhUhsrkUzgonuxUhixUzgoUzgohUzgohOexckilqUlyqiPiUznwGEUhgwzucOlyq@4B2008FD98C1DD4 00000001400225b0     atls:stdafx.obj
 0003:000015c1       ?_afxInitAppState@@3DA     00000001400225c1     mfcs140u:appmodul.obj
 0003:000015c8       ?_Psave@?$_Facetptr@V?$collate@_W@std@@@std@@2PEBVfacet@locale@2@EB 00000001400225c8     MFCEditView.obj
 0003:000015d0       ?_Psave@?$_Facetptr@V?$ctype@_W@std@@@std@@2PEBVfacet@locale@2@EB 00000001400225d0     MFCEditView.obj
 0003:000015d8       __@@_PchSym_@00@UdlipUexUnmhxUnuxvwrgUcGEUivovzhvUkxsOlyq@4B2008FD98C1DD4 00000001400225d8     pch.obj
 0003:000015dc       ?m_bInitFailed@CAtlBaseModule@ATL@@2_NA 00000001400225dc     pch.obj
 0003:000015e0       ?theApp@@3VCMFCEditApp@@A  00000001400225e0     MFCEdit.obj
 0003:00001758       __dyn_tls_dtor_callback    0000000140022758     <common>
 0003:00001760       __dyn_tls_init_callback    0000000140022760     <common>

 entry point at        0001:00012a14

 Static symbols

 0000:fffc6000       .debug$S                   0000000140000000     ucrt:api-ms-win-crt-convert-l1-1-0.dll
 0000:fffc6000       .debug$S                   0000000140000000     ucrt:api-ms-win-crt-heap-l1-1-0.dll
 0000:fffc6000       .debug$S                   0000000140000000     ucrt:api-ms-win-crt-heap-l1-1-0.dll
 0000:fffc6000       .debug$S                   0000000140000000     ucrt:api-ms-win-crt-heap-l1-1-0.dll
 0000:fffc6000       .debug$S                   0000000140000000     ucrt:api-ms-win-crt-heap-l1-1-0.dll
 0000:fffc6000       .debug$S                   0000000140000000     ucrt:api-ms-win-crt-heap-l1-1-0.dll
 0000:fffc6000       .debug$S                   0000000140000000     ucrt:api-ms-win-crt-heap-l1-1-0.dll
 0000:fffc6000       .debug$S                   0000000140000000     ucrt:api-ms-win-crt-locale-l1-1-0.dll
 0000:fffc6000       .debug$S                   0000000140000000     ucrt:api-ms-win-crt-math-l1-1-0.dll
 0000:fffc6000       .debug$S                   0000000140000000     ucrt:api-ms-win-crt-runtime-l1-1-0.dll
 0000:fffc6000       .debug$S                   0000000140000000     ucrt:api-ms-win-crt-runtime-l1-1-0.dll
 0000:fffc6000       .debug$S                   0000000140000000     ucrt:api-ms-win-crt-runtime-l1-1-0.dll
 0000:fffc6000       .debug$S                   0000000140000000     ucrt:api-ms-win-crt-runtime-l1-1-0.dll
 0000:fffc6000       .debug$S                   0000000140000000     ucrt:api-ms-win-crt-runtime-l1-1-0.dll
 0000:fffc6000       .debug$S                   0000000140000000     ucrt:api-ms-win-crt-runtime-l1-1-0.dll
 0000:fffc6000       .debug$S                   0000000140000000     ucrt:api-ms-win-crt-runtime-l1-1-0.dll
 0000:fffc6000       .debug$S                   0000000140000000     ucrt:api-ms-win-crt-runtime-l1-1-0.dll
 0000:fffc6000       .debug$S                   0000000140000000     ucrt:api-ms-win-crt-runtime-l1-1-0.dll
 0000:fffc6000       .debug$S                   0000000140000000     ucrt:api-ms-win-crt-runtime-l1-1-0.dll
 0000:fffc6000       .debug$S                   0000000140000000     ucrt:api-ms-win-crt-runtime-l1-1-0.dll
 0000:fffc6000       .debug$S                   0000000140000000     ucrt:api-ms-win-crt-runtime-l1-1-0.dll
 0000:fffc6000       .debug$S                   0000000140000000     ucrt:api-ms-win-crt-runtime-l1-1-0.dll
 0000:fffc6000       .debug$S                   0000000140000000     ucrt:api-ms-win-crt-runtime-l1-1-0.dll
 0000:fffc6000       .debug$S                   0000000140000000     ucrt:api-ms-win-crt-runtime-l1-1-0.dll
 0000:fffc6000       .debug$S                   0000000140000000     ucrt:api-ms-win-crt-runtime-l1-1-0.dll
 0000:fffc6000       .debug$S                   0000000140000000     ucrt:api-ms-win-crt-runtime-l1-1-0.dll
 0000:fffc6000       .debug$S                   0000000140000000     ucrt:api-ms-win-crt-runtime-l1-1-0.dll
 0000:fffc6000       .debug$S                   0000000140000000     ucrt:api-ms-win-crt-runtime-l1-1-0.dll
 0000:fffc6000       .debug$S                   0000000140000000     ucrt:api-ms-win-crt-runtime-l1-1-0.dll
 0000:fffc6000       .debug$S                   0000000140000000     ucrt:api-ms-win-crt-runtime-l1-1-0.dll
 0000:fffc6000       .debug$S                   0000000140000000     ucrt:api-ms-win-crt-runtime-l1-1-0.dll
 0000:fffc6000       .debug$S                   0000000140000000     ucrt:api-ms-win-crt-runtime-l1-1-0.dll
 0000:fffc6000       .debug$S                   0000000140000000     ucrt:api-ms-win-crt-runtime-l1-1-0.dll
 0000:fffc6000       .debug$S                   0000000140000000     ucrt:api-ms-win-crt-stdio-l1-1-0.dll
 0000:fffc6000       .debug$S                   0000000140000000     ucrt:api-ms-win-crt-stdio-l1-1-0.dll
 0000:fffc6000       .debug$S                   0000000140000000     ucrt:api-ms-win-crt-stdio-l1-1-0.dll
 0000:fffc6000       .debug$S                   0000000140000000     ucrt:api-ms-win-crt-stdio-l1-1-0.dll
 0000:fffc6000       .debug$S                   0000000140000000     ucrt:api-ms-win-crt-stdio-l1-1-0.dll
 0000:fffc6000       .debug$S                   0000000140000000     comctl32:COMCTL32.dll
 0000:fffc6000       .debug$S                   0000000140000000     gdi32:GDI32.dll
 0000:fffc6000       .debug$S                   0000000140000000     gdi32:GDI32.dll
 0000:fffc6000       .debug$S                   0000000140000000     gdi32:GDI32.dll
 0000:fffc6000       .debug$S                   0000000140000000     gdiplus:gdiplus.dll
 0002:fffea000       .idata$6                   0000000140000000     gdiplus:gdiplus.dll
 0000:fffc6000       .debug$S                   0000000140000000     kernel32:KERNEL32.dll
 0000:fffc6000       .debug$S                   0000000140000000     kernel32:KERNEL32.dll
 0000:fffc6000       .debug$S                   0000000140000000     kernel32:KERNEL32.dll
 0000:fffc6000       .debug$S                   0000000140000000     kernel32:KERNEL32.dll
 0000:fffc6000       .debug$S                   0000000140000000     kernel32:KERNEL32.dll
 0000:fffc6000       .debug$S                   0000000140000000     kernel32:KERNEL32.dll
 0000:fffc6000       .debug$S                   0000000140000000     kernel32:KERNEL32.dll
 0000:fffc6000       .debug$S                   0000000140000000     kernel32:KERNEL32.dll
 0000:fffc6000       .debug$S                   0000000140000000     kernel32:KERNEL32.dll
 0000:fffc6000       .debug$S                   0000000140000000     kernel32:KERNEL32.dll
 0000:fffc6000       .debug$S                   0000000140000000     kernel32:KERNEL32.dll
 0000:fffc6000       .debug$S                   0000000140000000     kernel32:KERNEL32.dll
 0000:fffc6000       .debug$S                   0000000140000000     kernel32:KERNEL32.dll
 0000:fffc6000       .debug$S                   0000000140000000     kernel32:KERNEL32.dll
 0000:fffc6000       .debug$S                   0000000140000000     kernel32:KERNEL32.dll
 0000:fffc6000       .debug$S                   0000000140000000     kernel32:KERNEL32.dll
 0000:fffc6000       .debug$S                   0000000140000000     kernel32:KERNEL32.dll
 0000:fffc6000       .debug$S                   0000000140000000     kernel32:KERNEL32.dll
 0000:fffc6000       .debug$S                   0000000140000000     kernel32:KERNEL32.dll
 0000:fffc6000       .debug$S                   0000000140000000     kernel32:KERNEL32.dll
 0000:fffc6000       .debug$S                   0000000140000000     kernel32:KERNEL32.dll
 0000:fffc6000       .debug$S                   0000000140000000     kernel32:KERNEL32.dll
 0000:fffc6000       .debug$S                   0000000140000000     kernel32:KERNEL32.dll
 0000:fffc6000       .debug$S                   0000000140000000     kernel32:KERNEL32.dll
 0000:fffc6000       .debug$S                   0000000140000000     kernel32:KERNEL32.dll
 0000:fffc6000       .debug$S                   0000000140000000     kernel32:KERNEL32.dll
 0000:fffc6000       .debug$S                   0000000140000000     kernel32:KERNEL32.dll
 0000:fffc6000       .debug$S                   0000000140000000     kernel32:KERNEL32.dll
 0000:fffc6000       .debug$S                   0000000140000000     kernel32:KERNEL32.dll
 0000:fffc6000       .debug$S                   0000000140000000     kernel32:KERNEL32.dll
 0000:fffc6000       .debug$S                   0000000140000000     kernel32:KERNEL32.dll
 0000:fffc6000       .debug$S                   0000000140000000     kernel32:KERNEL32.dll
 0000:fffc6000       .debug$S                   0000000140000000     kernel32:KERNEL32.dll
 0000:fffc6000       .debug$S                   0000000140000000     kernel32:KERNEL32.dll
 0000:fffc6000       .debug$S                   0000000140000000     kernel32:KERNEL32.dll
 0000:fffc6000       .debug$S                   0000000140000000     kernel32:KERNEL32.dll
 0000:fffc6000       .debug$S                   0000000140000000     kernel32:KERNEL32.dll
 0000:fffc6000       .debug$S                   0000000140000000     kernel32:KERNEL32.dll
 0000:fffc6000       .debug$S                   0000000140000000     kernel32:KERNEL32.dll
 0000:fffc6000       .debug$S                   0000000140000000     kernel32:KERNEL32.dll
 0000:fffc6000       .debug$S                   0000000140000000     kernel32:KERNEL32.dll
 0000:fffc6000       .debug$S                   0000000140000000     kernel32:KERNEL32.dll
 0000:fffc6000       .debug$S                   0000000140000000     kernel32:KERNEL32.dll
 0000:fffc6000       .debug$S                   0000000140000000     kernel32:KERNEL32.dll
 0000:fffc6000       .debug$S                   0000000140000000     kernel32:KERNEL32.dll
 0000:fffc6000       .debug$S                   0000000140000000     kernel32:KERNEL32.dll
 0000:fffc6000       .debug$S                   0000000140000000     kernel32:KERNEL32.dll
 0000:fffc6000       .debug$S                   0000000140000000     kernel32:KERNEL32.dll
 0000:fffc6000       .debug$S                   0000000140000000     kernel32:KERNEL32.dll
 0000:fffc6000       .debug$S                   0000000140000000     kernel32:KERNEL32.dll
 0000:fffc6000       .debug$S                   0000000140000000     kernel32:KERNEL32.dll
 0000:fffc6000       .debug$S                   0000000140000000     kernel32:KERNEL32.dll
 0000:fffc6000       .debug$S                   0000000140000000     kernel32:KERNEL32.dll
 0000:fffc6000       .debug$S                   0000000140000000     ole32:ole32.dll
 0000:fffc6000       .debug$S                   0000000140000000     ole32:ole32.dll
 0000:fffc6000       .debug$S                   0000000140000000     oleaut32:OLEAUT32.dll
 0000:fffc6000       .debug$S                   0000000140000000     oleaut32:OLEAUT32.dll
 0000:fffc6000       .debug$S                   0000000140000000     oleaut32:OLEAUT32.dll
 0000:fffc6000       .debug$S                   0000000140000000     oleaut32:OLEAUT32.dll
 0000:fffc6000       .debug$S                   0000000140000000     oleaut32:OLEAUT32.dll
 0000:fffc6000       .debug$S                   0000000140000000     oleaut32:OLEAUT32.dll
 0000:fffc6000       .debug$S                   0000000140000000     oleaut32:OLEAUT32.dll
 0000:fffc6000       .debug$S                   0000000140000000     oleaut32:OLEAUT32.dll
 0000:fffc6000       .debug$S                   0000000140000000     oleaut32:OLEAUT32.dll
 0000:fffc6000       .debug$S                   0000000140000000     oleaut32:OLEAUT32.dll
 0000:fffc6000       .debug$S                   0000000140000000     oleaut32:OLEAUT32.dll
 0000:fffc6000       .debug$S                   0000000140000000     user32:USER32.dll
 0000:fffc6000       .debug$S                   0000000140000000     user32:USER32.dll
 0000:fffc6000       .debug$S                   0000000140000000     user32:USER32.dll
 0000:fffc6000       .debug$S                   0000000140000000     user32:USER32.dll
 0000:fffc6000       .debug$S                   0000000140000000     user32:USER32.dll
 0000:fffc6000       .debug$S                   0000000140000000     user32:USER32.dll
 0000:fffc6000       .debug$S                   0000000140000000     user32:USER32.dll
 0000:fffc6000       .debug$S                   0000000140000000     mfc140u:mfc140u.dll
 0000:fffc6000       .debug$S                   0000000140000000     mfc140u:mfc140u.dll
 0000:fffc6000       .debug$S                   0000000140000000     mfc140u:mfc140u.dll
 0000:fffc6000       .debug$S                   0000000140000000     mfc140u:mfc140u.dll
 0000:fffc6000       .debug$S                   0000000140000000     mfc140u:mfc140u.dll
 0000:fffc6000       .debug$S                   0000000140000000     mfc140u:mfc140u.dll
 0000:fffc6000       .debug$S                   0000000140000000     mfc140u:mfc140u.dll
 0000:fffc6000       .debug$S                   0000000140000000     mfc140u:mfc140u.dll
 0000:fffc6000       .debug$S                   0000000140000000     mfc140u:mfc140u.dll
 0000:fffc6000       .debug$S                   0000000140000000     mfc140u:mfc140u.dll
 0000:fffc6000       .debug$S                   0000000140000000     mfc140u:mfc140u.dll
 0000:fffc6000       .debug$S                   0000000140000000     mfc140u:mfc140u.dll
 0000:fffc6000       .debug$S                   0000000140000000     mfc140u:mfc140u.dll
 0000:fffc6000       .debug$S                   0000000140000000     mfc140u:mfc140u.dll
 0000:fffc6000       .debug$S                   0000000140000000     mfc140u:mfc140u.dll
 0000:fffc6000       .debug$S                   0000000140000000     mfc140u:mfc140u.dll
 0000:fffc6000       .debug$S                   0000000140000000     mfc140u:mfc140u.dll
 0000:fffc6000       .debug$S                   0000000140000000     mfc140u:mfc140u.dll
 0000:fffc6000       .debug$S                   0000000140000000     mfc140u:mfc140u.dll
 0000:fffc6000       .debug$S                   0000000140000000     mfc140u:mfc140u.dll
 0000:fffc6000       .debug$S                   0000000140000000     mfc140u:mfc140u.dll
 0000:fffc6000       .debug$S                   0000000140000000     mfc140u:mfc140u.dll
 0000:fffc6000       .debug$S                   0000000140000000     mfc140u:mfc140u.dll
 0000:fffc6000       .debug$S                   0000000140000000     mfc140u:mfc140u.dll
 0000:fffc6000       .debug$S                   0000000140000000     mfc140u:mfc140u.dll
 0000:fffc6000       .debug$S                   0000000140000000     mfc140u:mfc140u.dll
 0000:fffc6000       .debug$S                   0000000140000000     mfc140u:mfc140u.dll
 0000:fffc6000       .debug$S                   0000000140000000     mfc140u:mfc140u.dll
 0000:fffc6000       .debug$S                   0000000140000000     mfc140u:mfc140u.dll
 0000:fffc6000       .debug$S                   0000000140000000     mfc140u:mfc140u.dll
 0000:fffc6000       .debug$S                   0000000140000000     mfc140u:mfc140u.dll
 0000:fffc6000       .debug$S                   0000000140000000     mfc140u:mfc140u.dll
 0000:fffc6000       .debug$S                   0000000140000000     mfc140u:mfc140u.dll
 0000:fffc6000       .debug$S                   0000000140000000     mfc140u:mfc140u.dll
 0000:fffc6000       .debug$S                   0000000140000000     mfc140u:mfc140u.dll
 0000:fffc6000       .debug$S                   0000000140000000     mfc140u:mfc140u.dll
 0000:fffc6000       .debug$S                   0000000140000000     mfc140u:mfc140u.dll
 0000:fffc6000       .debug$S                   0000000140000000     mfc140u:mfc140u.dll
 0000:fffc6000       .debug$S                   0000000140000000     mfc140u:mfc140u.dll
 0000:fffc6000       .debug$S                   0000000140000000     mfc140u:mfc140u.dll
 0000:fffc6000       .debug$S                   0000000140000000     mfc140u:mfc140u.dll
 0000:fffc6000       .debug$S                   0000000140000000     mfc140u:mfc140u.dll
 0000:fffc6000       .debug$S                   0000000140000000     mfc140u:mfc140u.dll
 0000:fffc6000       .debug$S                   0000000140000000     mfc140u:mfc140u.dll
 0000:fffc6000       .debug$S                   0000000140000000     mfc140u:mfc140u.dll
 0000:fffc6000       .debug$S                   0000000140000000     mfc140u:mfc140u.dll
 0000:fffc6000       .debug$S                   0000000140000000     mfc140u:mfc140u.dll
 0000:fffc6000       .debug$S                   0000000140000000     mfc140u:mfc140u.dll
 0000:fffc6000       .debug$S                   0000000140000000     mfc140u:mfc140u.dll
 0000:fffc6000       .debug$S                   0000000140000000     mfc140u:mfc140u.dll
 0000:fffc6000       .debug$S                   0000000140000000     mfc140u:mfc140u.dll
 0000:fffc6000       .debug$S                   0000000140000000     mfc140u:mfc140u.dll
 0000:fffc6000       .debug$S                   0000000140000000     mfc140u:mfc140u.dll
 0000:fffc6000       .debug$S                   0000000140000000     mfc140u:mfc140u.dll
 0000:fffc6000       .debug$S                   0000000140000000     mfc140u:mfc140u.dll
 0000:fffc6000       .debug$S                   0000000140000000     mfc140u:mfc140u.dll
 0000:fffc6000       .debug$S                   0000000140000000     mfc140u:mfc140u.dll
 0000:fffc6000       .debug$S                   0000000140000000     mfc140u:mfc140u.dll
 0000:fffc6000       .debug$S                   0000000140000000     mfc140u:mfc140u.dll
 0000:fffc6000       .debug$S                   0000000140000000     mfc140u:mfc140u.dll
 0000:fffc6000       .debug$S                   0000000140000000     mfc140u:mfc140u.dll
 0000:fffc6000       .debug$S                   0000000140000000     mfc140u:mfc140u.dll
 0000:fffc6000       .debug$S                   0000000140000000     mfc140u:mfc140u.dll
 0000:fffc6000       .debug$S                   0000000140000000     mfc140u:mfc140u.dll
 0000:fffc6000       .debug$S                   0000000140000000     mfc140u:mfc140u.dll
 0000:fffc6000       .debug$S                   0000000140000000     mfc140u:mfc140u.dll
 0000:fffc6000       .debug$S                   0000000140000000     mfc140u:mfc140u.dll
 0000:fffc6000       .debug$S                   0000000140000000     mfc140u:mfc140u.dll
 0000:fffc6000       .debug$S                   0000000140000000     mfc140u:mfc140u.dll
 0000:fffc6000       .debug$S                   0000000140000000     mfc140u:mfc140u.dll
 0000:fffc6000       .debug$S                   0000000140000000     mfc140u:mfc140u.dll
 0000:fffc6000       .debug$S                   0000000140000000     mfc140u:mfc140u.dll
 0000:fffc6000       .debug$S                   0000000140000000     mfc140u:mfc140u.dll
 0000:fffc6000       .debug$S                   0000000140000000     mfc140u:mfc140u.dll
 0000:fffc6000       .debug$S                   0000000140000000     mfc140u:mfc140u.dll
 0000:fffc6000       .debug$S                   0000000140000000     mfc140u:mfc140u.dll
 0000:fffc6000       .debug$S                   0000000140000000     mfc140u:mfc140u.dll
 0000:fffc6000       .debug$S                   0000000140000000     mfc140u:mfc140u.dll
 0000:fffc6000       .debug$S                   0000000140000000     mfc140u:mfc140u.dll
 0000:fffc6000       .debug$S                   0000000140000000     mfc140u:mfc140u.dll
 0000:fffc6000       .debug$S                   0000000140000000     mfc140u:mfc140u.dll
 0000:fffc6000       .debug$S                   0000000140000000     mfc140u:mfc140u.dll
 0000:fffc6000       .debug$S                   0000000140000000     mfc140u:mfc140u.dll
 0000:fffc6000       .debug$S                   0000000140000000     mfc140u:mfc140u.dll
 0000:fffc6000       .debug$S                   0000000140000000     mfc140u:mfc140u.dll
 0000:fffc6000       .debug$S                   0000000140000000     mfc140u:mfc140u.dll
 0000:fffc6000       .debug$S                   0000000140000000     mfc140u:mfc140u.dll
 0000:fffc6000       .debug$S                   0000000140000000     mfc140u:mfc140u.dll
 0000:fffc6000       .debug$S                   0000000140000000     mfc140u:mfc140u.dll
 0000:fffc6000       .debug$S                   0000000140000000     mfc140u:mfc140u.dll
 0000:fffc6000       .debug$S                   0000000140000000     mfc140u:mfc140u.dll
 0000:fffc6000       .debug$S                   0000000140000000     mfc140u:mfc140u.dll
 0000:fffc6000       .debug$S                   0000000140000000     mfc140u:mfc140u.dll
 0000:fffc6000       .debug$S                   0000000140000000     mfc140u:mfc140u.dll
 0000:fffc6000       .debug$S                   0000000140000000     mfc140u:mfc140u.dll
 0000:fffc6000       .debug$S                   0000000140000000     mfc140u:mfc140u.dll
 0000:fffc6000       .debug$S                   0000000140000000     mfc140u:mfc140u.dll
 0000:fffc6000       .debug$S                   0000000140000000     mfc140u:mfc140u.dll
 0000:fffc6000       .debug$S                   0000000140000000     mfc140u:mfc140u.dll
 0000:fffc6000       .debug$S                   0000000140000000     mfc140u:mfc140u.dll
 0000:fffc6000       .debug$S                   0000000140000000     mfc140u:mfc140u.dll
 0000:fffc6000       .debug$S                   0000000140000000     mfc140u:mfc140u.dll
 0000:fffc6000       .debug$S                   0000000140000000     mfc140u:mfc140u.dll
 0000:fffc6000       .debug$S                   0000000140000000     mfc140u:mfc140u.dll
 0000:fffc6000       .debug$S                   0000000140000000     mfc140u:mfc140u.dll
 0000:fffc6000       .debug$S                   0000000140000000     mfc140u:mfc140u.dll
 0000:fffc6000       .debug$S                   0000000140000000     mfc140u:mfc140u.dll
 0000:fffc6000       .debug$S                   0000000140000000     mfc140u:mfc140u.dll
 0000:fffc6000       .debug$S                   0000000140000000     mfc140u:mfc140u.dll
 0000:fffc6000       .debug$S                   0000000140000000     mfc140u:mfc140u.dll
 0000:fffc6000       .debug$S                   0000000140000000     mfc140u:mfc140u.dll
 0000:fffc6000       .debug$S                   0000000140000000     mfc140u:mfc140u.dll
 0000:fffc6000       .debug$S                   0000000140000000     mfc140u:mfc140u.dll
 0000:fffc6000       .debug$S                   0000000140000000     mfc140u:mfc140u.dll
 0000:fffc6000       .debug$S                   0000000140000000     mfc140u:mfc140u.dll
 0000:fffc6000       .debug$S                   0000000140000000     mfc140u:mfc140u.dll
 0000:fffc6000       .debug$S                   0000000140000000     mfc140u:mfc140u.dll
 0000:fffc6000       .debug$S                   0000000140000000     mfc140u:mfc140u.dll
 0000:fffc6000       .debug$S                   0000000140000000     mfc140u:mfc140u.dll
 0000:fffc6000       .debug$S                   0000000140000000     mfc140u:mfc140u.dll
 0000:fffc6000       .debug$S                   0000000140000000     mfc140u:mfc140u.dll
 0000:fffc6000       .debug$S                   0000000140000000     mfc140u:mfc140u.dll
 0000:fffc6000       .debug$S                   0000000140000000     mfc140u:mfc140u.dll
 0000:fffc6000       .debug$S                   0000000140000000     mfc140u:mfc140u.dll
 0000:fffc6000       .debug$S                   0000000140000000     mfc140u:mfc140u.dll
 0000:fffc6000       .debug$S                   0000000140000000     mfc140u:mfc140u.dll
 0000:fffc6000       .debug$S                   0000000140000000     mfc140u:mfc140u.dll
 0000:fffc6000       .debug$S                   0000000140000000     mfc140u:mfc140u.dll
 0000:fffc6000       .debug$S                   0000000140000000     mfc140u:mfc140u.dll
 0000:fffc6000       .debug$S                   0000000140000000     mfc140u:mfc140u.dll
 0000:fffc6000       .debug$S                   0000000140000000     mfc140u:mfc140u.dll
 0000:fffc6000       .debug$S                   0000000140000000     mfc140u:mfc140u.dll
 0000:fffc6000       .debug$S                   0000000140000000     mfc140u:mfc140u.dll
 0000:fffc6000       .debug$S                   0000000140000000     mfc140u:mfc140u.dll
 0000:fffc6000       .debug$S                   0000000140000000     mfc140u:mfc140u.dll
 0000:fffc6000       .debug$S                   0000000140000000     mfc140u:mfc140u.dll
 0000:fffc6000       .debug$S                   0000000140000000     mfc140u:mfc140u.dll
 0000:fffc6000       .debug$S                   0000000140000000     mfc140u:mfc140u.dll
 0000:fffc6000       .debug$S                   0000000140000000     mfc140u:mfc140u.dll
 0000:fffc6000       .debug$S                   0000000140000000     mfc140u:mfc140u.dll
 0000:fffc6000       .debug$S                   0000000140000000     mfc140u:mfc140u.dll
 0000:fffc6000       .debug$S                   0000000140000000     mfc140u:mfc140u.dll
 0000:fffc6000       .debug$S                   0000000140000000     mfc140u:mfc140u.dll
 0000:fffc6000       .debug$S                   0000000140000000     mfc140u:mfc140u.dll
 0000:fffc6000       .debug$S                   0000000140000000     mfc140u:mfc140u.dll
 0000:fffc6000       .debug$S                   0000000140000000     mfc140u:mfc140u.dll
 0000:fffc6000       .debug$S                   0000000140000000     mfc140u:mfc140u.dll
 0000:fffc6000       .debug$S                   0000000140000000     mfc140u:mfc140u.dll
 0000:fffc6000       .debug$S                   0000000140000000     mfc140u:mfc140u.dll
 0000:fffc6000       .debug$S                   0000000140000000     mfc140u:mfc140u.dll
 0000:fffc6000       .debug$S                   0000000140000000     mfc140u:mfc140u.dll
 0000:fffc6000       .debug$S                   0000000140000000     mfc140u:mfc140u.dll
 0000:fffc6000       .debug$S                   0000000140000000     mfc140u:mfc140u.dll
 0000:fffc6000       .debug$S                   0000000140000000     mfc140u:mfc140u.dll
 0000:fffc6000       .debug$S                   0000000140000000     mfc140u:mfc140u.dll
 0000:fffc6000       .debug$S                   0000000140000000     mfc140u:mfc140u.dll
 0000:fffc6000       .debug$S                   0000000140000000     mfc140u:mfc140u.dll
 0000:fffc6000       .debug$S                   0000000140000000     mfc140u:mfc140u.dll
 0000:fffc6000       .debug$S                   0000000140000000     mfc140u:mfc140u.dll
 0000:fffc6000       .debug$S                   0000000140000000     mfc140u:mfc140u.dll
 0000:fffc6000       .debug$S                   0000000140000000     mfc140u:mfc140u.dll
 0000:fffc6000       .debug$S                   0000000140000000     mfc140u:mfc140u.dll
 0000:fffc6000       .debug$S                   0000000140000000     mfc140u:mfc140u.dll
 0000:fffc6000       .debug$S                   0000000140000000     mfc140u:mfc140u.dll
 0000:fffc6000       .debug$S                   0000000140000000     mfc140u:mfc140u.dll
 0000:fffc6000       .debug$S                   0000000140000000     mfc140u:mfc140u.dll
 0000:fffc6000       .debug$S                   0000000140000000     mfc140u:mfc140u.dll
 0000:fffc6000       .debug$S                   0000000140000000     mfc140u:mfc140u.dll
 0000:fffc6000       .debug$S                   0000000140000000     mfc140u:mfc140u.dll
 0000:fffc6000       .debug$S                   0000000140000000     mfc140u:mfc140u.dll
 0000:fffc6000       .debug$S                   0000000140000000     mfc140u:mfc140u.dll
 0000:fffc6000       .debug$S                   0000000140000000     mfc140u:mfc140u.dll
 0000:fffc6000       .debug$S                   0000000140000000     mfc140u:mfc140u.dll
 0000:fffc6000       .debug$S                   0000000140000000     mfc140u:mfc140u.dll
 0000:fffc6000       .debug$S                   0000000140000000     mfc140u:mfc140u.dll
 0000:fffc6000       .debug$S                   0000000140000000     mfc140u:mfc140u.dll
 0000:fffc6000       .debug$S                   0000000140000000     mfc140u:mfc140u.dll
 0000:fffc6000       .debug$S                   0000000140000000     mfc140u:mfc140u.dll
 0000:fffc6000       .debug$S                   0000000140000000     mfc140u:mfc140u.dll
 0000:fffc6000       .debug$S                   0000000140000000     mfc140u:mfc140u.dll
 0000:fffc6000       .debug$S                   0000000140000000     mfc140u:mfc140u.dll
 0000:fffc6000       .debug$S                   0000000140000000     mfc140u:mfc140u.dll
 0000:fffc6000       .debug$S                   0000000140000000     mfc140u:mfc140u.dll
 0000:fffc6000       .debug$S                   0000000140000000     mfc140u:mfc140u.dll
 0000:fffc6000       .debug$S                   0000000140000000     mfc140u:mfc140u.dll
 0000:fffc6000       .debug$S                   0000000140000000     mfc140u:mfc140u.dll
 0000:fffc6000       .debug$S                   0000000140000000     mfc140u:mfc140u.dll
 0000:fffc6000       .debug$S                   0000000140000000     mfc140u:mfc140u.dll
 0000:fffc6000       .debug$S                   0000000140000000     mfc140u:mfc140u.dll
 0000:fffc6000       .debug$S                   0000000140000000     mfc140u:mfc140u.dll
 0000:fffc6000       .debug$S                   0000000140000000     mfc140u:mfc140u.dll
 0000:fffc6000       .debug$S                   0000000140000000     mfc140u:mfc140u.dll
 0000:fffc6000       .debug$S                   0000000140000000     mfc140u:mfc140u.dll
 0000:fffc6000       .debug$S                   0000000140000000     mfc140u:mfc140u.dll
 0000:fffc6000       .debug$S                   0000000140000000     mfc140u:mfc140u.dll
 0000:fffc6000       .debug$S                   0000000140000000     mfc140u:mfc140u.dll
 0000:fffc6000       .debug$S                   0000000140000000     mfc140u:mfc140u.dll
 0000:fffc6000       .debug$S                   0000000140000000     mfc140u:mfc140u.dll
 0000:fffc6000       .debug$S                   0000000140000000     mfc140u:mfc140u.dll
 0000:fffc6000       .debug$S                   0000000140000000     mfc140u:mfc140u.dll
 0000:fffc6000       .debug$S                   0000000140000000     mfc140u:mfc140u.dll
 0000:fffc6000       .debug$S                   0000000140000000     mfc140u:mfc140u.dll
 0000:fffc6000       .debug$S                   0000000140000000     mfc140u:mfc140u.dll
 0000:fffc6000       .debug$S                   0000000140000000     mfc140u:mfc140u.dll
 0000:fffc6000       .debug$S                   0000000140000000     mfc140u:mfc140u.dll
 0000:fffc6000       .debug$S                   0000000140000000     mfc140u:mfc140u.dll
 0000:fffc6000       .debug$S                   0000000140000000     mfc140u:mfc140u.dll
 0000:fffc6000       .debug$S                   0000000140000000     mfc140u:mfc140u.dll
 0000:fffc6000       .debug$S                   0000000140000000     mfc140u:mfc140u.dll
 0000:fffc6000       .debug$S                   0000000140000000     mfc140u:mfc140u.dll
 0000:fffc6000       .debug$S                   0000000140000000     mfc140u:mfc140u.dll
 0000:fffc6000       .debug$S                   0000000140000000     mfc140u:mfc140u.dll
 0000:fffc6000       .debug$S                   0000000140000000     mfc140u:mfc140u.dll
 0000:fffc6000       .debug$S                   0000000140000000     mfc140u:mfc140u.dll
 0000:fffc6000       .debug$S                   0000000140000000     mfc140u:mfc140u.dll
 0000:fffc6000       .debug$S                   0000000140000000     mfc140u:mfc140u.dll
 0000:fffc6000       .debug$S                   0000000140000000     mfc140u:mfc140u.dll
 0000:fffc6000       .debug$S                   0000000140000000     mfc140u:mfc140u.dll
 0000:fffc6000       .debug$S                   0000000140000000     mfc140u:mfc140u.dll
 0000:fffc6000       .debug$S                   0000000140000000     mfc140u:mfc140u.dll
 0000:fffc6000       .debug$S                   0000000140000000     mfc140u:mfc140u.dll
 0000:fffc6000       .debug$S                   0000000140000000     mfc140u:mfc140u.dll
 0000:fffc6000       .debug$S                   0000000140000000     mfc140u:mfc140u.dll
 0000:fffc6000       .debug$S                   0000000140000000     mfc140u:mfc140u.dll
 0000:fffc6000       .debug$S                   0000000140000000     mfc140u:mfc140u.dll
 0000:fffc6000       .debug$S                   0000000140000000     mfc140u:mfc140u.dll
 0000:fffc6000       .debug$S                   0000000140000000     mfc140u:mfc140u.dll
 0000:fffc6000       .debug$S                   0000000140000000     mfc140u:mfc140u.dll
 0000:fffc6000       .debug$S                   0000000140000000     mfc140u:mfc140u.dll
 0000:fffc6000       .debug$S                   0000000140000000     mfc140u:mfc140u.dll
 0000:fffc6000       .debug$S                   0000000140000000     mfc140u:mfc140u.dll
 0000:fffc6000       .debug$S                   0000000140000000     mfc140u:mfc140u.dll
 0000:fffc6000       .debug$S                   0000000140000000     mfc140u:mfc140u.dll
 0000:fffc6000       .debug$S                   0000000140000000     mfc140u:mfc140u.dll
 0000:fffc6000       .debug$S                   0000000140000000     mfc140u:mfc140u.dll
 0000:fffc6000       .debug$S                   0000000140000000     mfc140u:mfc140u.dll
 0000:fffc6000       .debug$S                   0000000140000000     mfc140u:mfc140u.dll
 0000:fffc6000       .debug$S                   0000000140000000     mfc140u:mfc140u.dll
 0000:fffc6000       .debug$S                   0000000140000000     mfc140u:mfc140u.dll
 0000:fffc6000       .debug$S                   0000000140000000     mfc140u:mfc140u.dll
 0000:fffc6000       .debug$S                   0000000140000000     mfc140u:mfc140u.dll
 0000:fffc6000       .debug$S                   0000000140000000     mfc140u:mfc140u.dll
 0000:fffc6000       .debug$S                   0000000140000000     mfc140u:mfc140u.dll
 0000:fffc6000       .debug$S                   0000000140000000     mfc140u:mfc140u.dll
 0000:fffc6000       .debug$S                   0000000140000000     mfc140u:mfc140u.dll
 0000:fffc6000       .debug$S                   0000000140000000     mfc140u:mfc140u.dll
 0000:fffc6000       .debug$S                   0000000140000000     mfc140u:mfc140u.dll
 0000:fffc6000       .debug$S                   0000000140000000     mfc140u:mfc140u.dll
 0000:fffc6000       .debug$S                   0000000140000000     mfc140u:mfc140u.dll
 0000:fffc6000       .debug$S                   0000000140000000     mfc140u:mfc140u.dll
 0000:fffc6000       .debug$S                   0000000140000000     mfc140u:mfc140u.dll
 0000:fffc6000       .debug$S                   0000000140000000     mfc140u:mfc140u.dll
 0000:fffc6000       .debug$S                   0000000140000000     mfc140u:mfc140u.dll
 0000:fffc6000       .debug$S                   0000000140000000     mfc140u:mfc140u.dll
 0000:fffc6000       .debug$S                   0000000140000000     mfc140u:mfc140u.dll
 0000:fffc6000       .debug$S                   0000000140000000     mfc140u:mfc140u.dll
 0000:fffc6000       .debug$S                   0000000140000000     mfc140u:mfc140u.dll
 0000:fffc6000       .debug$S                   0000000140000000     mfc140u:mfc140u.dll
 0000:fffc6000       .debug$S                   0000000140000000     mfc140u:mfc140u.dll
 0000:fffc6000       .debug$S                   0000000140000000     mfc140u:mfc140u.dll
 0000:fffc6000       .debug$S                   0000000140000000     mfc140u:mfc140u.dll
 0000:fffc6000       .debug$S                   0000000140000000     mfc140u:mfc140u.dll
 0000:fffc6000       .debug$S                   0000000140000000     mfc140u:mfc140u.dll
 0000:fffc6000       .debug$S                   0000000140000000     mfc140u:mfc140u.dll
 0000:fffc6000       .debug$S                   0000000140000000     mfc140u:mfc140u.dll
 0000:fffc6000       .debug$S                   0000000140000000     mfc140u:mfc140u.dll
 0000:fffc6000       .debug$S                   0000000140000000     mfc140u:mfc140u.dll
 0000:fffc6000       .debug$S                   0000000140000000     mfc140u:mfc140u.dll
 0000:fffc6000       .debug$S                   0000000140000000     mfc140u:mfc140u.dll
 0000:fffc6000       .debug$S                   0000000140000000     mfc140u:mfc140u.dll
 0000:fffc6000       .debug$S                   0000000140000000     mfc140u:mfc140u.dll
 0000:fffc6000       .debug$S                   0000000140000000     mfc140u:mfc140u.dll
 0000:fffc6000       .debug$S                   0000000140000000     mfc140u:mfc140u.dll
 0000:fffc6000       .debug$S                   0000000140000000     mfc140u:mfc140u.dll
 0000:fffc6000       .debug$S                   0000000140000000     mfc140u:mfc140u.dll
 0000:fffc6000       .debug$S                   0000000140000000     mfc140u:mfc140u.dll
 0000:fffc6000       .debug$S                   0000000140000000     mfc140u:mfc140u.dll
 0000:fffc6000       .debug$S                   0000000140000000     mfc140u:mfc140u.dll
 0000:fffc6000       .debug$S                   0000000140000000     mfc140u:mfc140u.dll
 0000:fffc6000       .debug$S                   0000000140000000     mfc140u:mfc140u.dll
 0000:fffc6000       .debug$S                   0000000140000000     mfc140u:mfc140u.dll
 0000:fffc6000       .debug$S                   0000000140000000     mfc140u:mfc140u.dll
 0000:fffc6000       .debug$S                   0000000140000000     mfc140u:mfc140u.dll
 0000:fffc6000       .debug$S                   0000000140000000     mfc140u:mfc140u.dll
 0000:fffc6000       .debug$S                   0000000140000000     mfc140u:mfc140u.dll
 0000:fffc6000       .debug$S                   0000000140000000     mfc140u:mfc140u.dll
 0000:fffc6000       .debug$S                   0000000140000000     mfc140u:mfc140u.dll
 0000:fffc6000       .debug$S                   0000000140000000     mfc140u:mfc140u.dll
 0000:fffc6000       .debug$S                   0000000140000000     mfc140u:mfc140u.dll
 0000:fffc6000       .debug$S                   0000000140000000     mfc140u:mfc140u.dll
 0000:fffc6000       .debug$S                   0000000140000000     mfc140u:mfc140u.dll
 0000:fffc6000       .debug$S                   0000000140000000     mfc140u:mfc140u.dll
 0000:fffc6000       .debug$S                   0000000140000000     mfc140u:mfc140u.dll
 0000:fffc6000       .debug$S                   0000000140000000     mfc140u:mfc140u.dll
 0000:fffc6000       .debug$S                   0000000140000000     mfc140u:mfc140u.dll
 0000:fffc6000       .debug$S                   0000000140000000     mfc140u:mfc140u.dll
 0000:fffc6000       .debug$S                   0000000140000000     mfc140u:mfc140u.dll
 0000:fffc6000       .debug$S                   0000000140000000     mfc140u:mfc140u.dll
 0000:fffc6000       .debug$S                   0000000140000000     mfc140u:mfc140u.dll
 0000:fffc6000       .debug$S                   0000000140000000     mfc140u:mfc140u.dll
 0000:fffc6000       .debug$S                   0000000140000000     mfc140u:mfc140u.dll
 0000:fffc6000       .debug$S                   0000000140000000     mfc140u:mfc140u.dll
 0000:fffc6000       .debug$S                   0000000140000000     mfc140u:mfc140u.dll
 0000:fffc6000       .debug$S                   0000000140000000     mfc140u:mfc140u.dll
 0000:fffc6000       .debug$S                   0000000140000000     mfc140u:mfc140u.dll
 0000:fffc6000       .debug$S                   0000000140000000     mfc140u:mfc140u.dll
 0000:fffc6000       .debug$S                   0000000140000000     mfc140u:mfc140u.dll
 0000:fffc6000       .debug$S                   0000000140000000     mfc140u:mfc140u.dll
 0000:fffc6000       .debug$S                   0000000140000000     mfc140u:mfc140u.dll
 0000:fffc6000       .debug$S                   0000000140000000     mfc140u:mfc140u.dll
 0000:fffc6000       .debug$S                   0000000140000000     mfc140u:mfc140u.dll
 0000:fffc6000       .debug$S                   0000000140000000     mfc140u:mfc140u.dll
 0000:fffc6000       .debug$S                   0000000140000000     mfc140u:mfc140u.dll
 0000:fffc6000       .debug$S                   0000000140000000     mfc140u:mfc140u.dll
 0000:fffc6000       .debug$S                   0000000140000000     mfc140u:mfc140u.dll
 0000:fffc6000       .debug$S                   0000000140000000     mfc140u:mfc140u.dll
 0000:fffc6000       .debug$S                   0000000140000000     mfc140u:mfc140u.dll
 0000:fffc6000       .debug$S                   0000000140000000     mfc140u:mfc140u.dll
 0000:fffc6000       .debug$S                   0000000140000000     mfc140u:mfc140u.dll
 0000:fffc6000       .debug$S                   0000000140000000     mfc140u:mfc140u.dll
 0000:fffc6000       .debug$S                   0000000140000000     mfc140u:mfc140u.dll
 0000:fffc6000       .debug$S                   0000000140000000     mfc140u:mfc140u.dll
 0000:fffc6000       .debug$S                   0000000140000000     mfc140u:mfc140u.dll
 0000:fffc6000       .debug$S                   0000000140000000     mfc140u:mfc140u.dll
 0000:fffc6000       .debug$S                   0000000140000000     mfc140u:mfc140u.dll
 0000:fffc6000       .debug$S                   0000000140000000     mfc140u:mfc140u.dll
 0000:fffc6000       .debug$S                   0000000140000000     mfc140u:mfc140u.dll
 0000:fffc6000       .debug$S                   0000000140000000     mfc140u:mfc140u.dll
 0000:fffc6000       .debug$S                   0000000140000000     mfc140u:mfc140u.dll
 0000:fffc6000       .debug$S                   0000000140000000     mfc140u:mfc140u.dll
 0000:fffc6000       .debug$S                   0000000140000000     mfc140u:mfc140u.dll
 0000:fffc6000       .debug$S                   0000000140000000     mfc140u:mfc140u.dll
 0000:fffc6000       .debug$S                   0000000140000000     mfc140u:mfc140u.dll
 0000:fffc6000       .debug$S                   0000000140000000     mfc140u:mfc140u.dll
 0000:fffc6000       .debug$S                   0000000140000000     mfc140u:mfc140u.dll
 0000:fffc6000       .debug$S                   0000000140000000     mfc140u:mfc140u.dll
 0000:fffc6000       .debug$S                   0000000140000000     mfc140u:mfc140u.dll
 0000:fffc6000       .debug$S                   0000000140000000     mfc140u:mfc140u.dll
 0000:fffc6000       .debug$S                   0000000140000000     mfc140u:mfc140u.dll
 0000:fffc6000       .debug$S                   0000000140000000     mfc140u:mfc140u.dll
 0000:fffc6000       .debug$S                   0000000140000000     mfc140u:mfc140u.dll
 0000:fffc6000       .debug$S                   0000000140000000     mfc140u:mfc140u.dll
 0000:fffc6000       .debug$S                   0000000140000000     mfc140u:mfc140u.dll
 0000:fffc6000       .debug$S                   0000000140000000     mfc140u:mfc140u.dll
 0000:fffc6000       .debug$S                   0000000140000000     mfc140u:mfc140u.dll
 0000:fffc6000       .debug$S                   0000000140000000     mfc140u:mfc140u.dll
 0000:fffc6000       .debug$S                   0000000140000000     mfc140u:mfc140u.dll
 0000:fffc6000       .debug$S                   0000000140000000     mfc140u:mfc140u.dll
 0000:fffc6000       .debug$S                   0000000140000000     mfc140u:mfc140u.dll
 0000:fffc6000       .debug$S                   0000000140000000     mfc140u:mfc140u.dll
 0000:fffc6000       .debug$S                   0000000140000000     mfc140u:mfc140u.dll
 0000:fffc6000       .debug$S                   0000000140000000     mfc140u:mfc140u.dll
 0000:fffc6000       .debug$S                   0000000140000000     mfc140u:mfc140u.dll
 0000:fffc6000       .debug$S                   0000000140000000     mfc140u:mfc140u.dll
 0000:fffc6000       .debug$S                   0000000140000000     mfc140u:mfc140u.dll
 0000:fffc6000       .debug$S                   0000000140000000     mfc140u:mfc140u.dll
 0000:fffc6000       .debug$S                   0000000140000000     mfc140u:mfc140u.dll
 0000:fffc6000       .debug$S                   0000000140000000     mfc140u:mfc140u.dll
 0000:fffc6000       .debug$S                   0000000140000000     mfc140u:mfc140u.dll
 0000:fffc6000       .debug$S                   0000000140000000     mfc140u:mfc140u.dll
 0000:fffc6000       .debug$S                   0000000140000000     mfc140u:mfc140u.dll
 0000:fffc6000       .debug$S                   0000000140000000     mfc140u:mfc140u.dll
 0000:fffc6000       .debug$S                   0000000140000000     mfc140u:mfc140u.dll
 0000:fffc6000       .debug$S                   0000000140000000     mfc140u:mfc140u.dll
 0000:fffc6000       .debug$S                   0000000140000000     mfc140u:mfc140u.dll
 0000:fffc6000       .debug$S                   0000000140000000     mfc140u:mfc140u.dll
 0000:fffc6000       .debug$S                   0000000140000000     mfc140u:mfc140u.dll
 0000:fffc6000       .debug$S                   0000000140000000     mfc140u:mfc140u.dll
 0000:fffc6000       .debug$S                   0000000140000000     mfc140u:mfc140u.dll
 0000:fffc6000       .debug$S                   0000000140000000     mfc140u:mfc140u.dll
 0000:fffc6000       .debug$S                   0000000140000000     mfc140u:mfc140u.dll
 0000:fffc6000       .debug$S                   0000000140000000     mfc140u:mfc140u.dll
 0000:fffc6000       .debug$S                   0000000140000000     msvcprt:MSVCP140.dll
 0000:fffc6000       .debug$S                   0000000140000000     msvcprt:MSVCP140.dll
 0000:fffc6000       .debug$S                   0000000140000000     msvcprt:MSVCP140.dll
 0000:fffc6000       .debug$S                   0000000140000000     msvcprt:MSVCP140.dll
 0000:fffc6000       .debug$S                   0000000140000000     msvcprt:MSVCP140.dll
 0000:fffc6000       .debug$S                   0000000140000000     msvcprt:MSVCP140.dll
 0000:fffc6000       .debug$S                   0000000140000000     msvcprt:MSVCP140.dll
 0000:fffc6000       .debug$S                   0000000140000000     msvcprt:MSVCP140.dll
 0000:fffc6000       .debug$S                   0000000140000000     msvcprt:MSVCP140.dll
 0000:fffc6000       .debug$S                   0000000140000000     msvcprt:MSVCP140.dll
 0000:fffc6000       .debug$S                   0000000140000000     msvcprt:MSVCP140.dll
 0000:fffc6000       .debug$S                   0000000140000000     msvcprt:MSVCP140.dll
 0000:fffc6000       .debug$S                   0000000140000000     msvcprt:MSVCP140.dll
 0000:fffc6000       .debug$S                   0000000140000000     msvcprt:MSVCP140.dll
 0000:fffc6000       .debug$S                   0000000140000000     msvcprt:MSVCP140.dll
 0000:fffc6000       .debug$S                   0000000140000000     msvcprt:MSVCP140.dll
 0000:fffc6000       .debug$S                   0000000140000000     msvcprt:MSVCP140.dll
 0000:fffc6000       .debug$S                   0000000140000000     msvcprt:MSVCP140.dll
 0000:fffc6000       .debug$S                   0000000140000000     msvcprt:MSVCP140.dll
 0000:fffc6000       .debug$S                   0000000140000000     msvcprt:MSVCP140.dll
 0000:fffc6000       .debug$S                   0000000140000000     msvcprt:MSVCP140.dll
 0000:fffc6000       .debug$S                   0000000140000000     msvcprt:MSVCP140.dll
 0000:fffc6000       .debug$S                   0000000140000000     msvcprt:MSVCP140.dll
 0000:fffc6000       .debug$S                   0000000140000000     msvcprt:MSVCP140.dll
 0000:fffc6000       .debug$S                   0000000140000000     msvcprt:MSVCP140.dll
 0000:fffc6000       .debug$S                   0000000140000000     msvcprt:MSVCP140.dll
 0000:fffc6000       .debug$S                   0000000140000000     msvcprt:MSVCP140.dll
 0000:fffc6000       .debug$S                   0000000140000000     msvcprt:MSVCP140.dll
 0000:fffc6000       .debug$S                   0000000140000000     msvcprt:MSVCP140.dll
 0000:fffc6000       .debug$S                   0000000140000000     msvcprt:MSVCP140.dll
 0000:fffc6000       .debug$S                   0000000140000000     msvcprt:MSVCP140.dll
 0000:fffc6000       .debug$S                   0000000140000000     msvcprt:MSVCP140.dll
 0000:fffc6000       .debug$S                   0000000140000000     msvcprt:MSVCP140.dll
 0000:fffc6000       .debug$S                   0000000140000000     msvcprt:MSVCP140.dll
 0000:fffc6000       .debug$S                   0000000140000000     msvcprt:MSVCP140.dll
 0000:fffc6000       .debug$S                   0000000140000000     msvcprt:MSVCP140.dll
 0000:fffc6000       .debug$S                   0000000140000000     msvcprt:MSVCP140.dll
 0000:fffc6000       .debug$S                   0000000140000000     msvcprt:MSVCP140.dll
 0000:fffc6000       .debug$S                   0000000140000000     msvcprt:MSVCP140.dll
 0000:fffc6000       .debug$S                   0000000140000000     msvcprt:MSVCP140.dll
 0000:fffc6000       .debug$S                   0000000140000000     msvcprt:MSVCP140.dll
 0000:fffc6000       .debug$S                   0000000140000000     msvcprt:MSVCP140.dll
 0000:fffc6000       .debug$S                   0000000140000000     msvcprt:MSVCP140.dll
 0000:fffc6000       .debug$S                   0000000140000000     msvcprt:MSVCP140.dll
 0000:fffc6000       .debug$S                   0000000140000000     msvcprt:MSVCP140.dll
 0000:fffc6000       .debug$S                   0000000140000000     msvcprt:MSVCP140.dll
 0000:fffc6000       .debug$S                   0000000140000000     msvcprt:MSVCP140.dll
 0000:fffc6000       .debug$S                   0000000140000000     msvcprt:MSVCP140.dll
 0000:fffc6000       .debug$S                   0000000140000000     msvcprt:MSVCP140.dll
 0000:fffc6000       .debug$S                   0000000140000000     msvcprt:MSVCP140.dll
 0000:fffc6000       .debug$S                   0000000140000000     msvcprt:MSVCP140.dll
 0000:fffc6000       .debug$S                   0000000140000000     msvcprt:MSVCP140.dll
 0000:fffc6000       .debug$S                   0000000140000000     msvcprt:MSVCP140.dll
 0000:fffc6000       .debug$S                   0000000140000000     msvcprt:MSVCP140.dll
 0000:fffc6000       .debug$S                   0000000140000000     msvcprt:MSVCP140.dll
 0000:fffc6000       .debug$S                   0000000140000000     msvcprt:MSVCP140.dll
 0000:fffc6000       .debug$S                   0000000140000000     msvcprt:MSVCP140.dll
 0000:fffc6000       .debug$S                   0000000140000000     msvcprt:MSVCP140.dll
 0000:fffc6000       .debug$S                   0000000140000000     msvcprt:MSVCP140.dll
 0000:fffc6000       .debug$S                   0000000140000000     msvcprt:MSVCP140.dll
 0000:fffc6000       .debug$S                   0000000140000000     msvcprt:MSVCP140.dll
 0000:fffc6000       .debug$S                   0000000140000000     msvcprt:MSVCP140.dll
 0000:fffc6000       .debug$S                   0000000140000000     msvcprt:MSVCP140.dll
 0000:fffc6000       .debug$S                   0000000140000000     msvcprt:MSVCP140.dll
 0000:fffc6000       .debug$S                   0000000140000000     msvcprt:MSVCP140.dll
 0000:fffc6000       .debug$S                   0000000140000000     msvcprt:MSVCP140.dll
 0000:fffc6000       .debug$S                   0000000140000000     msvcprt:MSVCP140.dll
 0000:fffc6000       .debug$S                   0000000140000000     msvcprt:MSVCP140.dll
 0000:fffc6000       .debug$S                   0000000140000000     msvcprt:MSVCP140.dll
 0000:fffc6000       .debug$S                   0000000140000000     msvcprt:MSVCP140.dll
 0000:fffc6000       .debug$S                   0000000140000000     msvcprt:MSVCP140.dll
 0000:fffc6000       .debug$S                   0000000140000000     msvcprt:MSVCP140.dll
 0000:fffc6000       .debug$S                   0000000140000000     msvcprt:MSVCP140.dll
 0000:fffc6000       .debug$S                   0000000140000000     msvcprt:MSVCP140.dll
 0000:fffc6000       .debug$S                   0000000140000000     msvcprt:MSVCP140.dll
 0000:fffc6000       .debug$S                   0000000140000000     msvcprt:MSVCP140.dll
 0000:fffc6000       .debug$S                   0000000140000000     msvcprt:MSVCP140.dll
 0000:fffc6000       .debug$S                   0000000140000000     msvcprt:MSVCP140.dll
 0000:fffc6000       .debug$S                   0000000140000000     msvcprt:MSVCP140.dll
 0000:fffc6000       .debug$S                   0000000140000000     msvcprt:MSVCP140.dll
 0000:fffc6000       .debug$S                   0000000140000000     msvcprt:MSVCP140.dll
 0000:fffc6000       .debug$S                   0000000140000000     msvcprt:MSVCP140.dll
 0000:fffc6000       .debug$S                   0000000140000000     msvcprt:MSVCP140.dll
 0000:fffc6000       .debug$S                   0000000140000000     msvcprt:MSVCP140.dll
 0000:fffc6000       .debug$S                   0000000140000000     msvcprt:MSVCP140.dll
 0000:fffc6000       .debug$S                   0000000140000000     msvcprt:MSVCP140.dll
 0000:fffc6000       .debug$S                   0000000140000000     msvcprt:MSVCP140.dll
 0000:fffc6000       .debug$S                   0000000140000000     msvcprt:MSVCP140.dll
 0000:fffc6000       .debug$S                   0000000140000000     msvcprt:MSVCP140.dll
 0000:fffc6000       .debug$S                   0000000140000000     msvcprt:MSVCP140.dll
 0000:fffc6000       .debug$S                   0000000140000000     msvcprt:MSVCP140.dll
 0000:fffc6000       .debug$S                   0000000140000000     msvcprt:MSVCP140.dll
 0000:fffc6000       .debug$S                   0000000140000000     msvcprt:MSVCP140.dll
 0000:fffc6000       .debug$S                   0000000140000000     msvcprt:MSVCP140.dll
 0000:fffc6000       .debug$S                   0000000140000000     msvcprt:MSVCP140.dll
 0000:fffc6000       .debug$S                   0000000140000000     msvcprt:MSVCP140.dll
 0000:fffc6000       .debug$S                   0000000140000000     msvcprt:MSVCP140.dll
 0000:fffc6000       .debug$S                   0000000140000000     msvcprt:MSVCP140.dll
 0000:fffc6000       .debug$S                   0000000140000000     msvcprt:MSVCP140.dll
 0000:fffc6000       .debug$S                   0000000140000000     msvcprt:MSVCP140.dll
 0000:fffc6000       .debug$S                   0000000140000000     msvcprt:MSVCP140.dll
 0000:fffc6000       .debug$S                   0000000140000000     msvcprt:MSVCP140.dll
 0000:fffc6000       .debug$S                   0000000140000000     msvcprt:MSVCP140.dll
 0000:fffc6000       .debug$S                   0000000140000000     msvcprt:MSVCP140.dll
 0000:fffc6000       .debug$S                   0000000140000000     msvcprt:MSVCP140.dll
 0000:fffc6000       .debug$S                   0000000140000000     msvcprt:MSVCP140.dll
 0000:fffc6000       .debug$S                   0000000140000000     vcruntime:VCRUNTIME140.dll
 0000:fffc6000       .debug$S                   0000000140000000     vcruntime:VCRUNTIME140.dll
 0000:fffc6000       .debug$S                   0000000140000000     vcruntime:VCRUNTIME140.dll
 0000:fffc6000       .debug$S                   0000000140000000     vcruntime:VCRUNTIME140.dll
 0000:fffc6000       .debug$S                   0000000140000000     vcruntime:VCRUNTIME140.dll
 0000:fffc6000       .debug$S                   0000000140000000     vcruntime:VCRUNTIME140.dll
 0000:fffc6000       .debug$S                   0000000140000000     vcruntime:VCRUNTIME140.dll
 0000:fffc6000       .debug$S                   0000000140000000     vcruntime:VCRUNTIME140.dll
 0000:fffc6000       .debug$S                   0000000140000000     vcruntime:VCRUNTIME140.dll
 0000:fffc6000       .debug$S                   0000000140000000     vcruntime:VCRUNTIME140.dll
 0000:fffc6000       .debug$S                   0000000140000000     vcruntime:VCRUNTIME140.dll
 0000:fffc6000       .debug$S                   0000000140000000     vcruntime:VCRUNTIME140.dll
 0000:fffc6000       .debug$S                   0000000140000000     vcruntime:VCRUNTIME140.dll
 0000:fffc6000       .debug$S                   0000000140000000     vcruntime:VCRUNTIME140.dll
 0000:fffc6000       .debug$S                   0000000140000000     vcruntime:VCRUNTIME140.dll
 0000:fffc6000       .debug$S                   0000000140000000     vcruntime:VCRUNTIME140.dll
 0000:fffc6000       .debug$S                   0000000140000000     vcruntime:VCRUNTIME140_1.dll
 0000:fffc6000       .debug$S                   0000000140000000     MNSC:MNSC.dll
 0000:fffc6000       .debug$S                   0000000140000000     MNSC:MNSC.dll
 0000:fffc6000       .debug$S                   0000000140000000     MNSC:MNSC.dll
 0000:fffc6000       .debug$S                   0000000140000000     MNSC:MNSC.dll
 0000:fffc6000       .debug$S                   0000000140000000     MNSC:MNSC.dll
 0001:00000000       ??__EtheApp@@YAXXZ         0000000140001000 f   MFCEdit.obj
 0001:00000050       ??__E_AtlBaseModule@ATL@@YAXXZ 0000000140001050 f   atls:atlbase.obj
 0001:00000070       ??__EvtMissing@@YAXXZ      0000000140001070 f   comsuppw:comutil.obj
 0001:0000007c       ??__F_Fac_tidy_reg@std@@YAXXZ 000000014000107c f   msvcprt:locale0_implib.obj
 0001:00000088       ??__E_afxInitAppState@@YAXXZ 0000000140001088 f   mfcs140u:appmodul.obj
 0001:000018c0       $LN40                      00000001400028c0     MFCEditView.obj
 0001:000018dc       $LN39                      00000001400028dc     MFCEditView.obj
 0001:00009cd8       $LN267                     000000014000acd8     MFCEditView.obj
 0001:0000b228       $LN682                     000000014000c228     MFCEditView.obj
 0001:0000c928       $LN78                      000000014000d928     MFCEditView.obj
 0001:0000c950       $LN77                      000000014000d950     MFCEditView.obj
 0001:0000fec8       $LN221                     0000000140010ec8     MFCEditView.obj
 0001:0000fed0       $LN220                     0000000140010ed0     MFCEditView.obj
 0001:0000ff04       $LN219                     0000000140010f04     MFCEditView.obj
 0001:0000ff14       $LN218                     0000000140010f14     MFCEditView.obj
 0001:000127bc       ?pre_c_initialization@@YAHXZ 00000001400137bc f   msvcrt:exe_wwinmain.obj
 0001:00012874       ?post_pgo_initialization@@YAHXZ 0000000140013874 f   msvcrt:exe_wwinmain.obj
 0001:00012884       ?pre_cpp_initialization@@YAXXZ 0000000140013884 f   msvcrt:exe_wwinmain.obj
 0001:000128a0       ?__scrt_common_main_seh@@YAHXZ 00000001400138a0 f   msvcrt:exe_wwinmain.obj
 0001:00012a30       $$000000                   0000000140013a30     msvcrt:amdsecgs.obj
 0001:00013248       capture_previous_context   0000000140014248 f   msvcrt:gs_report.obj
 0001:00013a90       ??$__std_find_trivial_impl@U_Find_traits_2@?A0x8417fefe@@G@?A0x8417fefe@@YAPEBXPEBX0G@Z 0000000140014a90 f   msvcprt:vector_algorithms.obj
 0001:00013ba0       ??$__std_find_trivial_impl@U_Find_traits_4@?A0x8417fefe@@I@?A0x8417fefe@@YAPEBXPEBX0I@Z 0000000140014ba0 f   msvcprt:vector_algorithms.obj
 0001:00013df0       $$000000                   0000000140014df0     msvcrt:chkstk.obj
 0001:00013ee0       $$000000                   0000000140014ee0     msvcrt:guard_dispatch.obj
 0001:00013f00       $$000000                   0000000140014f00     msvcrt:guard_xfg_dispatch.obj
 0001:00013f20       ?dtor$0@?0??InitInstance@CMFCEditApp@@UEAAHXZ@4HA 0000000140014f20 f   MFCEdit.obj
 0001:00013f2c       ?dtor$1@?0??InitInstance@CMFCEditApp@@UEAAHXZ@4HA 0000000140014f2c f   MFCEdit.obj
 0001:00013f40       ?dtor$0@?0??OnAppAbout@CMFCEditApp@@QEAAXXZ@4HA 0000000140014f40 f   MFCEdit.obj
 0001:00013f50       ?catch$1@?0???1CGdiObject@@UEAA@XZ@4HA 0000000140014f50 f   MFCEdit.obj
 0001:00013f5e       __catch$??1CGdiObject@@UEAA@XZ$0 0000000140014f5e f   MFCEdit.obj
 0001:00014009       ?dtor$0@?0???1CGdiObject@@UEAA@XZ@4HA 0000000140015009 f   MFCEdit.obj
 0001:00014020       ?catch$1@?0??GetAdapter@CDocument@@UEAAPEAUIDocument@ATL@@XZ@4HA 0000000140015020 f   MFCEditDoc.obj
 0001:0001402d       __catch$?GetAdapter@CDocument@@UEAAPEAUIDocument@ATL@@XZ$0 000000014001502d f   MFCEditDoc.obj
 0001:00014050       ?dtor$3@?0??PasteTemplate@@YAXAEAVCEdit@@@Z@4HA 0000000140015050 f   MFCEditView.obj
 0001:0001407e       ?dtor$4@?0??PasteTemplate@@YAXAEAVCEdit@@@Z@4HA 000000014001507e f   MFCEditView.obj
 0001:00014090       ?dtor$0@?0??PasteTemplate@@YAXAEAVCEdit@@@Z@4HA 0000000140015090 f   MFCEditView.obj
 0001:0001409c       ?dtor$1@?0??PasteTemplate@@YAXAEAVCEdit@@@Z@4HA 000000014001509c f   MFCEditView.obj
 0001:000140aa       ?dtor$8@?0??PasteTemplate@@YAXAEAVCEdit@@@Z@4HA 00000001400150aa f   MFCEditView.obj
 0001:000140d0       ?dtor$2@?0??PasteTemplate@@YAXAEAVCEdit@@@Z@4HA 00000001400150d0 f   MFCEditView.obj
 0001:000140e0       ?dtor$0@?0??PreTranslateMessage@CMFCEditView@@MEAAHPEAUtagMSG@@@Z@4HA 00000001400150e0 f   MFCEditView.obj
 0001:000140ee       ?dtor$1@?0??PreTranslateMessage@CMFCEditView@@MEAAHPEAUtagMSG@@@Z@4HA 00000001400150ee f   MFCEditView.obj
 0001:00014100       ?dtor$0@?0??OnDestroy@CMFCEditView@@QEAAXXZ@4HA 0000000140015100 f   MFCEditView.obj
 0001:00014100       ?dtor$0@?0??OnInitialUpdate@CMFCEditView@@MEAAXXZ@4HA 0000000140015100 f   MFCEditView.obj
 0001:0001410e       ?dtor$1@?0??OnDestroy@CMFCEditView@@QEAAXXZ@4HA 000000014001510e f   MFCEditView.obj
 0001:0001410e       ?dtor$1@?0??OnInitialUpdate@CMFCEditView@@MEAAXXZ@4HA 000000014001510e f   MFCEditView.obj
 0001:00014120       ?dtor$0@?0??SetFont@CMFCEditView@@QEAAXH@Z@4HA 0000000140015120 f   MFCEditView.obj
 0001:00014130       ?dtor$0@?0??inetGet@CVARIANTTool@@IEAA?AUtagVARIANT@@U2@@Z@4HA 0000000140015130 f   MFCEditView.obj
 0001:0001413c       ?dtor$1@?0??inetGet@CVARIANTTool@@IEAA?AUtagVARIANT@@U2@@Z@4HA 000000014001513c f   MFCEditView.obj
 0001:00014148       ?dtor$2@?0??inetGet@CVARIANTTool@@IEAA?AUtagVARIANT@@U2@@Z@4HA 0000000140015148 f   MFCEditView.obj
 0001:00014154       ?dtor$3@?0??inetGet@CVARIANTTool@@IEAA?AUtagVARIANT@@U2@@Z@4HA 0000000140015154 f   MFCEditView.obj
 0001:00014160       ?dtor$4@?0??inetGet@CVARIANTTool@@IEAA?AUtagVARIANT@@U2@@Z@4HA 0000000140015160 f   MFCEditView.obj
 0001:0001416c       ?dtor$5@?0??inetGet@CVARIANTTool@@IEAA?AUtagVARIANT@@U2@@Z@4HA 000000014001516c f   MFCEditView.obj
 0001:00014178       ?dtor$37@?0??inetGet@CVARIANTTool@@IEAA?AUtagVARIANT@@U2@@Z@4HA 0000000140015178 f   MFCEditView.obj
 0001:00014195       ?dtor$6@?0??inetGet@CVARIANTTool@@IEAA?AUtagVARIANT@@U2@@Z@4HA 0000000140015195 f   MFCEditView.obj
 0001:000141a1       ?dtor$38@?0??inetGet@CVARIANTTool@@IEAA?AUtagVARIANT@@U2@@Z@4HA 00000001400151a1 f   MFCEditView.obj
 0001:000141be       ?dtor$7@?0??inetGet@CVARIANTTool@@IEAA?AUtagVARIANT@@U2@@Z@4HA 00000001400151be f   MFCEditView.obj
 0001:000141ca       ?dtor$36@?0??inetGet@CVARIANTTool@@IEAA?AUtagVARIANT@@U2@@Z@4HA 00000001400151ca f   MFCEditView.obj
 0001:000141e7       ?dtor$8@?0??inetGet@CVARIANTTool@@IEAA?AUtagVARIANT@@U2@@Z@4HA 00000001400151e7 f   MFCEditView.obj
 0001:000141f3       ?dtor$9@?0??inetGet@CVARIANTTool@@IEAA?AUtagVARIANT@@U2@@Z@4HA 00000001400151f3 f   MFCEditView.obj
 0001:000141ff       ?dtor$44@?0??inetGet@CVARIANTTool@@IEAA?AUtagVARIANT@@U2@@Z@4HA 00000001400151ff f   MFCEditView.obj
 0001:0001421c       ?dtor$43@?0??inetGet@CVARIANTTool@@IEAA?AUtagVARIANT@@U2@@Z@4HA 000000014001521c f   MFCEditView.obj
 0001:00014239       ?dtor$10@?0??inetGet@CVARIANTTool@@IEAA?AUtagVARIANT@@U2@@Z@4HA 0000000140015239 f   MFCEditView.obj
 0001:00014245       ?dtor$11@?0??inetGet@CVARIANTTool@@IEAA?AUtagVARIANT@@U2@@Z@4HA 0000000140015245 f   MFCEditView.obj
 0001:00014251       ?dtor$12@?0??inetGet@CVARIANTTool@@IEAA?AUtagVARIANT@@U2@@Z@4HA 0000000140015251 f   MFCEditView.obj
 0001:0001425d       ?dtor$14@?0??inetGet@CVARIANTTool@@IEAA?AUtagVARIANT@@U2@@Z@4HA 000000014001525d f   MFCEditView.obj
 0001:00014269       ?dtor$15@?0??inetGet@CVARIANTTool@@IEAA?AUtagVARIANT@@U2@@Z@4HA 0000000140015269 f   MFCEditView.obj
 0001:00014275       ?dtor$17@?0??inetGet@CVARIANTTool@@IEAA?AUtagVARIANT@@U2@@Z@4HA 0000000140015275 f   MFCEditView.obj
 0001:00014281       ?dtor$18@?0??inetGet@CVARIANTTool@@IEAA?AUtagVARIANT@@U2@@Z@4HA 0000000140015281 f   MFCEditView.obj
 0001:0001428d       ?dtor$19@?0??inetGet@CVARIANTTool@@IEAA?AUtagVARIANT@@U2@@Z@4HA 000000014001528d f   MFCEditView.obj
 0001:00014299       ?dtor$20@?0??inetGet@CVARIANTTool@@IEAA?AUtagVARIANT@@U2@@Z@4HA 0000000140015299 f   MFCEditView.obj
 0001:000142a5       ?dtor$21@?0??inetGet@CVARIANTTool@@IEAA?AUtagVARIANT@@U2@@Z@4HA 00000001400152a5 f   MFCEditView.obj
 0001:000142b1       ?dtor$22@?0??inetGet@CVARIANTTool@@IEAA?AUtagVARIANT@@U2@@Z@4HA 00000001400152b1 f   MFCEditView.obj
 0001:000142bd       ?dtor$23@?0??inetGet@CVARIANTTool@@IEAA?AUtagVARIANT@@U2@@Z@4HA 00000001400152bd f   MFCEditView.obj
 0001:000142c9       ?dtor$24@?0??inetGet@CVARIANTTool@@IEAA?AUtagVARIANT@@U2@@Z@4HA 00000001400152c9 f   MFCEditView.obj
 0001:000142e0       ?dtor$0@?0??Value@CVARIANTTool@@IEAA?AUtagVARIANT@@U2@0@Z@4HA 00000001400152e0 f   MFCEditView.obj
 0001:000142ec       ?dtor$1@?0??Value@CVARIANTTool@@IEAA?AUtagVARIANT@@U2@0@Z@4HA 00000001400152ec f   MFCEditView.obj
 0001:000142f8       ?dtor$10@?0??Value@CVARIANTTool@@IEAA?AUtagVARIANT@@U2@0@Z@4HA 00000001400152f8 f   MFCEditView.obj
 0001:00014329       ?dtor$11@?0??Value@CVARIANTTool@@IEAA?AUtagVARIANT@@U2@0@Z@4HA 0000000140015329 f   MFCEditView.obj
 0001:0001433b       ?dtor$2@?0??Value@CVARIANTTool@@IEAA?AUtagVARIANT@@U2@0@Z@4HA 000000014001533b f   MFCEditView.obj
 0001:00014347       ?dtor$20@?0??Value@CVARIANTTool@@IEAA?AUtagVARIANT@@U2@0@Z@4HA 0000000140015347 f   MFCEditView.obj
 0001:0001436d       ?dtor$4@?0??Value@CVARIANTTool@@IEAA?AUtagVARIANT@@U2@0@Z@4HA 000000014001536d f   MFCEditView.obj
 0001:00014379       ?dtor$52@?0??Value@CVARIANTTool@@IEAA?AUtagVARIANT@@U2@0@Z@4HA 0000000140015379 f   MFCEditView.obj
 0001:000143af       ?dtor$53@?0??Value@CVARIANTTool@@IEAA?AUtagVARIANT@@U2@0@Z@4HA 00000001400153af f   MFCEditView.obj
 0001:000143c1       ?dtor$5@?0??Value@CVARIANTTool@@IEAA?AUtagVARIANT@@U2@0@Z@4HA 00000001400153c1 f   MFCEditView.obj
 0001:000143cd       ?dtor$41@?0??Value@CVARIANTTool@@IEAA?AUtagVARIANT@@U2@0@Z@4HA 00000001400153cd f   MFCEditView.obj
 0001:000143f3       ?dtor$7@?0??Value@CVARIANTTool@@IEAA?AUtagVARIANT@@U2@0@Z@4HA 00000001400153f3 f   MFCEditView.obj
 0001:000143ff       ?dtor$8@?0??Value@CVARIANTTool@@IEAA?AUtagVARIANT@@U2@0@Z@4HA 00000001400153ff f   MFCEditView.obj
 0001:0001440b       ?dtor$9@?0??Value@CVARIANTTool@@IEAA?AUtagVARIANT@@U2@0@Z@4HA 000000014001540b f   MFCEditView.obj
 0001:00014420       ?dtor$0@?0??OpenTextFile@CVARIANTTool@@IEAA?AUtagVARIANT@@U2@@Z@4HA 0000000140015420 f   MFCEditView.obj
 0001:0001442c       ?dtor$1@?0??OpenTextFile@CVARIANTTool@@IEAA?AUtagVARIANT@@U2@@Z@4HA 000000014001542c f   MFCEditView.obj
 0001:0001443a       ?dtor$5@?0??OpenTextFile@CVARIANTTool@@IEAA?AUtagVARIANT@@U2@@Z@4HA 000000014001543a f   MFCEditView.obj
 0001:0001446b       ?dtor$6@?0??OpenTextFile@CVARIANTTool@@IEAA?AUtagVARIANT@@U2@@Z@4HA 000000014001546b f   MFCEditView.obj
 0001:0001447d       ?dtor$2@?0??OpenTextFile@CVARIANTTool@@IEAA?AUtagVARIANT@@U2@@Z@4HA 000000014001547d f   MFCEditView.obj
 0001:00014489       ?dtor$10@?0??OpenTextFile@CVARIANTTool@@IEAA?AUtagVARIANT@@U2@@Z@4HA 0000000140015489 f   MFCEditView.obj
 0001:000144af       ?dtor$3@?0??OpenTextFile@CVARIANTTool@@IEAA?AUtagVARIANT@@U2@@Z@4HA 00000001400154af f   MFCEditView.obj
 0001:000144c0       ?dtor$0@?0??Invoke@CVARIANTTool@@UEAA?AUtagVARIANT@@V?$basic_string@_WU?$char_traits@_W@std@@V?$allocator@_W@2@@std@@PEAU2@H@Z@4HA 00000001400154c0 f   MFCEditView.obj
 0001:000144c0       ?dtor$0@?0??Invoke@IVARIANTApplication@@UEAA?AUtagVARIANT@@V?$basic_string@_WU?$char_traits@_W@std@@V?$allocator@_W@2@@std@@PEAU2@H@Z@4HA 00000001400154c0 f   MFCEditView.obj
 0001:000144d0       ?dtor$0@?0??Test@IVARIANTApplication@@QEAA?AUtagVARIANT@@U2@@Z@4HA 00000001400154d0 f   MFCEditView.obj
 0001:000144dc       ?dtor$10@?0??Test@IVARIANTApplication@@QEAA?AUtagVARIANT@@U2@@Z@4HA 00000001400154dc f   MFCEditView.obj
 0001:00014502       ?dtor$11@?0??Test@IVARIANTApplication@@QEAA?AUtagVARIANT@@U2@@Z@4HA 0000000140015502 f   MFCEditView.obj
 0001:00014510       ?dtor$0@?0??OnBnClickedBtnRun@CMFCEditView@@QEAAXXZ@4HA 0000000140015510 f   MFCEditView.obj
 0001:0001451c       ?dtor$7@?0??OnBnClickedBtnRun@CMFCEditView@@QEAAXXZ@4HA 000000014001551c f   MFCEditView.obj
 0001:0001454d       ?dtor$8@?0??OnBnClickedBtnRun@CMFCEditView@@QEAAXXZ@4HA 000000014001554d f   MFCEditView.obj
 0001:0001455f       ?dtor$1@?0??OnBnClickedBtnRun@CMFCEditView@@QEAAXXZ@4HA 000000014001555f f   MFCEditView.obj
 0001:0001456b       ?dtor$3@?0??OnBnClickedBtnRun@CMFCEditView@@QEAAXXZ@4HA 000000014001556b f   MFCEditView.obj
 0001:00014579       ?dtor$4@?0??OnBnClickedBtnRun@CMFCEditView@@QEAAXXZ@4HA 0000000140015579 f   MFCEditView.obj
 0001:00014585       ?dtor$13@?0??OnBnClickedBtnRun@CMFCEditView@@QEAAXXZ@4HA 0000000140015585 f   MFCEditView.obj
 0001:000145ab       ?dtor$5@?0??OnBnClickedBtnRun@CMFCEditView@@QEAAXXZ@4HA 00000001400155ab f   MFCEditView.obj
 0001:000145b7       ?catch$26@?0??OnBnClickedBtnRun@CMFCEditView@@QEAAXXZ@4HA 00000001400155b7 f   MFCEditView.obj
 0001:000145c5       __catch$?OnBnClickedBtnRun@CMFCEditView@@QEAAXXZ$0 00000001400155c5 f   MFCEditView.obj
 0001:00014617       ?dtor$6@?0??OnBnClickedBtnRun@CMFCEditView@@QEAAXXZ@4HA 0000000140015617 f   MFCEditView.obj
 0001:00014630       ?dtor$0@?0??OnBnClickedBtnSave@CMFCEditView@@QEAAXXZ@4HA 0000000140015630 f   MFCEditView.obj
 0001:0001463e       ?dtor$1@?0??OnBnClickedBtnSave@CMFCEditView@@QEAAXXZ@4HA 000000014001563e f   MFCEditView.obj
 0001:0001464c       ?dtor$2@?0??OnBnClickedBtnSave@CMFCEditView@@QEAAXXZ@4HA 000000014001564c f   MFCEditView.obj
 0001:00014660       ?dtor$0@?0??OnSelchangeCombo1@CMFCEditView@@QEAAXXZ@4HA 0000000140015660 f   MFCEditView.obj
 0001:0001466e       ?dtor$1@?0??OnSelchangeCombo1@CMFCEditView@@QEAAXXZ@4HA 000000014001566e f   MFCEditView.obj
 0001:0001467c       ?dtor$2@?0??OnSelchangeCombo1@CMFCEditView@@QEAAXXZ@4HA 000000014001567c f   MFCEditView.obj
 0001:0001468a       ?dtor$4@?0??OnSelchangeCombo1@CMFCEditView@@QEAAXXZ@4HA 000000014001568a f   MFCEditView.obj
 0001:000146a0       ?dtor$0@?0??OnSelchangeCmbFont@CMFCEditView@@QEAAXXZ@4HA 00000001400156a0 f   MFCEditView.obj
 0001:000146ae       ?dtor$1@?0??OnSelchangeCmbFont@CMFCEditView@@QEAAXXZ@4HA 00000001400156ae f   MFCEditView.obj
 0001:000146c0       ?dtor$0@?0??OnSetfocusEdInput@CMFCEditView@@QEAAXXZ@4HA 00000001400156c0 f   MFCEditView.obj
 0001:000146d0       ?dtor$0@?0??WriteUtf8File@@YA_NAEBV?$CStringT@_WV?$StrTraitMFC_DLL@_WV?$ChTraitsCRT@_W@ATL@@@@@ATL@@0@Z@4HA 00000001400156d0 f   MFCEditView.obj
 0001:000146e0       ?dtor$0@?0??Split@@YA?AV?$vector@V?$basic_string@_WU?$char_traits@_W@std@@V?$allocator@_W@2@@std@@V?$allocator@V?$basic_string@_WU?$char_traits@_W@std@@V?$allocator@_W@2@@std@@@2@@std@@V?$basic_string@_WU?$char_traits@_W@std@@V?$allocator@_W@2@@2@0@Z@4HA 00000001400156e0 f   MFCEditView.obj
 0001:000146ec       ?dtor$1@?0??Split@@YA?AV?$vector@V?$basic_string@_WU?$char_traits@_W@std@@V?$allocator@_W@2@@std@@V?$allocator@V?$basic_string@_WU?$char_traits@_W@std@@V?$allocator@_W@2@@std@@@2@@std@@V?$basic_string@_WU?$char_traits@_W@std@@V?$allocator@_W@2@@2@0@Z@4HA 00000001400156ec f   MFCEditView.obj
 0001:000146f8       ?dtor$2@?0??Split@@YA?AV?$vector@V?$basic_string@_WU?$char_traits@_W@std@@V?$allocator@_W@2@@std@@V?$allocator@V?$basic_string@_WU?$char_traits@_W@std@@V?$allocator@_W@2@@std@@@2@@std@@V?$basic_string@_WU?$char_traits@_W@std@@V?$allocator@_W@2@@2@0@Z@4HA 00000001400156f8 f   MFCEditView.obj
 0001:0001471e       ?dtor$3@?0??Split@@YA?AV?$vector@V?$basic_string@_WU?$char_traits@_W@std@@V?$allocator@_W@2@@std@@V?$allocator@V?$basic_string@_WU?$char_traits@_W@std@@V?$allocator@_W@2@@std@@@2@@std@@V?$basic_string@_WU?$char_traits@_W@std@@V?$allocator@_W@2@@2@0@Z@4HA 000000014001571e f   MFCEditView.obj
 0001:0001472a       ?dtor$4@?0??Split@@YA?AV?$vector@V?$basic_string@_WU?$char_traits@_W@std@@V?$allocator@_W@2@@std@@V?$allocator@V?$basic_string@_WU?$char_traits@_W@std@@V?$allocator@_W@2@@std@@@2@@std@@V?$basic_string@_WU?$char_traits@_W@std@@V?$allocator@_W@2@@2@0@Z@4HA 000000014001572a f   MFCEditView.obj
 0001:00014736       ?dtor$5@?0??Split@@YA?AV?$vector@V?$basic_string@_WU?$char_traits@_W@std@@V?$allocator@_W@2@@std@@V?$allocator@V?$basic_string@_WU?$char_traits@_W@std@@V?$allocator@_W@2@@std@@@2@@std@@V?$basic_string@_WU?$char_traits@_W@std@@V?$allocator@_W@2@@2@0@Z@4HA 0000000140015736 f   MFCEditView.obj
 0001:00014742       ?dtor$8@?0??Split@@YA?AV?$vector@V?$basic_string@_WU?$char_traits@_W@std@@V?$allocator@_W@2@@std@@V?$allocator@V?$basic_string@_WU?$char_traits@_W@std@@V?$allocator@_W@2@@std@@@2@@std@@V?$basic_string@_WU?$char_traits@_W@std@@V?$allocator@_W@2@@2@0@Z@4HA 0000000140015742 f   MFCEditView.obj
 0001:00014768       ?dtor$7@?0??Split@@YA?AV?$vector@V?$basic_string@_WU?$char_traits@_W@std@@V?$allocator@_W@2@@std@@V?$allocator@V?$basic_string@_WU?$char_traits@_W@std@@V?$allocator@_W@2@@std@@@2@@std@@V?$basic_string@_WU?$char_traits@_W@std@@V?$allocator@_W@2@@2@0@Z@4HA 0000000140015768 f   MFCEditView.obj
 0001:00014780       ?dtor$0@?0??inetStockData_YahooFinanceUri@@YA?AV?$basic_string@_WU?$char_traits@_W@std@@V?$allocator@_W@2@@std@@V12@H@Z@4HA 0000000140015780 f   MFCEditView.obj
 0001:0001478c       ?dtor$3@?0??inetStockData_YahooFinanceUri@@YA?AV?$basic_string@_WU?$char_traits@_W@std@@V?$allocator@_W@2@@std@@V12@H@Z@4HA 000000014001578c f   MFCEditView.obj
 0001:000147ba       ?dtor$4@?0??inetStockData_YahooFinanceUri@@YA?AV?$basic_string@_WU?$char_traits@_W@std@@V?$allocator@_W@2@@std@@V12@H@Z@4HA 00000001400157ba f   MFCEditView.obj
 0001:000147cc       ?dtor$1@?0??inetStockData_YahooFinanceUri@@YA?AV?$basic_string@_WU?$char_traits@_W@std@@V?$allocator@_W@2@@std@@V12@H@Z@4HA 00000001400157cc f   MFCEditView.obj
 0001:000147d8       ?dtor$8@?0??inetStockData_YahooFinanceUri@@YA?AV?$basic_string@_WU?$char_traits@_W@std@@V?$allocator@_W@2@@std@@V12@H@Z@4HA 00000001400157d8 f   MFCEditView.obj
 0001:00014800       ?dtor$2@?0???0?$regex_token_iterator@V?$_String_const_iterator@V?$_String_val@U?$_Simple_types@_W@std@@@std@@@std@@_WV?$regex_traits@_W@2@@std@@QEAA@V?$_String_const_iterator@V?$_String_val@U?$_Simple_types@_W@std@@@std@@@1@0AEBV?$basic_regex@_WV?$regex_traits@_W@std@@@1@HW4match_flag_type@regex_constants@1@@Z@4HA 0000000140015800 f   MFCEditView.obj
 0001:00014810       ?dtor$0@?0???0?$regex_token_iterator@V?$_String_const_iterator@V?$_String_val@U?$_Simple_types@_W@std@@@std@@@std@@_WV?$regex_traits@_W@2@@std@@QEAA@V?$_String_const_iterator@V?$_String_val@U?$_Simple_types@_W@std@@@std@@@1@0AEBV?$basic_regex@_WV?$regex_traits@_W@std@@@1@HW4match_flag_type@regex_constants@1@@Z@4HA 0000000140015810 f   MFCEditView.obj
 0001:00014820       ?dtor$0@?0??do_transform@?$collate@_W@std@@MEBA?AV?$basic_string@_WU?$char_traits@_W@std@@V?$allocator@_W@2@@2@PEB_W0@Z@4HA 0000000140015820 f   MFCEditView.obj
 0001:00014850       ?dtor$0@?0???E?$regex_token_iterator@V?$_String_const_iterator@V?$_String_val@U?$_Simple_types@_W@std@@@std@@@std@@_WV?$regex_traits@_W@2@@std@@QEAAAEAV01@XZ@4HA 0000000140015850 f   MFCEditView.obj
 0001:00014860       ?dtor$0@?0???0?$regex_token_iterator@V?$_String_const_iterator@V?$_String_val@U?$_Simple_types@_W@std@@@std@@@std@@_WV?$regex_traits@_W@2@@std@@QEAA@AEBV01@@Z@4HA 0000000140015860 f   MFCEditView.obj
 0001:00014870       ?dtor$11@?0???$?6_WU?$char_traits@_W@std@@@std@@YAAEAV?$basic_ostream@_WU?$char_traits@_W@std@@@0@AEAV10@PEB_W@Z@4HA 0000000140015870 f   MFCEditView.obj
 0001:00014870       ?dtor$11@?0???$_Insert_string@_WU?$char_traits@_W@std@@_K@std@@YAAEAV?$basic_ostream@_WU?$char_traits@_W@std@@@0@AEAV10@QEB_W_K@Z@4HA 0000000140015870 f   MFCEditView.obj
 0001:00014870       ?dtor$8@?0???$?6_WU?$char_traits@_W@std@@@std@@YAAEAV?$basic_ostream@_WU?$char_traits@_W@std@@@0@AEAV10@_W@Z@4HA 0000000140015870 f   MFCEditView.obj
 0001:0001487c       ?dtor$0@?0???$?6_WU?$char_traits@_W@std@@@std@@YAAEAV?$basic_ostream@_WU?$char_traits@_W@std@@@0@AEAV10@PEB_W@Z@4HA 000000014001587c f   MFCEditView.obj
 0001:0001487c       ?dtor$0@?0???$?6_WU?$char_traits@_W@std@@@std@@YAAEAV?$basic_ostream@_WU?$char_traits@_W@std@@@0@AEAV10@_W@Z@4HA 000000014001587c f   MFCEditView.obj
 0001:0001487c       ?dtor$0@?0???$_Insert_string@_WU?$char_traits@_W@std@@_K@std@@YAAEAV?$basic_ostream@_WU?$char_traits@_W@std@@@0@AEAV10@QEB_W_K@Z@4HA 000000014001587c f   MFCEditView.obj
 0001:00014888       ?catch$16@?0???$?6_WU?$char_traits@_W@std@@@std@@YAAEAV?$basic_ostream@_WU?$char_traits@_W@std@@@0@AEAV10@_W@Z@4HA 0000000140015888 f   MFCEditView.obj
 0001:00014888       ?catch$17@?0???$?6_WU?$char_traits@_W@std@@@std@@YAAEAV?$basic_ostream@_WU?$char_traits@_W@std@@@0@AEAV10@PEB_W@Z@4HA 0000000140015888 f   MFCEditView.obj
 0001:00014888       ?catch$17@?0???$_Insert_string@_WU?$char_traits@_W@std@@_K@std@@YAAEAV?$basic_ostream@_WU?$char_traits@_W@std@@@0@AEAV10@QEB_W_K@Z@4HA 0000000140015888 f   MFCEditView.obj
 0001:00014895       __catch$??$?6_WU?$char_traits@_W@std@@@std@@YAAEAV?$basic_ostream@_WU?$char_traits@_W@std@@@0@AEAV10@PEB_W@Z$0 0000000140015895 f   MFCEditView.obj
 0001:00014895       __catch$??$?6_WU?$char_traits@_W@std@@@std@@YAAEAV?$basic_ostream@_WU?$char_traits@_W@std@@@0@AEAV10@_W@Z$0 0000000140015895 f   MFCEditView.obj
 0001:00014895       __catch$??$_Insert_string@_WU?$char_traits@_W@std@@_K@std@@YAAEAV?$basic_ostream@_WU?$char_traits@_W@std@@@0@AEAV10@QEB_W_K@Z$0 0000000140015895 f   MFCEditView.obj
 0001:000148d0       ?dtor$11@?0???$?6U?$char_traits@D@std@@@std@@YAAEAV?$basic_ostream@DU?$char_traits@D@std@@@0@AEAV10@PEBD@Z@4HA 00000001400158d0 f   MFCEditView.obj
 0001:000148dc       ?dtor$0@?0???$?6U?$char_traits@D@std@@@std@@YAAEAV?$basic_ostream@DU?$char_traits@D@std@@@0@AEAV10@PEBD@Z@4HA 00000001400158dc f   MFCEditView.obj
 0001:000148e8       ?catch$17@?0???$?6U?$char_traits@D@std@@@std@@YAAEAV?$basic_ostream@DU?$char_traits@D@std@@@0@AEAV10@PEBD@Z@4HA 00000001400158e8 f   MFCEditView.obj
 0001:000148f5       __catch$??$?6U?$char_traits@D@std@@@std@@YAAEAV?$basic_ostream@DU?$char_traits@D@std@@@0@AEAV10@PEBD@Z$0 00000001400158f5 f   MFCEditView.obj
 0001:00014930       ?dtor$2@?0???$?0U?$char_traits@_W@std@@V?$allocator@_W@1@@?$basic_regex@_WV?$regex_traits@_W@std@@@std@@QEAA@AEBV?$basic_string@_WU?$char_traits@_W@std@@V?$allocator@_W@2@@1@W4syntax_option_type@regex_constants@1@@Z@4HA 0000000140015930 f   MFCEditView.obj
 0001:00014940       ?dtor$4@?0???$?0U?$char_traits@_W@std@@V?$allocator@_W@1@@?$basic_regex@_WV?$regex_traits@_W@std@@@std@@QEAA@AEBV?$basic_string@_WU?$char_traits@_W@std@@V?$allocator@_W@2@@1@W4syntax_option_type@regex_constants@1@@Z@4HA 0000000140015940 f   MFCEditView.obj
 0001:0001494e       ?dtor$5@?0???$?0U?$char_traits@_W@std@@V?$allocator@_W@1@@?$basic_regex@_WV?$regex_traits@_W@std@@@std@@QEAA@AEBV?$basic_string@_WU?$char_traits@_W@std@@V?$allocator@_W@2@@1@W4syntax_option_type@regex_constants@1@@Z@4HA 000000014001594e f   MFCEditView.obj
 0001:0001495a       ?dtor$0@?0???$?0U?$char_traits@_W@std@@V?$allocator@_W@1@@?$basic_regex@_WV?$regex_traits@_W@std@@@std@@QEAA@AEBV?$basic_string@_WU?$char_traits@_W@std@@V?$allocator@_W@2@@1@W4syntax_option_type@regex_constants@1@@Z@4HA 000000014001595a f   MFCEditView.obj
 0001:0001496a       ?dtor$8@?0???$?0U?$char_traits@_W@std@@V?$allocator@_W@1@@?$basic_regex@_WV?$regex_traits@_W@std@@@std@@QEAA@AEBV?$basic_string@_WU?$char_traits@_W@std@@V?$allocator@_W@2@@1@W4syntax_option_type@regex_constants@1@@Z@4HA 000000014001596a f   MFCEditView.obj
 0001:00014976       ?dtor$7@?0???$?0U?$char_traits@_W@std@@V?$allocator@_W@1@@?$basic_regex@_WV?$regex_traits@_W@std@@@std@@QEAA@AEBV?$basic_string@_WU?$char_traits@_W@std@@V?$allocator@_W@2@@1@W4syntax_option_type@regex_constants@1@@Z@4HA 0000000140015976 f   MFCEditView.obj
 0001:00014986       ?dtor$6@?0???$?0U?$char_traits@_W@std@@V?$allocator@_W@1@@?$basic_regex@_WV?$regex_traits@_W@std@@@std@@QEAA@AEBV?$basic_string@_WU?$char_traits@_W@std@@V?$allocator@_W@2@@1@W4syntax_option_type@regex_constants@1@@Z@4HA 0000000140015986 f   MFCEditView.obj
 0001:000149a0       ?dtor$0@?0???$_Regex_search2@V?$_String_const_iterator@V?$_String_val@U?$_Simple_types@_W@std@@@std@@@std@@V?$allocator@V?$sub_match@V?$_String_const_iterator@V?$_String_val@U?$_Simple_types@_W@std@@@std@@@std@@@std@@@2@_WV?$regex_traits@_W@2@V12@@std@@YA_NV?$_String_const_iterator@V?$_String_val@U?$_Simple_types@_W@std@@@std@@@0@0PEAV?$match_results@V?$_String_const_iterator@V?$_String_val@U?$_Simple_types@_W@std@@@std@@@std@@V?$allocator@V?$sub_match@V?$_String_const_iterator@V?$_String_val@U?$_Simple_types@_W@std@@@std@@@std@@@std@@@2@@0@AEBV?$basic_regex@_WV?$regex_traits@_W@std@@@0@W4match_flag_type@regex_constants@0@0@Z@4HA 00000001400159a0 f   MFCEditView.obj
 0001:000149b0       ?dtor$0@?0???0?$_Matcher@V?$_String_const_iterator@V?$_String_val@U?$_Simple_types@_W@std@@@std@@@std@@_WV?$regex_traits@_W@2@V12@@std@@QEAA@V?$_String_const_iterator@V?$_String_val@U?$_Simple_types@_W@std@@@std@@@1@0AEBV?$regex_traits@_W@1@PEAV_Root_node@1@IW4syntax_option_type@regex_constants@1@W4match_flag_type@61@@Z@4HA 00000001400159b0 f   MFCEditView.obj
 0001:000149bc       ?dtor$1@?0???0?$_Matcher@V?$_String_const_iterator@V?$_String_val@U?$_Simple_types@_W@std@@@std@@@std@@_WV?$regex_traits@_W@2@V12@@std@@QEAA@V?$_String_const_iterator@V?$_String_val@U?$_Simple_types@_W@std@@@std@@@1@0AEBV?$regex_traits@_W@1@PEAV_Root_node@1@IW4syntax_option_type@regex_constants@1@W4match_flag_type@61@@Z@4HA 00000001400159bc f   MFCEditView.obj
 0001:000149cc       ?dtor$2@?0???0?$_Matcher@V?$_String_const_iterator@V?$_String_val@U?$_Simple_types@_W@std@@@std@@@std@@_WV?$regex_traits@_W@2@V12@@std@@QEAA@V?$_String_const_iterator@V?$_String_val@U?$_Simple_types@_W@std@@@std@@@1@0AEBV?$regex_traits@_W@1@PEAV_Root_node@1@IW4syntax_option_type@regex_constants@1@W4match_flag_type@61@@Z@4HA 00000001400159cc f   MFCEditView.obj
 0001:000149e0       ?dtor$0@?0???$_Emplace_reallocate@AEBV_variant_t@@@?$vector@V_variant_t@@V?$allocator@V_variant_t@@@std@@@std@@AEAAPEAV_variant_t@@QEAV2@AEBV2@@Z@4HA 00000001400159e0 f   MFCEditView.obj
 0001:000149ec       ?dtor$1@?0???$_Emplace_reallocate@AEBV_variant_t@@@?$vector@V_variant_t@@V?$allocator@V_variant_t@@@std@@@std@@AEAAPEAV_variant_t@@QEAV2@AEBV2@@Z@4HA 00000001400159ec f   MFCEditView.obj
 0001:000149f8       ?dtor$2@?0???$_Emplace_reallocate@AEBV_variant_t@@@?$vector@V_variant_t@@V?$allocator@V_variant_t@@@std@@@std@@AEAAPEAV_variant_t@@QEAV2@AEBV2@@Z@4HA 00000001400159f8 f   MFCEditView.obj
 0001:00014a04       ?catch$3@?0???$_Emplace_reallocate@AEBV_variant_t@@@?$vector@V_variant_t@@V?$allocator@V_variant_t@@@std@@@std@@AEAAPEAV_variant_t@@QEAV2@AEBV2@@Z@4HA 0000000140015a04 f   MFCEditView.obj
 0001:00014a11       __catch$??$_Emplace_reallocate@AEBV_variant_t@@@?$vector@V_variant_t@@V?$allocator@V_variant_t@@@std@@@std@@AEAAPEAV_variant_t@@QEAV2@AEBV2@@Z$0 0000000140015a11 f   MFCEditView.obj
 0001:00014a40       ?dtor$0@?0???$use_facet@V?$collate@_W@std@@@std@@YAAEBV?$collate@_W@0@AEBVlocale@0@@Z@4HA 0000000140015a40 f   MFCEditView.obj
 0001:00014a4e       ?dtor$2@?0???$use_facet@V?$collate@_W@std@@@std@@YAAEBV?$collate@_W@0@AEBVlocale@0@@Z@4HA 0000000140015a4e f   MFCEditView.obj
 0001:00014a6e       ?dtor$3@?0???$use_facet@V?$collate@_W@std@@@std@@YAAEBV?$collate@_W@0@AEBVlocale@0@@Z@4HA 0000000140015a6e f   MFCEditView.obj
 0001:00014a94       ?dtor$4@?0???$use_facet@V?$collate@_W@std@@@std@@YAAEBV?$collate@_W@0@AEBVlocale@0@@Z@4HA 0000000140015a94 f   MFCEditView.obj
 0001:00014abb       ?dtor$5@?0???$use_facet@V?$collate@_W@std@@@std@@YAAEBV?$collate@_W@0@AEBVlocale@0@@Z@4HA 0000000140015abb f   MFCEditView.obj
 0001:00014ac9       ?dtor$1@?0???$use_facet@V?$collate@_W@std@@@std@@YAAEBV?$collate@_W@0@AEBVlocale@0@@Z@4HA 0000000140015ac9 f   MFCEditView.obj
 0001:00014ae0       ?dtor$0@?0??_Match_pat@?$_Matcher@V?$_String_const_iterator@V?$_String_val@U?$_Simple_types@_W@std@@@std@@@std@@_WV?$regex_traits@_W@2@V12@@std@@AEAA_NPEAV_Node_base@2@@Z@4HA 0000000140015ae0 f   MFCEditView.obj
 0001:00014af0       ?dtor$0@?0??_Compile@?$_Parser@PEB_W_WV?$regex_traits@_W@std@@@std@@QEAAPEAV_Root_node@2@XZ@4HA 0000000140015af0 f   MFCEditView.obj
 0001:00014b00       ?dtor$0@?0???$_Lookup_equiv@_WV?$regex_traits@_W@std@@@std@@YA_NGPEBU?$_Sequence@_W@0@AEBV?$regex_traits@_W@0@@Z@4HA 0000000140015b00 f   MFCEditView.obj
 0001:00014b0c       ?dtor$1@?0???$_Lookup_equiv@_WV?$regex_traits@_W@std@@@std@@YA_NGPEBU?$_Sequence@_W@0@AEBV?$regex_traits@_W@0@@Z@4HA 0000000140015b0c f   MFCEditView.obj
 0001:00014b20       ?dtor$0@?0??_Do_if@?$_Matcher@V?$_String_const_iterator@V?$_String_val@U?$_Simple_types@_W@std@@@std@@@std@@_WV?$regex_traits@_W@2@V12@@std@@AEAA_NPEAV_Node_if@2@@Z@4HA 0000000140015b20 f   MFCEditView.obj
 0001:00014b2c       ?dtor$1@?0??_Do_if@?$_Matcher@V?$_String_const_iterator@V?$_String_val@U?$_Simple_types@_W@std@@@std@@@std@@_WV?$regex_traits@_W@2@V12@@std@@AEAA_NPEAV_Node_if@2@@Z@4HA 0000000140015b2c f   MFCEditView.obj
 0001:00014b40       ?dtor$0@?0??_Do_rep@?$_Matcher@V?$_String_const_iterator@V?$_String_val@U?$_Simple_types@_W@std@@@std@@@std@@_WV?$regex_traits@_W@2@V12@@std@@AEAA_NPEAV_Node_rep@2@_NH@Z@4HA 0000000140015b40 f   MFCEditView.obj
 0001:00014b50       ?dtor$0@?0???$transform_primary@PEA_W@?$_Regex_traits@_W@std@@QEBA?AV?$basic_string@_WU?$char_traits@_W@std@@V?$allocator@_W@2@@1@PEA_W0@Z@4HA 0000000140015b50 f   MFCEditView.obj
 0001:00014b50       ?dtor$0@?0???$transform_primary@PEB_W@?$_Regex_traits@_W@std@@QEBA?AV?$basic_string@_WU?$char_traits@_W@std@@V?$allocator@_W@2@@1@PEB_W0@Z@4HA 0000000140015b50 f   MFCEditView.obj
 0001:00014b50       ?dtor$0@?0???$transform_primary@V?$_String_iterator@V?$_String_val@U?$_Simple_types@_W@std@@@std@@@std@@@?$_Regex_traits@_W@std@@QEBA?AV?$basic_string@_WU?$char_traits@_W@std@@V?$allocator@_W@2@@1@V?$_String_iterator@V?$_String_val@U?$_Simple_types@_W@std@@@std@@@1@0@Z@4HA 0000000140015b50 f   MFCEditView.obj
 0001:00014b76       ?dtor$1@?0???$transform_primary@PEA_W@?$_Regex_traits@_W@std@@QEBA?AV?$basic_string@_WU?$char_traits@_W@std@@V?$allocator@_W@2@@1@PEA_W0@Z@4HA 0000000140015b76 f   MFCEditView.obj
 0001:00014b76       ?dtor$1@?0???$transform_primary@PEB_W@?$_Regex_traits@_W@std@@QEBA?AV?$basic_string@_WU?$char_traits@_W@std@@V?$allocator@_W@2@@1@PEB_W0@Z@4HA 0000000140015b76 f   MFCEditView.obj
 0001:00014b76       ?dtor$1@?0???$transform_primary@V?$_String_iterator@V?$_String_val@U?$_Simple_types@_W@std@@@std@@@std@@@?$_Regex_traits@_W@std@@QEBA?AV?$basic_string@_WU?$char_traits@_W@std@@V?$allocator@_W@2@@1@V?$_String_iterator@V?$_String_val@U?$_Simple_types@_W@std@@@std@@@1@0@Z@4HA 0000000140015b76 f   MFCEditView.obj
 0001:00014b90       ?dtor$0@?0???0?$_Tgt_state_t@V?$_String_const_iterator@V?$_String_val@U?$_Simple_types@_W@std@@@std@@@std@@@std@@QEAA@AEBV01@@Z@4HA 0000000140015b90 f   MFCEditView.obj
 0001:00014ba0       ?dtor$0@?0??_Do_rep0@?$_Matcher@V?$_String_const_iterator@V?$_String_val@U?$_Simple_types@_W@std@@@std@@@std@@_WV?$regex_traits@_W@2@V12@@std@@AEAA_NPEAV_Node_rep@2@_N@Z@4HA 0000000140015ba0 f   MFCEditView.obj
 0001:00014bac       ?dtor$1@?0??_Do_rep0@?$_Matcher@V?$_String_const_iterator@V?$_String_val@U?$_Simple_types@_W@std@@@std@@@std@@_WV?$regex_traits@_W@2@V12@@std@@AEAA_NPEAV_Node_rep@2@_N@Z@4HA 0000000140015bac f   MFCEditView.obj
 0001:00014bc0       ?dtor$1@?0??_Do_assert_group@?$_Parser@PEB_W_WV?$regex_traits@_W@std@@@std@@AEAAX_N@Z@4HA 0000000140015bc0 f   MFCEditView.obj
 0001:00014bd0       ?dtor$0@?0??_Add_equiv@?$_Builder@PEB_W_WV?$regex_traits@_W@std@@@std@@QEAAXPEB_W0_J@Z@4HA 0000000140015bd0 f   MFCEditView.obj
 0001:00014be0       ?dtor$0@?0???HATL@@YA?AV?$CStringT@_WV?$StrTraitMFC_DLL@_WV?$ChTraitsCRT@_W@ATL@@@@@0@AEBV10@PEB_W@Z@4HA 0000000140015be0 f   MFCEditView.obj
 0001:00014be0       ?dtor$0@?0???HATL@@YA?AV?$CStringT@_WV?$StrTraitMFC_DLL@_WV?$ChTraitsCRT@_W@ATL@@@@@0@PEB_WAEBV10@@Z@4HA 0000000140015be0 f   MFCEditView.obj
 0001:00014c10       ?catch$1@?0???1CWaitCursor@@QEAA@XZ@4HA 0000000140015c10 f   MFCEditView.obj
 0001:00014c1e       __catch$??1CWaitCursor@@QEAA@XZ$0 0000000140015c1e f   MFCEditView.obj
 0001:00014cc9       ?dtor$0@?0???1CWaitCursor@@QEAA@XZ@4HA 0000000140015cc9 f   MFCEditView.obj
 0001:00014cd7       ?filt$0@?0??__scrt_common_main_seh@@YAHXZ@4HA 0000000140015cd7 f   msvcrt:exe_wwinmain.obj
 0001:00014cf5       __scrt_is_nonwritable_in_current_image$filt$0 0000000140015cf5 f   msvcrt:utility.obj
 0001:00014d10       ??__FtheApp@@YAXXZ         0000000140015d10 f   MFCEdit.obj
 0001:00014d20       ??__F_AtlBaseModule@ATL@@YAXXZ 0000000140015d20 f   atls:atlbase.obj
 0001:00014d30       ??__FvtMissing@@YAXXZ      0000000140015d30 f   comsuppw:comutil.obj
 0001:00014d40       ??__F_Fac_tidy_reg@std@@YAXXZ 0000000140015d40 f   msvcprt:locale0_implib.obj
 0002:00001138       ?pre_cpp_initializer@@3P6AXXZEA 0000000140017138     msvcrt:exe_wwinmain.obj
 0002:00001140       ?_AtlBaseModule$initializer$@ATL@@3P6AXXZEA 0000000140017140     atls:atlbase.obj
 0002:00001148       ?_Fac_tidy_reg$initializer$@std@@3P6AXXZEA 0000000140017148     msvcprt:locale0_implib.obj
 0002:00001150       ?_afxInitAppState$initializer$@@3P6AXXZEA 0000000140017150     mfcs140u:appmodul.obj
 0002:00001158       ?vtMissing$initializer$@@3P6AXXZEA 0000000140017158     comsuppw:comutil.obj
 0002:00001160       ?theApp$initializer$@@3P6AXXZEA 0000000140017160     MFCEdit.obj
 0002:00001178       ?pre_c_initializer@@3P6AHXZEA 0000000140017178     msvcrt:exe_wwinmain.obj
 0002:00001180       ?post_pgo_initializer@@3P6AHXZEA 0000000140017180     msvcrt:exe_wwinmain.obj
 0002:000011e0       GS_ExceptionPointers       00000001400171e0     msvcrt:gs_report.obj
 0002:000012a0       ?_Tail_masks@?1??_Avx2_tail_mask_32@?A0x8417fefe@@YA?AT__m256i@@_K@Z@4QBIB 00000001400172a0     msvcprt:vector_algorithms.obj
 0002:00001698       ?messageMap@?1??GetThisMessageMap@CMainFrame@@KAPEBUAFX_MSGMAP@@XZ@4U3@B 0000000140017698     MainFrm.obj
 0002:000016b0       ?_messageEntries@?1??GetThisMessageMap@CMainFrame@@KAPEBUAFX_MSGMAP@@XZ@4QBUAFX_MSGMAP_ENTRY@@B 00000001400176b0     MainFrm.obj
 0002:00001798       ?messageMap@?1??GetThisMessageMap@CAboutDlg@@KAPEBUAFX_MSGMAP@@XZ@4U3@B 0000000140017798     MFCEdit.obj
 0002:000017a8       ?_messageEntries@?1??GetThisMessageMap@CAboutDlg@@KAPEBUAFX_MSGMAP@@XZ@4QBUAFX_MSGMAP_ENTRY@@B 00000001400177a8     MFCEdit.obj
 0002:00001ef8       ?messageMap@?1??GetThisMessageMap@CMFCEditApp@@KAPEBUAFX_MSGMAP@@XZ@4U3@B 0000000140017ef8     MFCEdit.obj
 0002:00001f10       ?_messageEntries@?1??GetThisMessageMap@CMFCEditApp@@KAPEBUAFX_MSGMAP@@XZ@4QBUAFX_MSGMAP_ENTRY@@B 0000000140017f10     MFCEdit.obj
 0002:000022d8       ?messageMap@?1??GetThisMessageMap@CMFCEditDoc@@KAPEBUAFX_MSGMAP@@XZ@4U3@B 00000001400182d8     MFCEditDoc.obj
 0002:000022e8       ?_messageEntries@?1??GetThisMessageMap@CMFCEditDoc@@KAPEBUAFX_MSGMAP@@XZ@4QBUAFX_MSGMAP_ENTRY@@B 00000001400182e8     MFCEditDoc.obj
 0002:00003038       ?_Fake_alloc@std@@3U_Fake_allocator@1@B 0000000140019038     MFCEditView.obj
 0002:00003039       ?_Fake_alloc@std@@3U_Fake_allocator@1@B 0000000140019039     pch.obj
 0002:00003718       ?messageMap@?1??GetThisMessageMap@CMFCEditView@@KAPEBUAFX_MSGMAP@@XZ@4U3@B 0000000140019718     MFCEditView.obj
 0002:00003730       ?_messageEntries@?1??GetThisMessageMap@CMFCEditView@@KAPEBUAFX_MSGMAP@@XZ@4QBUAFX_MSGMAP_ENTRY@@B 0000000140019730     MFCEditView.obj
 0002:00003900       ?messageMap@?1??GetThisMessageMap@CSimpleEdit@@KAPEBUAFX_MSGMAP@@XZ@4U3@B 0000000140019900     MFCEditView.obj
 0002:00003910       ?_messageEntries@?1??GetThisMessageMap@CSimpleEdit@@KAPEBUAFX_MSGMAP@@XZ@4QBUAFX_MSGMAP_ENTRY@@B 0000000140019910     MFCEditView.obj
 0002:00006390       $unwind$?CreateObject@CMainFrame@@SAPEAVCObject@@XZ 000000014001c390     MainFrm.obj
 0002:000063a0       $cppxdata$?CreateObject@CMainFrame@@SAPEAVCObject@@XZ 000000014001c3a0     MainFrm.obj
 0002:000063a9       $stateUnwindMap$??__EtheApp@@YAXXZ 000000014001c3a9     MFCEdit.obj
 0002:000063a9       $stateUnwindMap$?CreateObject@CMFCEditDoc@@SAPEAVCObject@@XZ 000000014001c3a9     MFCEditDoc.obj
 0002:000063a9       $stateUnwindMap$??1sentry@?$basic_ostream@DU?$char_traits@D@std@@@std@@QEAA@XZ 000000014001c3a9     MFCEditView.obj
 0002:000063a9       $stateUnwindMap$??1sentry@?$basic_ostream@_WU?$char_traits@_W@std@@@std@@QEAA@XZ 000000014001c3a9     MFCEditView.obj
 0002:000063a9       $stateUnwindMap$?CreateObject@CMFCEditView@@SAPEAVCObject@@XZ 000000014001c3a9     MFCEditView.obj
 0002:000063a9       $stateUnwindMap$?CreateObject@CMainFrame@@SAPEAVCObject@@XZ 000000014001c3a9     MainFrm.obj
 0002:000063a9       $stateUnwindMap$??_G_com_error@@UEAAPEAXI@Z 000000014001c3a9     comsuppw:comraise.obj
 0002:000063af       $ip2state$?CreateObject@CMainFrame@@SAPEAVCObject@@XZ 000000014001c3af     MainFrm.obj
 0002:000063b8       $unwind$??_GCAboutDlg@@UEAAPEAXI@Z 000000014001c3b8     MFCEdit.obj
 0002:000063b8       $unwind$??_GCBrush@@UEAAPEAXI@Z 000000014001c3b8     MFCEdit.obj
 0002:000063b8       $unwind$??_GCGdiObject@@UEAAPEAXI@Z 000000014001c3b8     MFCEdit.obj
 0002:000063b8       $unwind$??_GCMFCEditApp@@UEAAPEAXI@Z 000000014001c3b8     MFCEdit.obj
 0002:000063b8       $unwind$??_GCDocumentAdapter@CDocument@@UEAAPEAXI@Z 000000014001c3b8     MFCEditDoc.obj
 0002:000063b8       $unwind$??_GCMFCEditDoc@@UEAAPEAXI@Z 000000014001c3b8     MFCEditDoc.obj
 0002:000063b8       $unwind$??1?$_Uninitialized_backout_al@V?$allocator@V_variant_t@@@std@@@std@@QEAA@XZ 000000014001c3b8     MFCEditView.obj
 0002:000063b8       $unwind$??_G?$_Node_str@_W@std@@UEAAPEAXI@Z 000000014001c3b8     MFCEditView.obj
 0002:000063b8       $unwind$??_G?$basic_stringbuf@DU?$char_traits@D@std@@V?$allocator@D@2@@std@@UEAAPEAXI@Z 000000014001c3b8     MFCEditView.obj
 0002:000063b8       $unwind$??_G?$basic_stringbuf@_WU?$char_traits@_W@std@@V?$allocator@_W@2@@std@@UEAAPEAXI@Z 000000014001c3b8     MFCEditView.obj
 0002:000063b8       $unwind$??_G?$collate@_W@std@@MEAAPEAXI@Z 000000014001c3b8     MFCEditView.obj
 0002:000063b8       $unwind$??_GCComboBox@@UEAAPEAXI@Z 000000014001c3b8     MFCEditView.obj
 0002:000063b8       $unwind$??_GCFont@@UEAAPEAXI@Z 000000014001c3b8     MFCEditView.obj
 0002:000063b8       $unwind$??_GCMFCEditView@@UEAAPEAXI@Z 000000014001c3b8     MFCEditView.obj
 0002:000063b8       $unwind$??_GCSimpleEdit@@UEAAPEAXI@Z 000000014001c3b8     MFCEditView.obj
 0002:000063b8       $unwind$??_Gbad_alloc@std@@UEAAPEAXI@Z 000000014001c3b8     MFCEditView.obj
 0002:000063b8       $unwind$??_Gbad_array_new_length@std@@UEAAPEAXI@Z 000000014001c3b8     MFCEditView.obj
 0002:000063b8       $unwind$??_Gbad_cast@std@@UEAAPEAXI@Z 000000014001c3b8     MFCEditView.obj
 0002:000063b8       $unwind$??_Gexception@std@@UEAAPEAXI@Z 000000014001c3b8     MFCEditView.obj
 0002:000063b8       $unwind$?DoDataExchange@CMFCEditView@@MEAAXPEAVCDataExchange@@@Z 000000014001c3b8     MFCEditView.obj
 0002:000063b8       $unwind$?_Buy_raw@?$vector@IV?$allocator@I@std@@@std@@AEAAX_K@Z 000000014001c3b8     MFCEditView.obj
 0002:000063b8       $unwind$?_Buy_raw@?$vector@U_Grp_t@?$_Tgt_state_t@V?$_String_const_iterator@V?$_String_val@U?$_Simple_types@_W@std@@@std@@@std@@@std@@V?$allocator@U_Grp_t@?$_Tgt_state_t@V?$_String_const_iterator@V?$_String_val@U?$_Simple_types@_W@std@@@std@@@std@@@std@@@3@@std@@AEAAX_K@Z 000000014001c3b8     MFCEditView.obj
 0002:000063b8       $unwind$?_ClassAtom@?$_Parser@PEB_W_WV?$regex_traits@_W@std@@@std@@AEAA?AW4_Prs_ret@2@XZ 000000014001c3b8     MFCEditView.obj
 0002:000063b8       $unwind$??_GCMainFrame@@UEAAPEAXI@Z 000000014001c3b8     MainFrm.obj
 0002:000063b8       $unwind$??0CAtlBaseModule@ATL@@QEAA@XZ 000000014001c3b8     atls:atlbase.obj
 0002:000063b8       $unwind$?AfxInitialize@@YAHHK@Z 000000014001c3b8     mfcs140u:appmodul.obj
 0002:000063b8       $unwind$_RTC_Initialize    000000014001c3b8     msvcrt:initsect.obj
 0002:000063b8       $unwind$_RTC_Terminate     000000014001c3b8     msvcrt:initsect.obj
 0002:000063b8       $unwind$__scrt_unhandled_exception_filter 000000014001c3b8     msvcrt:utility_desktop.obj
 0002:000063c4       $unwind$?OnCreate@CMainFrame@@IEAAHPEAUtagCREATESTRUCTW@@@Z 000000014001c3c4     MainFrm.obj
 0002:000063d4       $unwind$?OnNewDocument@CMFCEditDoc@@UEAAHXZ 000000014001c3d4     MFCEditDoc.obj
 0002:000063d4       $unwind$?Release@IDocument@ATL@@UEAAJXZ 000000014001c3d4     MFCEditDoc.obj
 0002:000063d4       $unwind$??1?$basic_regex@_WV?$regex_traits@_W@std@@@std@@QEAA@XZ 000000014001c3d4     MFCEditView.obj
 0002:000063d4       $unwind$??1?$regex_traits@_W@std@@QEAA@XZ 000000014001c3d4     MFCEditView.obj
 0002:000063d4       $unwind$??1locale@std@@QEAA@XZ 000000014001c3d4     MFCEditView.obj
 0002:000063d4       $unwind$?OnKillfocusEdInput@CMFCEditView@@QEAAXXZ 000000014001c3d4     MFCEditView.obj
 0002:000063d4       $unwind$?QueryInterface@CVARIANTTool@@UEAAJAEBU_GUID@@PEAPEAX@Z 000000014001c3d4     MFCEditView.obj
 0002:000063d4       $unwind$?QueryInterface@IVARIANTApplication@@UEAAJAEBU_GUID@@PEAPEAX@Z 000000014001c3d4     MFCEditView.obj
 0002:000063d4       $unwind$?_Error@?$_Parser@PEB_W_WV?$regex_traits@_W@std@@@std@@AEAAXW4error_type@regex_constants@2@@Z 000000014001c3d4     MFCEditView.obj
 0002:000063d4       $unwind$?_Xlen@?$deque@V?$shared_ptr@Ust@?1??Value@CVARIANTTool@@IEAA?AUtagVARIANT@@U4@0@Z@@std@@V?$allocator@V?$shared_ptr@Ust@?1??Value@CVARIANTTool@@IEAA?AUtagVARIANT@@U4@0@Z@@std@@@2@@std@@CAXXZ 000000014001c3d4     MFCEditView.obj
 0002:000063d4       $unwind$?_Xlen@?$vector@_NV?$allocator@_N@std@@@std@@SAXXZ 000000014001c3d4     MFCEditView.obj
 0002:000063d4       $unwind$?_Xlen_string@std@@YAXXZ 000000014001c3d4     MFCEditView.obj
 0002:000063d4       $unwind$?_Xlength@?$vector@DV?$allocator@D@std@@@std@@CAXXZ 000000014001c3d4     MFCEditView.obj
 0002:000063d4       $unwind$?_Xlength@?$vector@HV?$allocator@H@std@@@std@@CAXXZ 000000014001c3d4     MFCEditView.obj
 0002:000063d4       $unwind$?_Xlength@?$vector@IV?$allocator@I@std@@@std@@CAXXZ 000000014001c3d4     MFCEditView.obj
 0002:000063d4       $unwind$?_Xlength@?$vector@U_Grp_t@?$_Tgt_state_t@V?$_String_const_iterator@V?$_String_val@U?$_Simple_types@_W@std@@@std@@@std@@@std@@V?$allocator@U_Grp_t@?$_Tgt_state_t@V?$_String_const_iterator@V?$_String_val@U?$_Simple_types@_W@std@@@std@@@std@@@std@@@3@@std@@CAXXZ 000000014001c3d4     MFCEditView.obj
 0002:000063d4       $unwind$?_Xlength@?$vector@U_Loop_vals_t@std@@V?$allocator@U_Loop_vals_t@std@@@2@@std@@CAXXZ 000000014001c3d4     MFCEditView.obj
 0002:000063d4       $unwind$?_Xlength@?$vector@V?$basic_string@_WU?$char_traits@_W@std@@V?$allocator@_W@2@@std@@V?$allocator@V?$basic_string@_WU?$char_traits@_W@std@@V?$allocator@_W@2@@std@@@2@@std@@CAXXZ 000000014001c3d4     MFCEditView.obj
 0002:000063d4       $unwind$?_Xlength@?$vector@V?$sub_match@V?$_String_const_iterator@V?$_String_val@U?$_Simple_types@_W@std@@@std@@@std@@@std@@V?$allocator@V?$sub_match@V?$_String_const_iterator@V?$_String_val@U?$_Simple_types@_W@std@@@std@@@std@@@std@@@2@@std@@CAXXZ 000000014001c3d4     MFCEditView.obj
 0002:000063d4       $unwind$?_Xlength@?$vector@V_variant_t@@V?$allocator@V_variant_t@@@std@@@std@@CAXXZ 000000014001c3d4     MFCEditView.obj
 0002:000063d4       $unwind$?_Xlength@?$vector@_WV?$allocator@_W@std@@@std@@CAXXZ 000000014001c3d4     MFCEditView.obj
 0002:000063d4       $unwind$?deallocate@?$allocator@V_variant_t@@@std@@QEAAXQEAV_variant_t@@_K@Z 000000014001c3d4     MFCEditView.obj
 0002:000063d4       $unwind$?PreCreateWindow@CMainFrame@@UEAAHAEAUtagCREATESTRUCTW@@@Z 000000014001c3d4     MainFrm.obj
 0002:000063d4       $unwind$??__E_AtlBaseModule@ATL@@YAXXZ 000000014001c3d4     atls:atlbase.obj
 0002:000063d4       $unwind$??__E_afxInitAppState@@YAXXZ 000000014001c3d4     mfcs140u:appmodul.obj
 0002:000063d4       $unwind$__scrt_initialize_default_local_stdio_options 000000014001c3d4     msvcrt:default_local_stdio_options.obj
 0002:000063d4       $unwind$?post_pgo_initialization@@YAHXZ 000000014001c3d4     msvcrt:exe_wwinmain.obj
 0002:000063d4       $unwind$?pre_cpp_initialization@@YAXXZ 000000014001c3d4     msvcrt:exe_wwinmain.obj
 0002:000063d4       $unwind$wWinMainCRTStartup 000000014001c3d4     msvcrt:exe_wwinmain.obj
 0002:000063d4       $unwind$__GSHandlerCheck   000000014001c3d4     msvcrt:gshandler.obj
 0002:000063d4       $unwind$__scrt_acquire_startup_lock 000000014001c3d4     msvcrt:utility.obj
 0002:000063d4       $unwind$__scrt_initialize_crt 000000014001c3d4     msvcrt:utility.obj
 0002:000063d4       $unwind$atexit             000000014001c3d4     msvcrt:utility.obj
 0002:000063d4       $unwind$__scrt_is_managed_app 000000014001c3d4     msvcrt:utility_desktop.obj
 0002:000063dc       $unwind$??__EtheApp@@YAXXZ 000000014001c3dc     MFCEdit.obj
 0002:000063ec       $cppxdata$??__EtheApp@@YAXXZ 000000014001c3ec     MFCEdit.obj
 0002:000063f5       $ip2state$??__EtheApp@@YAXXZ 000000014001c3f5     MFCEdit.obj
 0002:000063fc       $unwind$?InitInstance@CMFCEditApp@@UEAAHXZ 000000014001c3fc     MFCEdit.obj
 0002:0000641c       $cppxdata$?InitInstance@CMFCEditApp@@UEAAHXZ 000000014001c41c     MFCEdit.obj
 0002:00006425       $stateUnwindMap$?InitInstance@CMFCEditApp@@UEAAHXZ 000000014001c425     MFCEdit.obj
 0002:00006432       $ip2state$?InitInstance@CMFCEditApp@@UEAAHXZ 000000014001c432     MFCEdit.obj
 0002:00006440       $unwind$??1CAboutDlg@@UEAA@XZ 000000014001c440     MFCEdit.obj
 0002:00006440       $unwind$?ExitInstance@CMFCEditApp@@UEAAHXZ 000000014001c440     MFCEdit.obj
 0002:00006440       $unwind$??_GIDocument@ATL@@UEAAPEAXI@Z 000000014001c440     MFCEditDoc.obj
 0002:00006440       $unwind$??0?$basic_string@_WU?$char_traits@_W@std@@V?$allocator@_W@2@@std@@QEAA@QEB_W@Z 000000014001c440     MFCEditView.obj
 0002:00006440       $unwind$??0bad_alloc@std@@QEAA@AEBV01@@Z 000000014001c440     MFCEditView.obj
 0002:00006440       $unwind$??0bad_array_new_length@std@@QEAA@AEBV01@@Z 000000014001c440     MFCEditView.obj
 0002:00006440       $unwind$??0bad_cast@std@@QEAA@AEBV01@@Z 000000014001c440     MFCEditView.obj
 0002:00006440       $unwind$??0exception@std@@QEAA@AEBV01@@Z 000000014001c440     MFCEditView.obj
 0002:00006440       $unwind$??1?$_Bt_state_t@V?$_String_const_iterator@V?$_String_val@U?$_Simple_types@_W@std@@@std@@@std@@@std@@QEAA@XZ 000000014001c440     MFCEditView.obj
 0002:00006440       $unwind$??1?$_Matcher@V?$_String_const_iterator@V?$_String_val@U?$_Simple_types@_W@std@@@std@@@std@@_WV?$regex_traits@_W@2@V12@@std@@QEAA@XZ 000000014001c440     MFCEditView.obj
 0002:00006440       $unwind$??1?$_Parser@PEB_W_WV?$regex_traits@_W@std@@@std@@QEAA@XZ 000000014001c440     MFCEditView.obj
 0002:00006440       $unwind$??1?$_Vb_val@V?$allocator@_N@std@@@std@@QEAA@XZ 000000014001c440     MFCEditView.obj
 0002:00006440       $unwind$??1?$basic_string@DU?$char_traits@D@std@@V?$allocator@D@2@@std@@QEAA@XZ 000000014001c440     MFCEditView.obj
 0002:00006440       $unwind$??1?$basic_string@_WU?$char_traits@_W@std@@V?$allocator@_W@2@@std@@QEAA@XZ 000000014001c440     MFCEditView.obj
 0002:00006440       $unwind$??1?$basic_stringbuf@DU?$char_traits@D@std@@V?$allocator@D@2@@std@@UEAA@XZ 000000014001c440     MFCEditView.obj
 0002:00006440       $unwind$??1?$basic_stringbuf@_WU?$char_traits@_W@std@@V?$allocator@_W@2@@std@@UEAA@XZ 000000014001c440     MFCEditView.obj
 0002:00006440       $unwind$??1?$regex_token_iterator@V?$_String_const_iterator@V?$_String_val@U?$_Simple_types@_W@std@@@std@@@std@@_WV?$regex_traits@_W@2@@std@@QEAA@XZ 000000014001c440     MFCEditView.obj
 0002:00006440       $unwind$??1?$shared_ptr@Ust@?1??Value@CVARIANTTool@@IEAA?AUtagVARIANT@@U4@0@Z@@std@@QEAA@XZ 000000014001c440     MFCEditView.obj
 0002:00006440       $unwind$??1?$vector@DV?$allocator@D@std@@@std@@QEAA@XZ 000000014001c440     MFCEditView.obj
 0002:00006440       $unwind$??1?$vector@U_Loop_vals_t@std@@V?$allocator@U_Loop_vals_t@std@@@2@@std@@QEAA@XZ 000000014001c440     MFCEditView.obj
 0002:00006440       $unwind$??1?$vector@V?$basic_string@_WU?$char_traits@_W@std@@V?$allocator@_W@2@@std@@V?$allocator@V?$basic_string@_WU?$char_traits@_W@std@@V?$allocator@_W@2@@std@@@2@@std@@QEAA@XZ 000000014001c440     MFCEditView.obj
 0002:00006440       $unwind$??1?$vector@_NV?$allocator@_N@std@@@std@@QEAA@XZ 000000014001c440     MFCEditView.obj
 0002:00006440       $unwind$??1?$vector@_WV?$allocator@_W@std@@@std@@QEAA@XZ 000000014001c440     MFCEditView.obj
 0002:00006440       $unwind$??_D?$basic_stringstream@DU?$char_traits@D@std@@V?$allocator@D@2@@std@@QEAAXXZ 000000014001c440     MFCEditView.obj
 0002:00006440       $unwind$??_D?$basic_stringstream@_WU?$char_traits@_W@std@@V?$allocator@_W@2@@std@@QEAAXXZ 000000014001c440     MFCEditView.obj
 0002:00006440       $unwind$??_G?$_Ref_count_obj2@Ust@?1??Value@CVARIANTTool@@IEAA?AUtagVARIANT@@U4@0@Z@@std@@UEAAPEAXI@Z 000000014001c440     MFCEditView.obj
 0002:00006440       $unwind$??_GCVARIANTTool@@UEAAPEAXI@Z 000000014001c440     MFCEditView.obj
 0002:00006440       $unwind$??_GIVARIANTAbstract@@UEAAPEAXI@Z 000000014001c440     MFCEditView.obj
 0002:00006440       $unwind$??_GIVARIANTApplication@@UEAAPEAXI@Z 000000014001c440     MFCEditView.obj
 0002:00006440       $unwind$??_G_Node_back@std@@UEAAPEAXI@Z 000000014001c440     MFCEditView.obj
 0002:00006440       $unwind$??_G_Node_base@std@@UEAAPEAXI@Z 000000014001c440     MFCEditView.obj
 0002:00006440       $unwind$??_G_Node_capture@std@@UEAAPEAXI@Z 000000014001c440     MFCEditView.obj
 0002:00006440       $unwind$??_G_Node_end_group@std@@UEAAPEAXI@Z 000000014001c440     MFCEditView.obj
 0002:00006440       $unwind$??_G_Node_end_rep@std@@UEAAPEAXI@Z 000000014001c440     MFCEditView.obj
 0002:00006440       $unwind$??_G_Node_endif@std@@UEAAPEAXI@Z 000000014001c440     MFCEditView.obj
 0002:00006440       $unwind$??_G_Node_rep@std@@UEAAPEAXI@Z 000000014001c440     MFCEditView.obj
 0002:00006440       $unwind$??_G_Root_node@std@@UEAAPEAXI@Z 000000014001c440     MFCEditView.obj
 0002:00006440       $unwind$?OnBnClickedButton2@CMFCEditView@@QEAAXXZ 000000014001c440     MFCEditView.obj
 0002:00006440       $unwind$?Release@IVARIANTAbstract@@UEAAKXZ 000000014001c440     MFCEditView.obj
 0002:00006440       $unwind$?_Add_class@?$_Builder@PEB_W_WV?$regex_traits@_W@std@@@std@@QEAAXXZ 000000014001c440     MFCEditView.obj
 0002:00006440       $unwind$?_CharacterEscape@?$_Parser@PEB_W_WV?$regex_traits@_W@std@@@std@@AEAA_NXZ 000000014001c440     MFCEditView.obj
 0002:00006440       $unwind$?_Destroy@?$_Ref_count_obj2@Ust@?1??Value@CVARIANTTool@@IEAA?AUtagVARIANT@@U4@0@Z@@std@@EEAAXXZ 000000014001c440     MFCEditView.obj
 0002:00006440       $unwind$?_End_group@?$_Builder@PEB_W_WV?$regex_traits@_W@std@@@std@@QEAAXPEAV_Node_base@2@@Z 000000014001c440     MFCEditView.obj
 0002:00006440       $unwind$?_Tidy@?$vector@V?$sub_match@V?$_String_const_iterator@V?$_String_val@U?$_Simple_types@_W@std@@@std@@@std@@@std@@V?$allocator@V?$sub_match@V?$_String_const_iterator@V?$_String_val@U?$_Simple_types@_W@std@@@std@@@std@@@std@@@2@@std@@AEAAXXZ 000000014001c440     MFCEditView.obj
 0002:00006440       $unwind$?_Tidy_deallocate@?$basic_string@_WU?$char_traits@_W@std@@V?$allocator@_W@2@@std@@AEAAXXZ 000000014001c440     MFCEditView.obj
 0002:00006440       $unwind$?get_accChildCount@CFormView@@UEAAJPEAJ@Z 000000014001c440     MFCEditView.obj
 0002:00006440       $unwind$??1CAtlBaseModule@ATL@@QEAA@XZ 000000014001c440     atls:atlbase.obj
 0002:00006440       $unwind$??0_com_error@@QEAA@AEBV0@@Z 000000014001c440     comsuppw:comraise.obj
 0002:00006440       $unwind$??0_com_error@@QEAA@JPEAUIErrorInfo@@_N@Z 000000014001c440     comsuppw:comraise.obj
 0002:00006440       $unwind$??__F_Fac_tidy_reg@std@@YAXXZ 000000014001c440     msvcprt:locale0_implib.obj
 0002:00006440       $unwind$?_Facet_Register@std@@YAXPEAV_Facet_base@1@@Z 000000014001c440     msvcprt:locale0_implib.obj
 0002:00006440       $unwind$?pre_c_initialization@@YAHXZ 000000014001c440     msvcrt:exe_wwinmain.obj
 0002:00006440       $unwind$__raise_securityfailure 000000014001c440     msvcrt:gs_report.obj
 0002:00006440       $unwind$??_Gtype_info@@UEAAPEAXI@Z 000000014001c440     msvcrt:std_type_info_static.obj
 0002:00006440       $unwind$__scrt_initialize_onexit_tables 000000014001c440     msvcrt:utility.obj
 0002:00006440       $unwind$__scrt_release_startup_lock 000000014001c440     msvcrt:utility.obj
 0002:00006440       $unwind$__scrt_uninitialize_crt 000000014001c440     msvcrt:utility.obj
 0002:00006440       $unwind$_onexit            000000014001c440     msvcrt:utility.obj
 0002:00006448       $unwind$?OnAppAbout@CMFCEditApp@@QEAAXXZ 000000014001c448     MFCEdit.obj
 0002:0000645c       $cppxdata$?OnAppAbout@CMFCEditApp@@QEAAXXZ 000000014001c45c     MFCEdit.obj
 0002:00006465       $stateUnwindMap$?OnAppAbout@CMFCEditApp@@QEAAXXZ 000000014001c465     MFCEdit.obj
 0002:00006471       $ip2state$?OnAppAbout@CMFCEditApp@@QEAAXXZ 000000014001c471     MFCEdit.obj
 0002:00006478       $unwind$??1CGdiObject@@UEAA@XZ 000000014001c478     MFCEdit.obj
 0002:0000648c       $cppxdata$??1CGdiObject@@UEAA@XZ 000000014001c48c     MFCEdit.obj
 0002:00006499       $stateUnwindMap$??1CGdiObject@@UEAA@XZ 000000014001c499     MFCEdit.obj
 0002:00006499       $stateUnwindMap$??1CWaitCursor@@QEAA@XZ 000000014001c499     MFCEditView.obj
 0002:000064a1       $tryMap$??1CGdiObject@@UEAA@XZ 000000014001c4a1     MFCEdit.obj
 0002:000064a9       $handlerMap$??1CGdiObject@@UEAA@XZ 000000014001c4a9     MFCEdit.obj
 0002:000064b5       $ip2state$??1CGdiObject@@UEAA@XZ 000000014001c4b5     MFCEdit.obj
 0002:000064bc       $unwind$?catch$1@?0???1CGdiObject@@UEAA@XZ@4HA 000000014001c4bc     MFCEdit.obj
 0002:000064bc       $unwind$?catch$1@?0???1CWaitCursor@@QEAA@XZ@4HA 000000014001c4bc     MFCEditView.obj
 0002:000064d0       $cppxdata$?catch$1@?0???1CGdiObject@@UEAA@XZ@4HA 000000014001c4d0     MFCEdit.obj
 0002:000064d0       $cppxdata$?catch$1@?0???1CWaitCursor@@QEAA@XZ@4HA 000000014001c4d0     MFCEditView.obj
 0002:000064da       $stateUnwindMap$?catch$1@?0???1CGdiObject@@UEAA@XZ@4HA 000000014001c4da     MFCEdit.obj
 0002:000064da       $stateUnwindMap$?catch$1@?0???1CWaitCursor@@QEAA@XZ@4HA 000000014001c4da     MFCEditView.obj
 0002:000064e2       $ip2state$?catch$1@?0???1CGdiObject@@UEAA@XZ@4HA 000000014001c4e2     MFCEdit.obj
 0002:000064e2       $ip2state$?catch$1@?0???1CWaitCursor@@QEAA@XZ@4HA 000000014001c4e2     MFCEditView.obj
 0002:000064e8       $unwind$?CreateObject@CMFCEditDoc@@SAPEAVCObject@@XZ 000000014001c4e8     MFCEditDoc.obj
 0002:000064f8       $cppxdata$?CreateObject@CMFCEditDoc@@SAPEAVCObject@@XZ 000000014001c4f8     MFCEditDoc.obj
 0002:00006501       $ip2state$?CreateObject@CMFCEditDoc@@SAPEAVCObject@@XZ 000000014001c501     MFCEditDoc.obj
 0002:00006508       $unwind$?LoadFromStream@CDocumentAdapter@CDocument@@UEAAJPEAUIStream@@K@Z 000000014001c508     MFCEditDoc.obj
 0002:00006508       $unwind$??_G?$basic_stringstream@DU?$char_traits@D@std@@V?$allocator@D@2@@std@@UEAAPEAXI@Z 000000014001c508     MFCEditView.obj
 0002:00006508       $unwind$??_G?$basic_stringstream@_WU?$char_traits@_W@std@@V?$allocator@_W@2@@std@@UEAAPEAXI@Z 000000014001c508     MFCEditView.obj
 0002:00006508       $unwind$?_Trans@?$_Parser@PEB_W_WV?$regex_traits@_W@std@@@std@@AEAAXXZ 000000014001c508     MFCEditView.obj
 0002:00006518       $unwind$?GetAdapter@CDocument@@UEAAPEAUIDocument@ATL@@XZ 000000014001c518     MFCEditDoc.obj
 0002:0000652c       $cppxdata$?GetAdapter@CDocument@@UEAAPEAUIDocument@ATL@@XZ 000000014001c52c     MFCEditDoc.obj
 0002:00006539       $stateUnwindMap$?GetAdapter@CDocument@@UEAAPEAUIDocument@ATL@@XZ 000000014001c539     MFCEditDoc.obj
 0002:0000653c       $tryMap$?GetAdapter@CDocument@@UEAAPEAUIDocument@ATL@@XZ 000000014001c53c     MFCEditDoc.obj
 0002:00006544       $handlerMap$?GetAdapter@CDocument@@UEAAPEAUIDocument@ATL@@XZ 000000014001c544     MFCEditDoc.obj
 0002:00006550       $ip2state$?GetAdapter@CDocument@@UEAAPEAUIDocument@ATL@@XZ 000000014001c550     MFCEditDoc.obj
 0002:00006558       $unwind$?catch$1@?0??GetAdapter@CDocument@@UEAAPEAUIDocument@ATL@@XZ@4HA 000000014001c558     MFCEditDoc.obj
 0002:00006558       $unwind$?catch$16@?0???$?6_WU?$char_traits@_W@std@@@std@@YAAEAV?$basic_ostream@_WU?$char_traits@_W@std@@@0@AEAV10@_W@Z@4HA 000000014001c558     MFCEditView.obj
 0002:00006558       $unwind$?catch$17@?0???$?6U?$char_traits@D@std@@@std@@YAAEAV?$basic_ostream@DU?$char_traits@D@std@@@0@AEAV10@PEBD@Z@4HA 000000014001c558     MFCEditView.obj
 0002:00006558       $unwind$?catch$17@?0???$?6_WU?$char_traits@_W@std@@@std@@YAAEAV?$basic_ostream@_WU?$char_traits@_W@std@@@0@AEAV10@PEB_W@Z@4HA 000000014001c558     MFCEditView.obj
 0002:00006558       $unwind$?catch$17@?0???$_Insert_string@_WU?$char_traits@_W@std@@_K@std@@YAAEAV?$basic_ostream@_WU?$char_traits@_W@std@@@0@AEAV10@QEB_W_K@Z@4HA 000000014001c558     MFCEditView.obj
 0002:00006558       $unwind$?catch$3@?0???$_Emplace_reallocate@AEBV_variant_t@@@?$vector@V_variant_t@@V?$allocator@V_variant_t@@@std@@@std@@AEAAPEAV_variant_t@@QEAV2@AEBV2@@Z@4HA 000000014001c558     MFCEditView.obj
 0002:00006560       $unwind$??1?$_Tidy_guard@V?$_Builder@PEB_W_WV?$regex_traits@_W@std@@@std@@@std@@QEAA@XZ 000000014001c560     MFCEditView.obj
 0002:00006560       $unwind$??_G_Node_assert@std@@UEAAPEAXI@Z 000000014001c560     MFCEditView.obj
 0002:00006560       $unwind$?_Buy_nonzero@?$vector@HV?$allocator@H@std@@@std@@AEAAX_K@Z 000000014001c560     MFCEditView.obj
 0002:00006568       $chain$1$??_G_Node_assert@std@@UEAAPEAXI@Z 000000014001c568     MFCEditView.obj
 0002:00006580       $chain$2$??_G_Node_assert@std@@UEAAPEAXI@Z 000000014001c580     MFCEditView.obj
 0002:00006594       $chain$3$??_G_Node_assert@std@@UEAAPEAXI@Z 000000014001c594     MFCEditView.obj
 0002:000065a4       $chain$4$??_G_Node_assert@std@@UEAAPEAXI@Z 000000014001c5a4     MFCEditView.obj
 0002:000065b4       $unwind$??_G_Node_if@std@@UEAAPEAXI@Z 000000014001c5b4     MFCEditView.obj
 0002:000065bc       $chain$1$??_G_Node_if@std@@UEAAPEAXI@Z 000000014001c5bc     MFCEditView.obj
 0002:000065d4       $chain$4$??_G_Node_if@std@@UEAAPEAXI@Z 000000014001c5d4     MFCEditView.obj
 0002:000065f0       $chain$5$??_G_Node_if@std@@UEAAPEAXI@Z 000000014001c5f0     MFCEditView.obj
 0002:00006600       $chain$6$??_G_Node_if@std@@UEAAPEAXI@Z 000000014001c600     MFCEditView.obj
 0002:00006610       $unwind$?_Calculate_loop_simplicity@std@@YAXPEAV_Node_base@1@0PEAV_Node_rep@1@@Z 000000014001c610     MFCEditView.obj
 0002:00006620       $chain$1$?_Calculate_loop_simplicity@std@@YAXPEAV_Node_base@1@0PEAV_Node_rep@1@@Z 000000014001c620     MFCEditView.obj
 0002:00006638       $chain$2$?_Calculate_loop_simplicity@std@@YAXPEAV_Node_base@1@0PEAV_Node_rep@1@@Z 000000014001c638     MFCEditView.obj
 0002:00006648       $unwind$?OnKeyDown@CSimpleEdit@@IEAAXIII@Z 000000014001c648     MFCEditView.obj
 0002:00006658       $unwind$?CreateObject@CMFCEditView@@SAPEAVCObject@@XZ 000000014001c658     MFCEditView.obj
 0002:00006674       $cppxdata$?CreateObject@CMFCEditView@@SAPEAVCObject@@XZ 000000014001c674     MFCEditView.obj
 0002:0000667d       $ip2state$?CreateObject@CMFCEditView@@SAPEAVCObject@@XZ 000000014001c67d     MFCEditView.obj
 0002:00006688       $unwind$?PasteTemplate@@YAXAEAVCEdit@@@Z 000000014001c688     MFCEditView.obj
 0002:000066ac       $cppxdata$?PasteTemplate@@YAXAEAVCEdit@@@Z 000000014001c6ac     MFCEditView.obj
 0002:000066b5       $stateUnwindMap$?PasteTemplate@@YAXAEAVCEdit@@@Z 000000014001c6b5     MFCEditView.obj
 0002:000066d7       $ip2state$?PasteTemplate@@YAXAEAVCEdit@@@Z 000000014001c6d7     MFCEditView.obj
 0002:000066ec       $unwind$?dtor$0@?0???$transform_primary@PEA_W@?$_Regex_traits@_W@std@@QEBA?AV?$basic_string@_WU?$char_traits@_W@std@@V?$allocator@_W@2@@1@PEA_W0@Z@4HA 000000014001c6ec     MFCEditView.obj
 0002:000066ec       $unwind$?dtor$0@?0???$transform_primary@PEB_W@?$_Regex_traits@_W@std@@QEBA?AV?$basic_string@_WU?$char_traits@_W@std@@V?$allocator@_W@2@@1@PEB_W0@Z@4HA 000000014001c6ec     MFCEditView.obj
 0002:000066ec       $unwind$?dtor$0@?0???$transform_primary@V?$_String_iterator@V?$_String_val@U?$_Simple_types@_W@std@@@std@@@std@@@?$_Regex_traits@_W@std@@QEBA?AV?$basic_string@_WU?$char_traits@_W@std@@V?$allocator@_W@2@@1@V?$_String_iterator@V?$_String_val@U?$_Simple_types@_W@std@@@std@@@1@0@Z@4HA 000000014001c6ec     MFCEditView.obj
 0002:000066ec       $unwind$?dtor$0@?0???HATL@@YA?AV?$CStringT@_WV?$StrTraitMFC_DLL@_WV?$ChTraitsCRT@_W@ATL@@@@@0@AEBV10@PEB_W@Z@4HA 000000014001c6ec     MFCEditView.obj
 0002:000066ec       $unwind$?dtor$0@?0???HATL@@YA?AV?$CStringT@_WV?$StrTraitMFC_DLL@_WV?$ChTraitsCRT@_W@ATL@@@@@0@PEB_WAEBV10@@Z@4HA 000000014001c6ec     MFCEditView.obj
 0002:000066ec       $unwind$?dtor$0@?0??do_transform@?$collate@_W@std@@MEBA?AV?$basic_string@_WU?$char_traits@_W@std@@V?$allocator@_W@2@@2@PEB_W0@Z@4HA 000000014001c6ec     MFCEditView.obj
 0002:000066ec       $unwind$?dtor$10@?0??OpenTextFile@CVARIANTTool@@IEAA?AUtagVARIANT@@U2@@Z@4HA 000000014001c6ec     MFCEditView.obj
 0002:000066ec       $unwind$?dtor$10@?0??Test@IVARIANTApplication@@QEAA?AUtagVARIANT@@U2@@Z@4HA 000000014001c6ec     MFCEditView.obj
 0002:000066ec       $unwind$?dtor$10@?0??Value@CVARIANTTool@@IEAA?AUtagVARIANT@@U2@0@Z@4HA 000000014001c6ec     MFCEditView.obj
 0002:000066ec       $unwind$?dtor$13@?0??OnBnClickedBtnRun@CMFCEditView@@QEAAXXZ@4HA 000000014001c6ec     MFCEditView.obj
 0002:000066ec       $unwind$?dtor$20@?0??Value@CVARIANTTool@@IEAA?AUtagVARIANT@@U2@0@Z@4HA 000000014001c6ec     MFCEditView.obj
 0002:000066ec       $unwind$?dtor$2@?0???$use_facet@V?$collate@_W@std@@@std@@YAAEBV?$collate@_W@0@AEBVlocale@0@@Z@4HA 000000014001c6ec     MFCEditView.obj
 0002:000066ec       $unwind$?dtor$2@?0??Split@@YA?AV?$vector@V?$basic_string@_WU?$char_traits@_W@std@@V?$allocator@_W@2@@std@@V?$allocator@V?$basic_string@_WU?$char_traits@_W@std@@V?$allocator@_W@2@@std@@@2@@std@@V?$basic_string@_WU?$char_traits@_W@std@@V?$allocator@_W@2@@2@0@Z@4HA 000000014001c6ec     MFCEditView.obj
 0002:000066ec       $unwind$?dtor$36@?0??inetGet@CVARIANTTool@@IEAA?AUtagVARIANT@@U2@@Z@4HA 000000014001c6ec     MFCEditView.obj
 0002:000066ec       $unwind$?dtor$37@?0??inetGet@CVARIANTTool@@IEAA?AUtagVARIANT@@U2@@Z@4HA 000000014001c6ec     MFCEditView.obj
 0002:000066ec       $unwind$?dtor$38@?0??inetGet@CVARIANTTool@@IEAA?AUtagVARIANT@@U2@@Z@4HA 000000014001c6ec     MFCEditView.obj
 0002:000066ec       $unwind$?dtor$3@?0???$use_facet@V?$collate@_W@std@@@std@@YAAEBV?$collate@_W@0@AEBVlocale@0@@Z@4HA 000000014001c6ec     MFCEditView.obj
 0002:000066ec       $unwind$?dtor$3@?0??PasteTemplate@@YAXAEAVCEdit@@@Z@4HA 000000014001c6ec     MFCEditView.obj
 0002:000066ec       $unwind$?dtor$3@?0??inetStockData_YahooFinanceUri@@YA?AV?$basic_string@_WU?$char_traits@_W@std@@V?$allocator@_W@2@@std@@V12@H@Z@4HA 000000014001c6ec     MFCEditView.obj
 0002:000066ec       $unwind$?dtor$41@?0??Value@CVARIANTTool@@IEAA?AUtagVARIANT@@U2@0@Z@4HA 000000014001c6ec     MFCEditView.obj
 0002:000066ec       $unwind$?dtor$43@?0??inetGet@CVARIANTTool@@IEAA?AUtagVARIANT@@U2@@Z@4HA 000000014001c6ec     MFCEditView.obj
 0002:000066ec       $unwind$?dtor$44@?0??inetGet@CVARIANTTool@@IEAA?AUtagVARIANT@@U2@@Z@4HA 000000014001c6ec     MFCEditView.obj
 0002:000066ec       $unwind$?dtor$4@?0???$use_facet@V?$collate@_W@std@@@std@@YAAEBV?$collate@_W@0@AEBVlocale@0@@Z@4HA 000000014001c6ec     MFCEditView.obj
 0002:000066ec       $unwind$?dtor$52@?0??Value@CVARIANTTool@@IEAA?AUtagVARIANT@@U2@0@Z@4HA 000000014001c6ec     MFCEditView.obj
 0002:000066ec       $unwind$?dtor$5@?0??OpenTextFile@CVARIANTTool@@IEAA?AUtagVARIANT@@U2@@Z@4HA 000000014001c6ec     MFCEditView.obj
 0002:000066ec       $unwind$?dtor$7@?0??OnBnClickedBtnRun@CMFCEditView@@QEAAXXZ@4HA 000000014001c6ec     MFCEditView.obj
 0002:000066ec       $unwind$?dtor$8@?0??PasteTemplate@@YAXAEAVCEdit@@@Z@4HA 000000014001c6ec     MFCEditView.obj
 0002:000066ec       $unwind$?dtor$8@?0??Split@@YA?AV?$vector@V?$basic_string@_WU?$char_traits@_W@std@@V?$allocator@_W@2@@std@@V?$allocator@V?$basic_string@_WU?$char_traits@_W@std@@V?$allocator@_W@2@@std@@@2@@std@@V?$basic_string@_WU?$char_traits@_W@std@@V?$allocator@_W@2@@2@0@Z@4HA 000000014001c6ec     MFCEditView.obj
 0002:000066ec       $unwind$?dtor$8@?0??inetStockData_YahooFinanceUri@@YA?AV?$basic_string@_WU?$char_traits@_W@std@@V?$allocator@_W@2@@std@@V12@H@Z@4HA 000000014001c6ec     MFCEditView.obj
 0002:000066ec       $unwind$?filt$0@?0??__scrt_common_main_seh@@YAHXZ@4HA 000000014001c6ec     msvcrt:exe_wwinmain.obj
 0002:000066f4       $unwind$?PreTranslateMessage@CMFCEditView@@MEAAHPEAUtagMSG@@@Z 000000014001c6f4     MFCEditView.obj
 0002:00006710       $cppxdata$?PreTranslateMessage@CMFCEditView@@MEAAHPEAUtagMSG@@@Z 000000014001c710     MFCEditView.obj
 0002:00006719       $stateUnwindMap$?OnSetfocusEdInput@CMFCEditView@@QEAAXXZ 000000014001c719     MFCEditView.obj
 0002:00006719       $stateUnwindMap$?PreTranslateMessage@CMFCEditView@@MEAAHPEAUtagMSG@@@Z 000000014001c719     MFCEditView.obj
 0002:00006720       $ip2state$?PreTranslateMessage@CMFCEditView@@MEAAHPEAUtagMSG@@@Z 000000014001c720     MFCEditView.obj
 0002:00006730       $unwind$?OnInitialUpdate@CMFCEditView@@MEAAXXZ 000000014001c730     MFCEditView.obj
 0002:00006758       $cppxdata$?OnInitialUpdate@CMFCEditView@@MEAAXXZ 000000014001c758     MFCEditView.obj
 0002:00006761       $stateUnwindMap$?OnDestroy@CMFCEditView@@QEAAXXZ 000000014001c761     MFCEditView.obj
 0002:00006761       $stateUnwindMap$?OnInitialUpdate@CMFCEditView@@MEAAXXZ 000000014001c761     MFCEditView.obj
 0002:0000676e       $ip2state$?OnInitialUpdate@CMFCEditView@@MEAAXXZ 000000014001c76e     MFCEditView.obj
 0002:0000677c       $unwind$?SetFont@CMFCEditView@@QEAAXH@Z 000000014001c77c     MFCEditView.obj
 0002:0000679c       $cppxdata$?SetFont@CMFCEditView@@QEAAXH@Z 000000014001c79c     MFCEditView.obj
 0002:000067a5       $stateUnwindMap$?SetFont@CMFCEditView@@QEAAXH@Z 000000014001c7a5     MFCEditView.obj
 0002:000067ac       $ip2state$?SetFont@CMFCEditView@@QEAAXH@Z 000000014001c7ac     MFCEditView.obj
 0002:000067b8       $unwind$?inetGet@CVARIANTTool@@IEAA?AUtagVARIANT@@U2@@Z 000000014001c7b8     MFCEditView.obj
 0002:000067e8       $cppxdata$?inetGet@CVARIANTTool@@IEAA?AUtagVARIANT@@U2@@Z 000000014001c7e8     MFCEditView.obj
 0002:000067f1       $stateUnwindMap$?inetGet@CVARIANTTool@@IEAA?AUtagVARIANT@@U2@@Z 000000014001c7f1     MFCEditView.obj
 0002:0000689f       $ip2state$?inetGet@CVARIANTTool@@IEAA?AUtagVARIANT@@U2@@Z 000000014001c89f     MFCEditView.obj
 0002:000068f0       $unwind$?Value@CVARIANTTool@@IEAA?AUtagVARIANT@@U2@0@Z 000000014001c8f0     MFCEditView.obj
 0002:00006918       $cppxdata$?Value@CVARIANTTool@@IEAA?AUtagVARIANT@@U2@0@Z 000000014001c918     MFCEditView.obj
 0002:00006921       $stateUnwindMap$?Value@CVARIANTTool@@IEAA?AUtagVARIANT@@U2@0@Z 000000014001c921     MFCEditView.obj
 0002:00006969       $ip2state$?Value@CVARIANTTool@@IEAA?AUtagVARIANT@@U2@0@Z 000000014001c969     MFCEditView.obj
 0002:000069a0       $unwind$?OpenTextFile@CVARIANTTool@@IEAA?AUtagVARIANT@@U2@@Z 000000014001c9a0     MFCEditView.obj
 0002:000069c8       $cppxdata$?OpenTextFile@CVARIANTTool@@IEAA?AUtagVARIANT@@U2@@Z 000000014001c9c8     MFCEditView.obj
 0002:000069d1       $stateUnwindMap$?OpenTextFile@CVARIANTTool@@IEAA?AUtagVARIANT@@U2@@Z 000000014001c9d1     MFCEditView.obj
 0002:000069fb       $ip2state$?OpenTextFile@CVARIANTTool@@IEAA?AUtagVARIANT@@U2@@Z 000000014001c9fb     MFCEditView.obj
 0002:00006a14       $unwind$?Invoke@CVARIANTTool@@UEAA?AUtagVARIANT@@V?$basic_string@_WU?$char_traits@_W@std@@V?$allocator@_W@2@@std@@PEAU2@H@Z 000000014001ca14     MFCEditView.obj
 0002:00006a30       $cppxdata$?Invoke@CVARIANTTool@@UEAA?AUtagVARIANT@@V?$basic_string@_WU?$char_traits@_W@std@@V?$allocator@_W@2@@std@@PEAU2@H@Z 000000014001ca30     MFCEditView.obj
 0002:00006a39       $stateUnwindMap$?Invoke@CVARIANTTool@@UEAA?AUtagVARIANT@@V?$basic_string@_WU?$char_traits@_W@std@@V?$allocator@_W@2@@std@@PEAU2@H@Z 000000014001ca39     MFCEditView.obj
 0002:00006a39       $stateUnwindMap$?Invoke@IVARIANTApplication@@UEAA?AUtagVARIANT@@V?$basic_string@_WU?$char_traits@_W@std@@V?$allocator@_W@2@@std@@PEAU2@H@Z 000000014001ca39     MFCEditView.obj
 0002:00006a40       $ip2state$?Invoke@CVARIANTTool@@UEAA?AUtagVARIANT@@V?$basic_string@_WU?$char_traits@_W@std@@V?$allocator@_W@2@@std@@PEAU2@H@Z 000000014001ca40     MFCEditView.obj
 0002:00006a48       $unwind$??1?$CComPtr@UIXMLHTTPRequest@@@ATL@@QEAA@XZ 000000014001ca48     MFCEditView.obj
 0002:00006a58       $cppxdata$??1?$CComPtr@UIXMLHTTPRequest@@@ATL@@QEAA@XZ 000000014001ca58     MFCEditView.obj
 0002:00006a5d       $ip2state$??1?$CComPtr@UIXMLHTTPRequest@@@ATL@@QEAA@XZ 000000014001ca5d     MFCEditView.obj
 0002:00006a60       $unwind$?Test@IVARIANTApplication@@QEAA?AUtagVARIANT@@U2@@Z 000000014001ca60     MFCEditView.obj
 0002:00006a84       $cppxdata$?Test@IVARIANTApplication@@QEAA?AUtagVARIANT@@U2@@Z 000000014001ca84     MFCEditView.obj
 0002:00006a8d       $stateUnwindMap$?Test@IVARIANTApplication@@QEAA?AUtagVARIANT@@U2@@Z 000000014001ca8d     MFCEditView.obj
 0002:00006aa0       $ip2state$?Test@IVARIANTApplication@@QEAA?AUtagVARIANT@@U2@@Z 000000014001caa0     MFCEditView.obj
 0002:00006ab4       $unwind$?Invoke@IVARIANTApplication@@UEAA?AUtagVARIANT@@V?$basic_string@_WU?$char_traits@_W@std@@V?$allocator@_W@2@@std@@PEAU2@H@Z 000000014001cab4     MFCEditView.obj
 0002:00006acc       $cppxdata$?Invoke@IVARIANTApplication@@UEAA?AUtagVARIANT@@V?$basic_string@_WU?$char_traits@_W@std@@V?$allocator@_W@2@@std@@PEAU2@H@Z 000000014001cacc     MFCEditView.obj
 0002:00006ad5       $ip2state$?Invoke@IVARIANTApplication@@UEAA?AUtagVARIANT@@V?$basic_string@_WU?$char_traits@_W@std@@V?$allocator@_W@2@@std@@PEAU2@H@Z 000000014001cad5     MFCEditView.obj
 0002:00006ae0       $unwind$?OnBnClickedBtnRun@CMFCEditView@@QEAAXXZ 000000014001cae0     MFCEditView.obj
 0002:00006b08       $cppxdata$?OnBnClickedBtnRun@CMFCEditView@@QEAAXXZ 000000014001cb08     MFCEditView.obj
 0002:00006b15       $stateUnwindMap$?OnBnClickedBtnRun@CMFCEditView@@QEAAXXZ 000000014001cb15     MFCEditView.obj
 0002:00006b4f       $tryMap$?OnBnClickedBtnRun@CMFCEditView@@QEAAXXZ 000000014001cb4f     MFCEditView.obj
 0002:00006b57       $handlerMap$?OnBnClickedBtnRun@CMFCEditView@@QEAAXXZ 000000014001cb57     MFCEditView.obj
 0002:00006b65       $ip2state$?OnBnClickedBtnRun@CMFCEditView@@QEAAXXZ 000000014001cb65     MFCEditView.obj
 0002:00006b84       $unwind$?catch$26@?0??OnBnClickedBtnRun@CMFCEditView@@QEAAXXZ@4HA 000000014001cb84     MFCEditView.obj
 0002:00006b98       $cppxdata$?catch$26@?0??OnBnClickedBtnRun@CMFCEditView@@QEAAXXZ@4HA 000000014001cb98     MFCEditView.obj
 0002:00006ba2       $stateUnwindMap$?catch$26@?0??OnBnClickedBtnRun@CMFCEditView@@QEAAXXZ@4HA 000000014001cba2     MFCEditView.obj
 0002:00006bab       $ip2state$?catch$26@?0??OnBnClickedBtnRun@CMFCEditView@@QEAAXXZ@4HA 000000014001cbab     MFCEditView.obj
 0002:00006bb0       $unwind$?OnBnClickedBtnSave@CMFCEditView@@QEAAXXZ 000000014001cbb0     MFCEditView.obj
 0002:00006bc4       $cppxdata$?OnBnClickedBtnSave@CMFCEditView@@QEAAXXZ 000000014001cbc4     MFCEditView.obj
 0002:00006bcd       $stateUnwindMap$?OnBnClickedBtnSave@CMFCEditView@@QEAAXXZ 000000014001cbcd     MFCEditView.obj
 0002:00006be0       $ip2state$?OnBnClickedBtnSave@CMFCEditView@@QEAAXXZ 000000014001cbe0     MFCEditView.obj
 0002:00006bf0       $unwind$?OnSelchangeCombo1@CMFCEditView@@QEAAXXZ 000000014001cbf0     MFCEditView.obj
 0002:00006c18       $cppxdata$?OnSelchangeCombo1@CMFCEditView@@QEAAXXZ 000000014001cc18     MFCEditView.obj
 0002:00006c21       $stateUnwindMap$?OnSelchangeCombo1@CMFCEditView@@QEAAXXZ 000000014001cc21     MFCEditView.obj
 0002:00006c3a       $ip2state$?OnSelchangeCombo1@CMFCEditView@@QEAAXXZ 000000014001cc3a     MFCEditView.obj
 0002:00006c50       $unwind$?OnBnClickedBtnClear@CMFCEditView@@QEAAXXZ 000000014001cc50     MFCEditView.obj
 0002:00006c64       $unwind$?OnDestroy@CMFCEditView@@QEAAXXZ 000000014001cc64     MFCEditView.obj
 0002:00006c78       $cppxdata$?OnDestroy@CMFCEditView@@QEAAXXZ 000000014001cc78     MFCEditView.obj
 0002:00006c81       $ip2state$?OnDestroy@CMFCEditView@@QEAAXXZ 000000014001cc81     MFCEditView.obj
 0002:00006c90       $unwind$?OnSelchangeCmbFont@CMFCEditView@@QEAAXXZ 000000014001cc90     MFCEditView.obj
 0002:00006cb4       $cppxdata$?OnSelchangeCmbFont@CMFCEditView@@QEAAXXZ 000000014001ccb4     MFCEditView.obj
 0002:00006cbd       $stateUnwindMap$?OnSelchangeCmbFont@CMFCEditView@@QEAAXXZ 000000014001ccbd     MFCEditView.obj
 0002:00006cca       $ip2state$?OnSelchangeCmbFont@CMFCEditView@@QEAAXXZ 000000014001ccca     MFCEditView.obj
 0002:00006cd4       $unwind$?OnSetfocusEdInput@CMFCEditView@@QEAAXXZ 000000014001ccd4     MFCEditView.obj
 0002:00006cec       $cppxdata$?OnSetfocusEdInput@CMFCEditView@@QEAAXXZ 000000014001ccec     MFCEditView.obj
 0002:00006cf5       $ip2state$?OnSetfocusEdInput@CMFCEditView@@QEAAXXZ 000000014001ccf5     MFCEditView.obj
 0002:00006cfc       $unwind$?WriteUtf8File@@YA_NAEBV?$CStringT@_WV?$StrTraitMFC_DLL@_WV?$ChTraitsCRT@_W@ATL@@@@@ATL@@0@Z 000000014001ccfc     MFCEditView.obj
 0002:00006d20       $cppxdata$?WriteUtf8File@@YA_NAEBV?$CStringT@_WV?$StrTraitMFC_DLL@_WV?$ChTraitsCRT@_W@ATL@@@@@ATL@@0@Z 000000014001cd20     MFCEditView.obj
 0002:00006d29       $stateUnwindMap$?WriteUtf8File@@YA_NAEBV?$CStringT@_WV?$StrTraitMFC_DLL@_WV?$ChTraitsCRT@_W@ATL@@@@@ATL@@0@Z 000000014001cd29     MFCEditView.obj
 0002:00006d30       $ip2state$?WriteUtf8File@@YA_NAEBV?$CStringT@_WV?$StrTraitMFC_DLL@_WV?$ChTraitsCRT@_W@ATL@@@@@ATL@@0@Z 000000014001cd30     MFCEditView.obj
 0002:00006d3c       $unwind$?Split@@YA?AV?$vector@V?$basic_string@_WU?$char_traits@_W@std@@V?$allocator@_W@2@@std@@V?$allocator@V?$basic_string@_WU?$char_traits@_W@std@@V?$allocator@_W@2@@std@@@2@@std@@V?$basic_string@_WU?$char_traits@_W@std@@V?$allocator@_W@2@@2@0@Z 000000014001cd3c     MFCEditView.obj
 0002:00006d60       $cppxdata$?Split@@YA?AV?$vector@V?$basic_string@_WU?$char_traits@_W@std@@V?$allocator@_W@2@@std@@V?$allocator@V?$basic_string@_WU?$char_traits@_W@std@@V?$allocator@_W@2@@std@@@2@@std@@V?$basic_string@_WU?$char_traits@_W@std@@V?$allocator@_W@2@@2@0@Z 000000014001cd60     MFCEditView.obj
 0002:00006d69       $stateUnwindMap$?Split@@YA?AV?$vector@V?$basic_string@_WU?$char_traits@_W@std@@V?$allocator@_W@2@@std@@V?$allocator@V?$basic_string@_WU?$char_traits@_W@std@@V?$allocator@_W@2@@std@@@2@@std@@V?$basic_string@_WU?$char_traits@_W@std@@V?$allocator@_W@2@@2@0@Z 000000014001cd69     MFCEditView.obj
 0002:00006d9d       $ip2state$?Split@@YA?AV?$vector@V?$basic_string@_WU?$char_traits@_W@std@@V?$allocator@_W@2@@std@@V?$allocator@V?$basic_string@_WU?$char_traits@_W@std@@V?$allocator@_W@2@@std@@@2@@std@@V?$basic_string@_WU?$char_traits@_W@std@@V?$allocator@_W@2@@2@0@Z 000000014001cd9d     MFCEditView.obj
 0002:00006db0       $unwind$?getUnixTime@@YA_JH@Z 000000014001cdb0     MFCEditView.obj
 0002:00006dc0       $unwind$?inetStockData_YahooFinanceUri@@YA?AV?$basic_string@_WU?$char_traits@_W@std@@V?$allocator@_W@2@@std@@V12@H@Z 000000014001cdc0     MFCEditView.obj
 0002:00006de8       $cppxdata$?inetStockData_YahooFinanceUri@@YA?AV?$basic_string@_WU?$char_traits@_W@std@@V?$allocator@_W@2@@std@@V12@H@Z 000000014001cde8     MFCEditView.obj
 0002:00006df1       $stateUnwindMap$?inetStockData_YahooFinanceUri@@YA?AV?$basic_string@_WU?$char_traits@_W@std@@V?$allocator@_W@2@@std@@V12@H@Z 000000014001cdf1     MFCEditView.obj
 0002:00006e0d       $ip2state$?inetStockData_YahooFinanceUri@@YA?AV?$basic_string@_WU?$char_traits@_W@std@@V?$allocator@_W@2@@std@@V12@H@Z 000000014001ce0d     MFCEditView.obj
 0002:00006e20       $unwind$??0?$regex_token_iterator@V?$_String_const_iterator@V?$_String_val@U?$_Simple_types@_W@std@@@std@@@std@@_WV?$regex_traits@_W@2@@std@@QEAA@V?$_String_const_iterator@V?$_String_val@U?$_Simple_types@_W@std@@@std@@@1@0AEBV?$basic_regex@_WV?$regex_traits@_W@std@@@1@HW4match_flag_type@regex_constants@1@@Z 000000014001ce20     MFCEditView.obj
 0002:00006e44       $cppxdata$??0?$regex_token_iterator@V?$_String_const_iterator@V?$_String_val@U?$_Simple_types@_W@std@@@std@@@std@@_WV?$regex_traits@_W@2@@std@@QEAA@V?$_String_const_iterator@V?$_String_val@U?$_Simple_types@_W@std@@@std@@@1@0AEBV?$basic_regex@_WV?$regex_traits@_W@std@@@1@HW4match_flag_type@regex_constants@1@@Z 000000014001ce44     MFCEditView.obj
 0002:00006e4d       $stateUnwindMap$??0?$regex_token_iterator@V?$_String_const_iterator@V?$_String_val@U?$_Simple_types@_W@std@@@std@@@std@@_WV?$regex_traits@_W@2@@std@@QEAA@V?$_String_const_iterator@V?$_String_val@U?$_Simple_types@_W@std@@@std@@@1@0AEBV?$basic_regex@_WV?$regex_traits@_W@std@@@1@HW4match_flag_type@regex_constants@1@@Z 000000014001ce4d     MFCEditView.obj
 0002:00006e59       $ip2state$??0?$regex_token_iterator@V?$_String_const_iterator@V?$_String_val@U?$_Simple_types@_W@std@@@std@@@std@@_WV?$regex_traits@_W@2@@std@@QEAA@V?$_String_const_iterator@V?$_String_val@U?$_Simple_types@_W@std@@@std@@@1@0AEBV?$basic_regex@_WV?$regex_traits@_W@std@@@1@HW4match_flag_type@regex_constants@1@@Z 000000014001ce59     MFCEditView.obj
 0002:00006e60       $chain$1$??1?$basic_regex@_WV?$regex_traits@_W@std@@@std@@QEAA@XZ 000000014001ce60     MFCEditView.obj
 0002:00006e78       $chain$2$??1?$basic_regex@_WV?$regex_traits@_W@std@@@std@@QEAA@XZ 000000014001ce78     MFCEditView.obj
 0002:00006e8c       $chain$3$??1?$basic_regex@_WV?$regex_traits@_W@std@@@std@@QEAA@XZ 000000014001ce8c     MFCEditView.obj
 0002:00006e9c       $chain$4$??1?$basic_regex@_WV?$regex_traits@_W@std@@@std@@QEAA@XZ 000000014001ce9c     MFCEditView.obj
 0002:00006eac       $unwind$??1?$vector@V_variant_t@@V?$allocator@V_variant_t@@@std@@@std@@QEAA@XZ 000000014001ceac     MFCEditView.obj
 0002:00006eb8       $chain$0$??1?$vector@V_variant_t@@V?$allocator@V_variant_t@@@std@@@std@@QEAA@XZ 000000014001ceb8     MFCEditView.obj
 0002:00006ecc       $chain$1$??1?$vector@V_variant_t@@V?$allocator@V_variant_t@@@std@@@std@@QEAA@XZ 000000014001cecc     MFCEditView.obj
 0002:00006edc       $unwind$?seekpos@?$basic_stringbuf@DU?$char_traits@D@std@@V?$allocator@D@2@@std@@MEAA?AV?$fpos@U_Mbstatet@@@2@V32@H@Z 000000014001cedc     MFCEditView.obj
 0002:00006ef0       $unwind$?seekoff@?$basic_stringbuf@DU?$char_traits@D@std@@V?$allocator@D@2@@std@@MEAA?AV?$fpos@U_Mbstatet@@@2@_JHH@Z 000000014001cef0     MFCEditView.obj
 0002:00006f04       $unwind$?underflow@?$basic_stringbuf@DU?$char_traits@D@std@@V?$allocator@D@2@@std@@MEAAHXZ 000000014001cf04     MFCEditView.obj
 0002:00006f04       $unwind$?underflow@?$basic_stringbuf@_WU?$char_traits@_W@std@@V?$allocator@_W@2@@std@@MEAAGXZ 000000014001cf04     MFCEditView.obj
 0002:00006f0c       $unwind$?overflow@?$basic_stringbuf@DU?$char_traits@D@std@@V?$allocator@D@2@@std@@MEAAHH@Z 000000014001cf0c     MFCEditView.obj
 0002:00006f24       $unwind$??1?$deque@V?$shared_ptr@Ust@?1??Value@CVARIANTTool@@IEAA?AUtagVARIANT@@U4@0@Z@@std@@V?$allocator@V?$shared_ptr@Ust@?1??Value@CVARIANTTool@@IEAA?AUtagVARIANT@@U4@0@Z@@std@@@2@@std@@QEAA@XZ 000000014001cf24     MFCEditView.obj
 0002:00006f34       $chain$0$??1?$shared_ptr@Ust@?1??Value@CVARIANTTool@@IEAA?AUtagVARIANT@@U4@0@Z@@std@@QEAA@XZ 000000014001cf34     MFCEditView.obj
 0002:00006f48       $chain$1$??1?$shared_ptr@Ust@?1??Value@CVARIANTTool@@IEAA?AUtagVARIANT@@U4@0@Z@@std@@QEAA@XZ 000000014001cf48     MFCEditView.obj
 0002:00006f58       $unwind$?seekpos@?$basic_stringbuf@_WU?$char_traits@_W@std@@V?$allocator@_W@2@@std@@MEAA?AV?$fpos@U_Mbstatet@@@2@V32@H@Z 000000014001cf58     MFCEditView.obj
 0002:00006f68       $chain$2$?seekpos@?$basic_stringbuf@_WU?$char_traits@_W@std@@V?$allocator@_W@2@@std@@MEAA?AV?$fpos@U_Mbstatet@@@2@V32@H@Z 000000014001cf68     MFCEditView.obj
 0002:00006f7c       $chain$3$?seekpos@?$basic_stringbuf@_WU?$char_traits@_W@std@@V?$allocator@_W@2@@std@@MEAA?AV?$fpos@U_Mbstatet@@@2@V32@H@Z 000000014001cf7c     MFCEditView.obj
 0002:00006f8c       $unwind$?seekoff@?$basic_stringbuf@_WU?$char_traits@_W@std@@V?$allocator@_W@2@@std@@MEAA?AV?$fpos@U_Mbstatet@@@2@_JHH@Z 000000014001cf8c     MFCEditView.obj
 0002:00006fa0       $unwind$?overflow@?$basic_stringbuf@_WU?$char_traits@_W@std@@V?$allocator@_W@2@@std@@MEAAGG@Z 000000014001cfa0     MFCEditView.obj
 0002:00006fb8       $unwind$?do_transform@?$collate@_W@std@@MEBA?AV?$basic_string@_WU?$char_traits@_W@std@@V?$allocator@_W@2@@2@PEB_W0@Z 000000014001cfb8     MFCEditView.obj
 0002:00006fd4       $cppxdata$?do_transform@?$collate@_W@std@@MEBA?AV?$basic_string@_WU?$char_traits@_W@std@@V?$allocator@_W@2@@2@PEB_W0@Z 000000014001cfd4     MFCEditView.obj
 0002:00006fdd       $stateUnwindMap$?do_transform@?$collate@_W@std@@MEBA?AV?$basic_string@_WU?$char_traits@_W@std@@V?$allocator@_W@2@@2@PEB_W0@Z 000000014001cfdd     MFCEditView.obj
 0002:00006fe3       $ip2state$?do_transform@?$collate@_W@std@@MEBA?AV?$basic_string@_WU?$char_traits@_W@std@@V?$allocator@_W@2@@2@PEB_W0@Z 000000014001cfe3     MFCEditView.obj
 0002:00006fe8       $unwind$?_AtomEscape@?$_Parser@PEB_W_WV?$regex_traits@_W@std@@@std@@AEAAXXZ 000000014001cfe8     MFCEditView.obj
 0002:00006fe8       $unwind$?_ClassRanges@?$_Parser@PEB_W_WV?$regex_traits@_W@std@@@std@@AEAAXXZ 000000014001cfe8     MFCEditView.obj
 0002:00006fe8       $unwind$?do_compare@?$collate@_W@std@@MEBAHPEB_W000@Z 000000014001cfe8     MFCEditView.obj
 0002:00006ff0       $unwind$??0?$basic_string@_WU?$char_traits@_W@std@@V?$allocator@_W@2@@std@@QEAA@AEBV01@@Z 000000014001cff0     MFCEditView.obj
 0002:00007000       $unwind$??1sentry@?$basic_ostream@DU?$char_traits@D@std@@@std@@QEAA@XZ 000000014001d000     MFCEditView.obj
 0002:00007000       $unwind$??1sentry@?$basic_ostream@_WU?$char_traits@_W@std@@@std@@QEAA@XZ 000000014001d000     MFCEditView.obj
 0002:00007010       $cppxdata$??1sentry@?$basic_ostream@DU?$char_traits@D@std@@@std@@QEAA@XZ 000000014001d010     MFCEditView.obj
 0002:00007010       $cppxdata$??1sentry@?$basic_ostream@_WU?$char_traits@_W@std@@@std@@QEAA@XZ 000000014001d010     MFCEditView.obj
 0002:00007019       $ip2state$??1sentry@?$basic_ostream@DU?$char_traits@D@std@@@std@@QEAA@XZ 000000014001d019     MFCEditView.obj
 0002:00007019       $ip2state$??1sentry@?$basic_ostream@_WU?$char_traits@_W@std@@@std@@QEAA@XZ 000000014001d019     MFCEditView.obj
 0002:0000701c       $unwind$??E?$regex_token_iterator@V?$_String_const_iterator@V?$_String_val@U?$_Simple_types@_W@std@@@std@@@std@@_WV?$regex_traits@_W@2@@std@@QEAAAEAV01@XZ 000000014001d01c     MFCEditView.obj
 0002:00007040       $cppxdata$??E?$regex_token_iterator@V?$_String_const_iterator@V?$_String_val@U?$_Simple_types@_W@std@@@std@@@std@@_WV?$regex_traits@_W@2@@std@@QEAAAEAV01@XZ 000000014001d040     MFCEditView.obj
 0002:00007049       $stateUnwindMap$??E?$regex_token_iterator@V?$_String_const_iterator@V?$_String_val@U?$_Simple_types@_W@std@@@std@@@std@@_WV?$regex_traits@_W@2@@std@@QEAAAEAV01@XZ 000000014001d049     MFCEditView.obj
 0002:00007050       $ip2state$??E?$regex_token_iterator@V?$_String_const_iterator@V?$_String_val@U?$_Simple_types@_W@std@@@std@@@std@@_WV?$regex_traits@_W@2@@std@@QEAAAEAV01@XZ 000000014001d050     MFCEditView.obj
 0002:0000705c       $unwind$??8?$regex_token_iterator@V?$_String_const_iterator@V?$_String_val@U?$_Simple_types@_W@std@@@std@@@std@@_WV?$regex_traits@_W@2@@std@@QEBA_NAEBV01@@Z 000000014001d05c     MFCEditView.obj
 0002:00007068       $unwind$??0?$regex_token_iterator@V?$_String_const_iterator@V?$_String_val@U?$_Simple_types@_W@std@@@std@@@std@@_WV?$regex_traits@_W@2@@std@@QEAA@AEBV01@@Z 000000014001d068     MFCEditView.obj
 0002:00007088       $cppxdata$??0?$regex_token_iterator@V?$_String_const_iterator@V?$_String_val@U?$_Simple_types@_W@std@@@std@@@std@@_WV?$regex_traits@_W@2@@std@@QEAA@AEBV01@@Z 000000014001d088     MFCEditView.obj
 0002:00007091       $stateUnwindMap$??0?$regex_token_iterator@V?$_String_const_iterator@V?$_String_val@U?$_Simple_types@_W@std@@@std@@@std@@_WV?$regex_traits@_W@2@@std@@QEAA@AEBV01@@Z 000000014001d091     MFCEditView.obj
 0002:00007098       $ip2state$??0?$regex_token_iterator@V?$_String_const_iterator@V?$_String_val@U?$_Simple_types@_W@std@@@std@@@std@@_WV?$regex_traits@_W@2@@std@@QEAA@AEBV01@@Z 000000014001d098     MFCEditView.obj
 0002:000070a0       $unwind$?_Tidy@?$basic_regex@_WV?$regex_traits@_W@std@@@std@@AEAAXXZ 000000014001d0a0     MFCEditView.obj
 0002:000070ac       $chain$0$?_Tidy@?$basic_regex@_WV?$regex_traits@_W@std@@@std@@AEAAXXZ 000000014001d0ac     MFCEditView.obj
 0002:000070c0       $chain$1$?_Tidy@?$basic_regex@_WV?$regex_traits@_W@std@@@std@@AEAAXXZ 000000014001d0c0     MFCEditView.obj
 0002:000070d0       $unwind$??0?$regex_iterator@V?$_String_const_iterator@V?$_String_val@U?$_Simple_types@_W@std@@@std@@@std@@_WV?$regex_traits@_W@2@@std@@QEAA@AEBV01@@Z 000000014001d0d0     MFCEditView.obj
 0002:000070e0       $chain$0$??0?$regex_iterator@V?$_String_const_iterator@V?$_String_val@U?$_Simple_types@_W@std@@@std@@@std@@_WV?$regex_traits@_W@2@@std@@QEAA@AEBV01@@Z 000000014001d0e0     MFCEditView.obj
 0002:000070f4       $chain$1$??0?$regex_iterator@V?$_String_const_iterator@V?$_String_val@U?$_Simple_types@_W@std@@@std@@@std@@_WV?$regex_traits@_W@2@@std@@QEAA@AEBV01@@Z 000000014001d0f4     MFCEditView.obj
 0002:00007104       $unwind$??1_Sentry_base@?$basic_ostream@DU?$char_traits@D@std@@@std@@QEAA@XZ 000000014001d104     MFCEditView.obj
 0002:00007104       $unwind$??1_Sentry_base@?$basic_ostream@_WU?$char_traits@_W@std@@@std@@QEAA@XZ 000000014001d104     MFCEditView.obj
 0002:00007114       $cppxdata$??1_Sentry_base@?$basic_ostream@DU?$char_traits@D@std@@@std@@QEAA@XZ 000000014001d114     MFCEditView.obj
 0002:00007114       $cppxdata$??1_Sentry_base@?$basic_ostream@_WU?$char_traits@_W@std@@@std@@QEAA@XZ 000000014001d114     MFCEditView.obj
 0002:00007119       $ip2state$??1_Sentry_base@?$basic_ostream@DU?$char_traits@D@std@@@std@@QEAA@XZ 000000014001d119     MFCEditView.obj
 0002:00007119       $ip2state$??1_Sentry_base@?$basic_ostream@_WU?$char_traits@_W@std@@@std@@QEAA@XZ 000000014001d119     MFCEditView.obj
 0002:0000711c       $unwind$?assign@?$basic_string@DU?$char_traits@D@std@@V?$allocator@D@2@@std@@QEAAAEAV12@QEBD_K@Z 000000014001d11c     MFCEditView.obj
 0002:0000712c       $chain$0$?assign@?$basic_string@DU?$char_traits@D@std@@V?$allocator@D@2@@std@@QEAAAEAV12@QEBD_K@Z 000000014001d12c     MFCEditView.obj
 0002:00007140       $chain$2$?assign@?$basic_string@DU?$char_traits@D@std@@V?$allocator@D@2@@std@@QEAAAEAV12@QEBD_K@Z 000000014001d140     MFCEditView.obj
 0002:00007140       $chain$4$?assign@?$basic_string@DU?$char_traits@D@std@@V?$allocator@D@2@@std@@QEAAAEAV12@QEBD_K@Z 000000014001d140     MFCEditView.obj
 0002:00007154       $chain$3$?assign@?$basic_string@DU?$char_traits@D@std@@V?$allocator@D@2@@std@@QEAAAEAV12@QEBD_K@Z 000000014001d154     MFCEditView.obj
 0002:00007164       $unwind$??$?6_WU?$char_traits@_W@std@@@std@@YAAEAV?$basic_ostream@_WU?$char_traits@_W@std@@@0@AEAV10@PEB_W@Z 000000014001d164     MFCEditView.obj
 0002:00007184       $cppxdata$??$?6_WU?$char_traits@_W@std@@@std@@YAAEAV?$basic_ostream@_WU?$char_traits@_W@std@@@0@AEAV10@PEB_W@Z 000000014001d184     MFCEditView.obj
 0002:00007191       $stateUnwindMap$??$?6_WU?$char_traits@_W@std@@@std@@YAAEAV?$basic_ostream@_WU?$char_traits@_W@std@@@0@AEAV10@PEB_W@Z 000000014001d191     MFCEditView.obj
 0002:00007191       $stateUnwindMap$??$?6_WU?$char_traits@_W@std@@@std@@YAAEAV?$basic_ostream@_WU?$char_traits@_W@std@@@0@AEAV10@_W@Z 000000014001d191     MFCEditView.obj
 0002:00007191       $stateUnwindMap$??$_Insert_string@_WU?$char_traits@_W@std@@_K@std@@YAAEAV?$basic_ostream@_WU?$char_traits@_W@std@@@0@AEAV10@QEB_W_K@Z 000000014001d191     MFCEditView.obj
 0002:000071a5       $tryMap$??$?6_WU?$char_traits@_W@std@@@std@@YAAEAV?$basic_ostream@_WU?$char_traits@_W@std@@@0@AEAV10@PEB_W@Z 000000014001d1a5     MFCEditView.obj
 0002:000071ad       $handlerMap$??$?6_WU?$char_traits@_W@std@@@std@@YAAEAV?$basic_ostream@_WU?$char_traits@_W@std@@@0@AEAV10@PEB_W@Z 000000014001d1ad     MFCEditView.obj
 0002:000071b6       $ip2state$??$?6_WU?$char_traits@_W@std@@@std@@YAAEAV?$basic_ostream@_WU?$char_traits@_W@std@@@0@AEAV10@PEB_W@Z 000000014001d1b6     MFCEditView.obj
 0002:000071c4       $unwind$??$?6_WU?$char_traits@_W@std@@@std@@YAAEAV?$basic_ostream@_WU?$char_traits@_W@std@@@0@AEAV10@_W@Z 000000014001d1c4     MFCEditView.obj
 0002:000071e4       $cppxdata$??$?6_WU?$char_traits@_W@std@@@std@@YAAEAV?$basic_ostream@_WU?$char_traits@_W@std@@@0@AEAV10@_W@Z 000000014001d1e4     MFCEditView.obj
 0002:000071f1       $tryMap$??$?6_WU?$char_traits@_W@std@@@std@@YAAEAV?$basic_ostream@_WU?$char_traits@_W@std@@@0@AEAV10@_W@Z 000000014001d1f1     MFCEditView.obj
 0002:000071f9       $handlerMap$??$?6_WU?$char_traits@_W@std@@@std@@YAAEAV?$basic_ostream@_WU?$char_traits@_W@std@@@0@AEAV10@_W@Z 000000014001d1f9     MFCEditView.obj
 0002:00007202       $ip2state$??$?6_WU?$char_traits@_W@std@@@std@@YAAEAV?$basic_ostream@_WU?$char_traits@_W@std@@@0@AEAV10@_W@Z 000000014001d202     MFCEditView.obj
 0002:00007210       $unwind$??$?6U?$char_traits@D@std@@@std@@YAAEAV?$basic_ostream@DU?$char_traits@D@std@@@0@AEAV10@PEBD@Z 000000014001d210     MFCEditView.obj
 0002:0000722c       $cppxdata$??$?6U?$char_traits@D@std@@@std@@YAAEAV?$basic_ostream@DU?$char_traits@D@std@@@0@AEAV10@PEBD@Z 000000014001d22c     MFCEditView.obj
 0002:00007239       $stateUnwindMap$??$?6U?$char_traits@D@std@@@std@@YAAEAV?$basic_ostream@DU?$char_traits@D@std@@@0@AEAV10@PEBD@Z 000000014001d239     MFCEditView.obj
 0002:0000724d       $tryMap$??$?6U?$char_traits@D@std@@@std@@YAAEAV?$basic_ostream@DU?$char_traits@D@std@@@0@AEAV10@PEBD@Z 000000014001d24d     MFCEditView.obj
 0002:00007255       $handlerMap$??$?6U?$char_traits@D@std@@@std@@YAAEAV?$basic_ostream@DU?$char_traits@D@std@@@0@AEAV10@PEBD@Z 000000014001d255     MFCEditView.obj
 0002:0000725e       $ip2state$??$?6U?$char_traits@D@std@@@std@@YAAEAV?$basic_ostream@DU?$char_traits@D@std@@@0@AEAV10@PEBD@Z 000000014001d25e     MFCEditView.obj
 0002:0000726c       $unwind$??$?0U?$char_traits@_W@std@@V?$allocator@_W@1@@?$basic_regex@_WV?$regex_traits@_W@std@@@std@@QEAA@AEBV?$basic_string@_WU?$char_traits@_W@std@@V?$allocator@_W@2@@1@W4syntax_option_type@regex_constants@1@@Z 000000014001d26c     MFCEditView.obj
 0002:00007298       $cppxdata$??$?0U?$char_traits@_W@std@@V?$allocator@_W@1@@?$basic_regex@_WV?$regex_traits@_W@std@@@std@@QEAA@AEBV?$basic_string@_WU?$char_traits@_W@std@@V?$allocator@_W@2@@1@W4syntax_option_type@regex_constants@1@@Z 000000014001d298     MFCEditView.obj
 0002:000072a1       $stateUnwindMap$??$?0U?$char_traits@_W@std@@V?$allocator@_W@1@@?$basic_regex@_WV?$regex_traits@_W@std@@@std@@QEAA@AEBV?$basic_string@_WU?$char_traits@_W@std@@V?$allocator@_W@2@@1@W4syntax_option_type@regex_constants@1@@Z 000000014001d2a1     MFCEditView.obj
 0002:000072ce       $ip2state$??$?0U?$char_traits@_W@std@@V?$allocator@_W@1@@?$basic_regex@_WV?$regex_traits@_W@std@@@std@@QEAA@AEBV?$basic_string@_WU?$char_traits@_W@std@@V?$allocator@_W@2@@1@W4syntax_option_type@regex_constants@1@@Z 000000014001d2ce     MFCEditView.obj
 0002:000072e4       $unwind$??$_Regex_search2@V?$_String_const_iterator@V?$_String_val@U?$_Simple_types@_W@std@@@std@@@std@@V?$allocator@V?$sub_match@V?$_String_const_iterator@V?$_String_val@U?$_Simple_types@_W@std@@@std@@@std@@@std@@@2@_WV?$regex_traits@_W@2@V12@@std@@YA_NV?$_String_const_iterator@V?$_String_val@U?$_Simple_types@_W@std@@@std@@@0@0PEAV?$match_results@V?$_String_const_iterator@V?$_String_val@U?$_Simple_types@_W@std@@@std@@@std@@V?$allocator@V?$sub_match@V?$_String_const_iterator@V?$_String_val@U?$_Simple_types@_W@std@@@std@@@std@@@std@@@2@@0@AEBV?$basic_regex@_WV?$regex_traits@_W@std@@@0@W4match_flag_type@regex_constants@0@0@Z 000000014001d2e4     MFCEditView.obj
 0002:0000730c       $cppxdata$??$_Regex_search2@V?$_String_const_iterator@V?$_String_val@U?$_Simple_types@_W@std@@@std@@@std@@V?$allocator@V?$sub_match@V?$_String_const_iterator@V?$_String_val@U?$_Simple_types@_W@std@@@std@@@std@@@std@@@2@_WV?$regex_traits@_W@2@V12@@std@@YA_NV?$_String_const_iterator@V?$_String_val@U?$_Simple_types@_W@std@@@std@@@0@0PEAV?$match_results@V?$_String_const_iterator@V?$_String_val@U?$_Simple_types@_W@std@@@std@@@std@@V?$allocator@V?$sub_match@V?$_String_const_iterator@V?$_String_val@U?$_Simple_types@_W@std@@@std@@@std@@@std@@@2@@0@AEBV?$basic_regex@_WV?$regex_traits@_W@std@@@0@W4match_flag_type@regex_constants@0@0@Z 000000014001d30c     MFCEditView.obj
 0002:00007315       $stateUnwindMap$??$_Regex_search2@V?$_String_const_iterator@V?$_String_val@U?$_Simple_types@_W@std@@@std@@@std@@V?$allocator@V?$sub_match@V?$_String_const_iterator@V?$_String_val@U?$_Simple_types@_W@std@@@std@@@std@@@std@@@2@_WV?$regex_traits@_W@2@V12@@std@@YA_NV?$_String_const_iterator@V?$_String_val@U?$_Simple_types@_W@std@@@std@@@0@0PEAV?$match_results@V?$_String_const_iterator@V?$_String_val@U?$_Simple_types@_W@std@@@std@@@std@@V?$allocator@V?$sub_match@V?$_String_const_iterator@V?$_String_val@U?$_Simple_types@_W@std@@@std@@@std@@@std@@@2@@0@AEBV?$basic_regex@_WV?$regex_traits@_W@std@@@0@W4match_flag_type@regex_constants@0@0@Z 000000014001d315     MFCEditView.obj
 0002:0000731c       $ip2state$??$_Regex_search2@V?$_String_const_iterator@V?$_String_val@U?$_Simple_types@_W@std@@@std@@@std@@V?$allocator@V?$sub_match@V?$_String_const_iterator@V?$_String_val@U?$_Simple_types@_W@std@@@std@@@std@@@std@@@2@_WV?$regex_traits@_W@2@V12@@std@@YA_NV?$_String_const_iterator@V?$_String_val@U?$_Simple_types@_W@std@@@std@@@0@0PEAV?$match_results@V?$_String_const_iterator@V?$_String_val@U?$_Simple_types@_W@std@@@std@@@std@@V?$allocator@V?$sub_match@V?$_String_const_iterator@V?$_String_val@U?$_Simple_types@_W@std@@@std@@@std@@@std@@@2@@0@AEBV?$basic_regex@_WV?$regex_traits@_W@std@@@0@W4match_flag_type@regex_constants@0@0@Z 000000014001d31c     MFCEditView.obj
 0002:00007328       $unwind$??$_Destroy_range@V?$allocator@V_variant_t@@@std@@@std@@YAXPEAV_variant_t@@QEAV1@AEAV?$allocator@V_variant_t@@@0@@Z 000000014001d328     MFCEditView.obj
 0002:00007334       $unwind$??$_Destroy_range@V?$allocator@V?$basic_string@_WU?$char_traits@_W@std@@V?$allocator@_W@2@@std@@@std@@@std@@YAXPEAV?$basic_string@_WU?$char_traits@_W@std@@V?$allocator@_W@2@@0@QEAV10@AEAV?$allocator@V?$basic_string@_WU?$char_traits@_W@std@@V?$allocator@_W@2@@std@@@0@@Z 000000014001d334     MFCEditView.obj
 0002:00007340       $chain$0$??$_Destroy_range@V?$allocator@V?$basic_string@_WU?$char_traits@_W@std@@V?$allocator@_W@2@@std@@@std@@@std@@YAXPEAV?$basic_string@_WU?$char_traits@_W@std@@V?$allocator@_W@2@@0@QEAV10@AEAV?$allocator@V?$basic_string@_WU?$char_traits@_W@std@@V?$allocator@_W@2@@std@@@0@@Z 000000014001d340     MFCEditView.obj
 0002:00007354       $chain$1$??$_Destroy_range@V?$allocator@V?$basic_string@_WU?$char_traits@_W@std@@V?$allocator@_W@2@@std@@@std@@@std@@YAXPEAV?$basic_string@_WU?$char_traits@_W@std@@V?$allocator@_W@2@@0@QEAV10@AEAV?$allocator@V?$basic_string@_WU?$char_traits@_W@std@@V?$allocator@_W@2@@std@@@0@@Z 000000014001d354     MFCEditView.obj
 0002:00007364       $chain$2$??$_Destroy_range@V?$allocator@V?$basic_string@_WU?$char_traits@_W@std@@V?$allocator@_W@2@@std@@@std@@@std@@YAXPEAV?$basic_string@_WU?$char_traits@_W@std@@V?$allocator@_W@2@@0@QEAV10@AEAV?$allocator@V?$basic_string@_WU?$char_traits@_W@std@@V?$allocator@_W@2@@std@@@0@@Z 000000014001d364     MFCEditView.obj
 0002:00007378       $unwind$??$_Reallocate_grow_by@V<lambda_a3050a43f3157934f354774ab3dd2e02>@@_K_W@?$basic_string@_WU?$char_traits@_W@std@@V?$allocator@_W@2@@std@@AEAAAEAV01@_KV<lambda_a3050a43f3157934f354774ab3dd2e02>@@_K_W@Z 000000014001d378     MFCEditView.obj
 0002:00007388       $chain$3$??$_Reallocate_grow_by@V<lambda_a3050a43f3157934f354774ab3dd2e02>@@_K_W@?$basic_string@_WU?$char_traits@_W@std@@V?$allocator@_W@2@@std@@AEAAAEAV01@_KV<lambda_a3050a43f3157934f354774ab3dd2e02>@@_K_W@Z 000000014001d388     MFCEditView.obj
 0002:000073a8       $chain$4$??$_Reallocate_grow_by@V<lambda_a3050a43f3157934f354774ab3dd2e02>@@_K_W@?$basic_string@_WU?$char_traits@_W@std@@V?$allocator@_W@2@@std@@AEAAAEAV01@_KV<lambda_a3050a43f3157934f354774ab3dd2e02>@@_K_W@Z 000000014001d3a8     MFCEditView.obj
 0002:000073b8       $chain$5$??$_Reallocate_grow_by@V<lambda_a3050a43f3157934f354774ab3dd2e02>@@_K_W@?$basic_string@_WU?$char_traits@_W@std@@V?$allocator@_W@2@@std@@AEAAAEAV01@_KV<lambda_a3050a43f3157934f354774ab3dd2e02>@@_K_W@Z 000000014001d3b8     MFCEditView.obj
 0002:000073d8       $unwind$??$_Reallocate_for@V<lambda_3fa8b2c8193a0f3144fc4b1b8f243931>@@PEB_W@?$basic_string@_WU?$char_traits@_W@std@@V?$allocator@_W@2@@std@@AEAAAEAV01@_KV<lambda_3fa8b2c8193a0f3144fc4b1b8f243931>@@PEB_W@Z 000000014001d3d8     MFCEditView.obj
 0002:000073e8       $chain$2$??$_Reallocate_for@V<lambda_3fa8b2c8193a0f3144fc4b1b8f243931>@@PEB_W@?$basic_string@_WU?$char_traits@_W@std@@V?$allocator@_W@2@@std@@AEAAAEAV01@_KV<lambda_3fa8b2c8193a0f3144fc4b1b8f243931>@@PEB_W@Z 000000014001d3e8     MFCEditView.obj
 0002:00007404       $chain$4$??$_Reallocate_for@V<lambda_3fa8b2c8193a0f3144fc4b1b8f243931>@@PEB_W@?$basic_string@_WU?$char_traits@_W@std@@V?$allocator@_W@2@@std@@AEAAAEAV01@_KV<lambda_3fa8b2c8193a0f3144fc4b1b8f243931>@@PEB_W@Z 000000014001d404     MFCEditView.obj
 0002:00007404       $chain$6$??$_Reallocate_for@V<lambda_3fa8b2c8193a0f3144fc4b1b8f243931>@@PEB_W@?$basic_string@_WU?$char_traits@_W@std@@V?$allocator@_W@2@@std@@AEAAAEAV01@_KV<lambda_3fa8b2c8193a0f3144fc4b1b8f243931>@@PEB_W@Z 000000014001d404     MFCEditView.obj
 0002:00007420       $chain$5$??$_Reallocate_for@V<lambda_3fa8b2c8193a0f3144fc4b1b8f243931>@@PEB_W@?$basic_string@_WU?$char_traits@_W@std@@V?$allocator@_W@2@@std@@AEAAAEAV01@_KV<lambda_3fa8b2c8193a0f3144fc4b1b8f243931>@@PEB_W@Z 000000014001d420     MFCEditView.obj
 0002:00007430       $unwind$??1?$_Tgt_state_t@V?$_String_const_iterator@V?$_String_val@U?$_Simple_types@_W@std@@@std@@@std@@@std@@QEAA@XZ 000000014001d430     MFCEditView.obj
 0002:00007430       $unwind$?_Free@_bstr_t@@AEAAXXZ 000000014001d430     MFCEditView.obj
 0002:00007430       $unwind$?_HexDigits@?$_Parser@PEB_W_WV?$regex_traits@_W@std@@@std@@AEAAXH@Z 000000014001d430     MFCEditView.obj
 0002:00007430       $unwind$?_New_node@?$_Builder@PEB_W_WV?$regex_traits@_W@std@@@std@@AEAAPEAV_Node_base@2@W4_Node_type@2@@Z 000000014001d430     MFCEditView.obj
 0002:0000743c       $unwind$??0?$_Matcher@V?$_String_const_iterator@V?$_String_val@U?$_Simple_types@_W@std@@@std@@@std@@_WV?$regex_traits@_W@2@V12@@std@@QEAA@V?$_String_const_iterator@V?$_String_val@U?$_Simple_types@_W@std@@@std@@@1@0AEBV?$regex_traits@_W@1@PEAV_Root_node@1@IW4syntax_option_type@regex_constants@1@W4match_flag_type@61@@Z 000000014001d43c     MFCEditView.obj
 0002:00007458       $cppxdata$??0?$_Matcher@V?$_String_const_iterator@V?$_String_val@U?$_Simple_types@_W@std@@@std@@@std@@_WV?$regex_traits@_W@2@V12@@std@@QEAA@V?$_String_const_iterator@V?$_String_val@U?$_Simple_types@_W@std@@@std@@@1@0AEBV?$regex_traits@_W@1@PEAV_Root_node@1@IW4syntax_option_type@regex_constants@1@W4match_flag_type@61@@Z 000000014001d458     MFCEditView.obj
 0002:00007461       $stateUnwindMap$??0?$_Matcher@V?$_String_const_iterator@V?$_String_val@U?$_Simple_types@_W@std@@@std@@@std@@_WV?$regex_traits@_W@2@V12@@std@@QEAA@V?$_String_const_iterator@V?$_String_val@U?$_Simple_types@_W@std@@@std@@@1@0AEBV?$regex_traits@_W@1@PEAV_Root_node@1@IW4syntax_option_type@regex_constants@1@W4match_flag_type@61@@Z 000000014001d461     MFCEditView.obj
 0002:00007472       $ip2state$??0?$_Matcher@V?$_String_const_iterator@V?$_String_val@U?$_Simple_types@_W@std@@@std@@@std@@_WV?$regex_traits@_W@2@V12@@std@@QEAA@V?$_String_const_iterator@V?$_String_val@U?$_Simple_types@_W@std@@@std@@@1@0AEBV?$regex_traits@_W@1@PEAV_Root_node@1@IW4syntax_option_type@regex_constants@1@W4match_flag_type@61@@Z 000000014001d472     MFCEditView.obj
 0002:00007478       $unwind$?_Growmap@?$deque@V?$shared_ptr@Ust@?1??Value@CVARIANTTool@@IEAA?AUtagVARIANT@@U4@0@Z@@std@@V?$allocator@V?$shared_ptr@Ust@?1??Value@CVARIANTTool@@IEAA?AUtagVARIANT@@U4@0@Z@@std@@@2@@std@@AEAAX_K@Z 000000014001d478     MFCEditView.obj
 0002:00007484       $chain$1$?_Growmap@?$deque@V?$shared_ptr@Ust@?1??Value@CVARIANTTool@@IEAA?AUtagVARIANT@@U4@0@Z@@std@@V?$allocator@V?$shared_ptr@Ust@?1??Value@CVARIANTTool@@IEAA?AUtagVARIANT@@U4@0@Z@@std@@@2@@std@@AEAAX_K@Z 000000014001d484     MFCEditView.obj
 0002:0000749c       $chain$4$?_Growmap@?$deque@V?$shared_ptr@Ust@?1??Value@CVARIANTTool@@IEAA?AUtagVARIANT@@U4@0@Z@@std@@V?$allocator@V?$shared_ptr@Ust@?1??Value@CVARIANTTool@@IEAA?AUtagVARIANT@@U4@0@Z@@std@@@2@@std@@AEAAX_K@Z 000000014001d49c     MFCEditView.obj
 0002:000074b8       $chain$5$?_Growmap@?$deque@V?$shared_ptr@Ust@?1??Value@CVARIANTTool@@IEAA?AUtagVARIANT@@U4@0@Z@@std@@V?$allocator@V?$shared_ptr@Ust@?1??Value@CVARIANTTool@@IEAA?AUtagVARIANT@@U4@0@Z@@std@@@2@@std@@AEAAX_K@Z 000000014001d4b8     MFCEditView.obj
 0002:000074c8       $chain$7$?_Growmap@?$deque@V?$shared_ptr@Ust@?1??Value@CVARIANTTool@@IEAA?AUtagVARIANT@@U4@0@Z@@std@@V?$allocator@V?$shared_ptr@Ust@?1??Value@CVARIANTTool@@IEAA?AUtagVARIANT@@U4@0@Z@@std@@@2@@std@@AEAAX_K@Z 000000014001d4c8     MFCEditView.obj
 0002:000074e0       $chain$8$?_Growmap@?$deque@V?$shared_ptr@Ust@?1??Value@CVARIANTTool@@IEAA?AUtagVARIANT@@U4@0@Z@@std@@V?$allocator@V?$shared_ptr@Ust@?1??Value@CVARIANTTool@@IEAA?AUtagVARIANT@@U4@0@Z@@std@@@2@@std@@AEAAX_K@Z 000000014001d4e0     MFCEditView.obj
 0002:000074f0       $chain$0$?_Buy_nonzero@?$vector@HV?$allocator@H@std@@@std@@AEAAX_K@Z 000000014001d4f0     MFCEditView.obj
 0002:00007504       $chain$1$?_Buy_nonzero@?$vector@HV?$allocator@H@std@@@std@@AEAAX_K@Z 000000014001d504     MFCEditView.obj
 0002:00007514       $chain$2$?_Buy_nonzero@?$vector@HV?$allocator@H@std@@@std@@AEAAX_K@Z 000000014001d514     MFCEditView.obj
 0002:00007528       $unwind$??$_Insert_string@_WU?$char_traits@_W@std@@_K@std@@YAAEAV?$basic_ostream@_WU?$char_traits@_W@std@@@0@AEAV10@QEB_W_K@Z 000000014001d528     MFCEditView.obj
 0002:00007548       $cppxdata$??$_Insert_string@_WU?$char_traits@_W@std@@_K@std@@YAAEAV?$basic_ostream@_WU?$char_traits@_W@std@@@0@AEAV10@QEB_W_K@Z 000000014001d548     MFCEditView.obj
 0002:00007555       $tryMap$??$_Insert_string@_WU?$char_traits@_W@std@@_K@std@@YAAEAV?$basic_ostream@_WU?$char_traits@_W@std@@@0@AEAV10@QEB_W_K@Z 000000014001d555     MFCEditView.obj
 0002:0000755d       $handlerMap$??$_Insert_string@_WU?$char_traits@_W@std@@_K@std@@YAAEAV?$basic_ostream@_WU?$char_traits@_W@std@@@0@AEAV10@QEB_W_K@Z 000000014001d55d     MFCEditView.obj
 0002:00007566       $ip2state$??$_Insert_string@_WU?$char_traits@_W@std@@_K@std@@YAAEAV?$basic_ostream@_WU?$char_traits@_W@std@@@0@AEAV10@QEB_W_K@Z 000000014001d566     MFCEditView.obj
 0002:00007574       $unwind$??$_Emplace_reallocate@AEBV_variant_t@@@?$vector@V_variant_t@@V?$allocator@V_variant_t@@@std@@@std@@AEAAPEAV_variant_t@@QEAV2@AEBV2@@Z 000000014001d574     MFCEditView.obj
 0002:00007594       $cppxdata$??$_Emplace_reallocate@AEBV_variant_t@@@?$vector@V_variant_t@@V?$allocator@V_variant_t@@@std@@@std@@AEAAPEAV_variant_t@@QEAV2@AEBV2@@Z 000000014001d594     MFCEditView.obj
 0002:000075a1       $stateUnwindMap$??$_Emplace_reallocate@AEBV_variant_t@@@?$vector@V_variant_t@@V?$allocator@V_variant_t@@@std@@@std@@AEAAPEAV_variant_t@@QEAV2@AEBV2@@Z 000000014001d5a1     MFCEditView.obj
 0002:000075aa       $tryMap$??$_Emplace_reallocate@AEBV_variant_t@@@?$vector@V_variant_t@@V?$allocator@V_variant_t@@@std@@@std@@AEAAPEAV_variant_t@@QEAV2@AEBV2@@Z 000000014001d5aa     MFCEditView.obj
 0002:000075b2       $handlerMap$??$_Emplace_reallocate@AEBV_variant_t@@@?$vector@V_variant_t@@V?$allocator@V_variant_t@@@std@@@std@@AEAAPEAV_variant_t@@QEAV2@AEBV2@@Z 000000014001d5b2     MFCEditView.obj
 0002:000075b9       $ip2state$??$_Emplace_reallocate@AEBV_variant_t@@@?$vector@V_variant_t@@V?$allocator@V_variant_t@@@std@@@std@@AEAAPEAV_variant_t@@QEAV2@AEBV2@@Z 000000014001d5b9     MFCEditView.obj
 0002:000075c8       $unwind$??$_Emplace_reallocate@V?$basic_string@_WU?$char_traits@_W@std@@V?$allocator@_W@2@@std@@@?$vector@V?$basic_string@_WU?$char_traits@_W@std@@V?$allocator@_W@2@@std@@V?$allocator@V?$basic_string@_WU?$char_traits@_W@std@@V?$allocator@_W@2@@std@@@2@@std@@AEAAPEAV?$basic_string@_WU?$char_traits@_W@std@@V?$allocator@_W@2@@1@QEAV21@$$QEAV21@@Z 000000014001d5c8     MFCEditView.obj
 0002:000075d8       $chain$3$??$_Emplace_reallocate@V?$basic_string@_WU?$char_traits@_W@std@@V?$allocator@_W@2@@std@@@?$vector@V?$basic_string@_WU?$char_traits@_W@std@@V?$allocator@_W@2@@std@@V?$allocator@V?$basic_string@_WU?$char_traits@_W@std@@V?$allocator@_W@2@@std@@@2@@std@@AEAAPEAV?$basic_string@_WU?$char_traits@_W@std@@V?$allocator@_W@2@@1@QEAV21@$$QEAV21@@Z 000000014001d5d8     MFCEditView.obj
 0002:000075f8       $chain$5$??$_Emplace_reallocate@V?$basic_string@_WU?$char_traits@_W@std@@V?$allocator@_W@2@@std@@@?$vector@V?$basic_string@_WU?$char_traits@_W@std@@V?$allocator@_W@2@@std@@V?$allocator@V?$basic_string@_WU?$char_traits@_W@std@@V?$allocator@_W@2@@std@@@2@@std@@AEAAPEAV?$basic_string@_WU?$char_traits@_W@std@@V?$allocator@_W@2@@1@QEAV21@$$QEAV21@@Z 000000014001d5f8     MFCEditView.obj
 0002:000075f8       $chain$7$??$_Emplace_reallocate@V?$basic_string@_WU?$char_traits@_W@std@@V?$allocator@_W@2@@std@@@?$vector@V?$basic_string@_WU?$char_traits@_W@std@@V?$allocator@_W@2@@std@@V?$allocator@V?$basic_string@_WU?$char_traits@_W@std@@V?$allocator@_W@2@@std@@@2@@std@@AEAAPEAV?$basic_string@_WU?$char_traits@_W@std@@V?$allocator@_W@2@@1@QEAV21@$$QEAV21@@Z 000000014001d5f8     MFCEditView.obj
 0002:00007618       $chain$6$??$_Emplace_reallocate@V?$basic_string@_WU?$char_traits@_W@std@@V?$allocator@_W@2@@std@@@?$vector@V?$basic_string@_WU?$char_traits@_W@std@@V?$allocator@_W@2@@std@@V?$allocator@V?$basic_string@_WU?$char_traits@_W@std@@V?$allocator@_W@2@@std@@@2@@std@@AEAAPEAV?$basic_string@_WU?$char_traits@_W@std@@V?$allocator@_W@2@@1@QEAV21@$$QEAV21@@Z 000000014001d618     MFCEditView.obj
 0002:00007628       $unwind$?_Skip@?$_Matcher@V?$_String_const_iterator@V?$_String_val@U?$_Simple_types@_W@std@@@std@@@std@@_WV?$regex_traits@_W@2@V12@@std@@QEAA?AV?$_String_const_iterator@V?$_String_val@U?$_Simple_types@_W@std@@@std@@@2@V32@0PEAV_Node_base@2@@Z 000000014001d628     MFCEditView.obj
 0002:0000763c       $chain$2$?_Skip@?$_Matcher@V?$_String_const_iterator@V?$_String_val@U?$_Simple_types@_W@std@@@std@@@std@@_WV?$regex_traits@_W@2@V12@@std@@QEAA?AV?$_String_const_iterator@V?$_String_val@U?$_Simple_types@_W@std@@@std@@@2@V32@0PEAV_Node_base@2@@Z 000000014001d63c     MFCEditView.obj
 0002:00007654       $chain$3$?_Skip@?$_Matcher@V?$_String_const_iterator@V?$_String_val@U?$_Simple_types@_W@std@@@std@@@std@@_WV?$regex_traits@_W@2@V12@@std@@QEAA?AV?$_String_const_iterator@V?$_String_val@U?$_Simple_types@_W@std@@@std@@@2@V32@0PEAV_Node_base@2@@Z 000000014001d654     MFCEditView.obj
 0002:00007664       $unwind$??$_Match@V?$allocator@V?$sub_match@V?$_String_const_iterator@V?$_String_val@U?$_Simple_types@_W@std@@@std@@@std@@@std@@@std@@@?$_Matcher@V?$_String_const_iterator@V?$_String_val@U?$_Simple_types@_W@std@@@std@@@std@@_WV?$regex_traits@_W@2@V12@@std@@QEAA_NPEAV?$match_results@V?$_String_const_iterator@V?$_String_val@U?$_Simple_types@_W@std@@@std@@@std@@V?$allocator@V?$sub_match@V?$_String_const_iterator@V?$_String_val@U?$_Simple_types@_W@std@@@std@@@std@@@std@@@2@@1@_N@Z 000000014001d664     MFCEditView.obj
 0002:00007674       $unwind$??$use_facet@V?$collate@_W@std@@@std@@YAAEBV?$collate@_W@0@AEBVlocale@0@@Z 000000014001d674     MFCEditView.obj
 0002:0000769c       $cppxdata$??$use_facet@V?$collate@_W@std@@@std@@YAAEBV?$collate@_W@0@AEBVlocale@0@@Z 000000014001d69c     MFCEditView.obj
 0002:000076a5       $stateUnwindMap$??$use_facet@V?$collate@_W@std@@@std@@YAAEBV?$collate@_W@0@AEBVlocale@0@@Z 000000014001d6a5     MFCEditView.obj
 0002:000076d5       $ip2state$??$use_facet@V?$collate@_W@std@@@std@@YAAEBV?$collate@_W@0@AEBVlocale@0@@Z 000000014001d6d5     MFCEditView.obj
 0002:000076e4       $unwind$?_Resize@?$match_results@V?$_String_const_iterator@V?$_String_val@U?$_Simple_types@_W@std@@@std@@@std@@V?$allocator@V?$sub_match@V?$_String_const_iterator@V?$_String_val@U?$_Simple_types@_W@std@@@std@@@std@@@std@@@2@@std@@QEAAXI@Z 000000014001d6e4     MFCEditView.obj
 0002:000076f0       $unwind$?resize@?$vector@_NV?$allocator@_N@std@@@std@@QEAAX_K_N@Z 000000014001d6f0     MFCEditView.obj
 0002:000076fc       $unwind$?translate@?$_Regex_traits@_W@std@@QEBA_W_W@Z 000000014001d6fc     MFCEditView.obj
 0002:0000770c       $unwind$??_G?$_Node_class@_WV?$regex_traits@_W@std@@@std@@UEAAPEAXI@Z 000000014001d70c     MFCEditView.obj
 0002:0000770c       $unwind$?_Alternative@?$_Parser@PEB_W_WV?$regex_traits@_W@std@@@std@@AEAA_NXZ 000000014001d70c     MFCEditView.obj
 0002:0000770c       $unwind$?_DecimalDigits@?$_Parser@PEB_W_WV?$regex_traits@_W@std@@@std@@AEAA_NW4error_type@regex_constants@2@@Z 000000014001d70c     MFCEditView.obj
 0002:00007720       $unwind$?erase@?$vector@_NV?$allocator@_N@std@@@std@@QEAA?AV?$_Vb_iterator@U?$_Wrap_alloc@V?$allocator@I@std@@@std@@@2@V?$_Vb_const_iterator@U?$_Wrap_alloc@V?$allocator@I@std@@@std@@@2@0@Z 000000014001d720     MFCEditView.obj
 0002:00007738       $cppxdata$?erase@?$vector@_NV?$allocator@_N@std@@@std@@QEAA?AV?$_Vb_iterator@U?$_Wrap_alloc@V?$allocator@I@std@@@std@@@2@V?$_Vb_const_iterator@U?$_Wrap_alloc@V?$allocator@I@std@@@std@@@2@0@Z 000000014001d738     MFCEditView.obj
 0002:0000773d       $ip2state$?erase@?$vector@_NV?$allocator@_N@std@@@std@@QEAA?AV?$_Vb_iterator@U?$_Wrap_alloc@V?$allocator@I@std@@@std@@@2@V?$_Vb_const_iterator@U?$_Wrap_alloc@V?$allocator@I@std@@@std@@@2@0@Z 000000014001d73d     MFCEditView.obj
 0002:00007744       $unwind$?_Insert_x@?$vector@_NV?$allocator@_N@std@@@std@@QEAA_KV?$_Vb_const_iterator@U?$_Wrap_alloc@V?$allocator@I@std@@@std@@@2@_K@Z 000000014001d744     MFCEditView.obj
 0002:00007750       $chain$0$?_Insert_x@?$vector@_NV?$allocator@_N@std@@@std@@QEAA_KV?$_Vb_const_iterator@U?$_Wrap_alloc@V?$allocator@I@std@@@std@@@2@_K@Z 000000014001d750     MFCEditView.obj
 0002:00007764       $chain$1$?_Insert_x@?$vector@_NV?$allocator@_N@std@@@std@@QEAA_KV?$_Vb_const_iterator@U?$_Wrap_alloc@V?$allocator@I@std@@@std@@@2@_K@Z 000000014001d764     MFCEditView.obj
 0002:00007778       $chain$2$?_Insert_x@?$vector@_NV?$allocator@_N@std@@@std@@QEAA_KV?$_Vb_const_iterator@U?$_Wrap_alloc@V?$allocator@I@std@@@std@@@2@_K@Z 000000014001d778     MFCEditView.obj
 0002:00007788       $chain$3$?_Insert_x@?$vector@_NV?$allocator@_N@std@@@std@@QEAA_KV?$_Vb_const_iterator@U?$_Wrap_alloc@V?$allocator@I@std@@@std@@@2@_K@Z 000000014001d788     MFCEditView.obj
 0002:00007788       $chain$5$?_Insert_x@?$vector@_NV?$allocator@_N@std@@@std@@QEAA_KV?$_Vb_const_iterator@U?$_Wrap_alloc@V?$allocator@I@std@@@std@@@2@_K@Z 000000014001d788     MFCEditView.obj
 0002:00007798       $chain$4$?_Insert_x@?$vector@_NV?$allocator@_N@std@@@std@@QEAA_KV?$_Vb_const_iterator@U?$_Wrap_alloc@V?$allocator@I@std@@@std@@@2@_K@Z 000000014001d798     MFCEditView.obj
 0002:000077ac       $unwind$?_Match_pat@?$_Matcher@V?$_String_const_iterator@V?$_String_val@U?$_Simple_types@_W@std@@@std@@@std@@_WV?$regex_traits@_W@2@V12@@std@@AEAA_NPEAV_Node_base@2@@Z 000000014001d7ac     MFCEditView.obj
 0002:000077d4       $cppxdata$?_Match_pat@?$_Matcher@V?$_String_const_iterator@V?$_String_val@U?$_Simple_types@_W@std@@@std@@@std@@_WV?$regex_traits@_W@2@V12@@std@@AEAA_NPEAV_Node_base@2@@Z 000000014001d7d4     MFCEditView.obj
 0002:000077dd       $stateUnwindMap$?_Match_pat@?$_Matcher@V?$_String_const_iterator@V?$_String_val@U?$_Simple_types@_W@std@@@std@@@std@@_WV?$regex_traits@_W@2@V12@@std@@AEAA_NPEAV_Node_base@2@@Z 000000014001d7dd     MFCEditView.obj
 0002:000077e4       $ip2state$?_Match_pat@?$_Matcher@V?$_String_const_iterator@V?$_String_val@U?$_Simple_types@_W@std@@@std@@@std@@_WV?$regex_traits@_W@2@V12@@std@@AEAA_NPEAV_Node_base@2@@Z 000000014001d7e4     MFCEditView.obj
 0002:000077f4       $unwind$?_Compile@?$_Parser@PEB_W_WV?$regex_traits@_W@std@@@std@@QEAAPEAV_Root_node@2@XZ 000000014001d7f4     MFCEditView.obj
 0002:00007810       $cppxdata$?_Compile@?$_Parser@PEB_W_WV?$regex_traits@_W@std@@@std@@QEAAPEAV_Root_node@2@XZ 000000014001d810     MFCEditView.obj
 0002:00007819       $stateUnwindMap$?_Compile@?$_Parser@PEB_W_WV?$regex_traits@_W@std@@@std@@QEAAPEAV_Root_node@2@XZ 000000014001d819     MFCEditView.obj
 0002:00007820       $ip2state$?_Compile@?$_Parser@PEB_W_WV?$regex_traits@_W@std@@@std@@QEAAPEAV_Root_node@2@XZ 000000014001d820     MFCEditView.obj
 0002:00007828       $unwind$??$_Compare@V?$_String_const_iterator@V?$_String_val@U?$_Simple_types@_W@std@@@std@@@std@@PEB_WV?$regex_traits@_W@2@@std@@YA?AV?$_String_const_iterator@V?$_String_val@U?$_Simple_types@_W@std@@@std@@@0@V10@0PEB_W1AEBV?$regex_traits@_W@0@W4syntax_option_type@regex_constants@0@@Z 000000014001d828     MFCEditView.obj
 0002:00007840       $unwind$??$_Lookup_equiv@_WV?$regex_traits@_W@std@@@std@@YA_NGPEBU?$_Sequence@_W@0@AEBV?$regex_traits@_W@0@@Z 000000014001d840     MFCEditView.obj
 0002:00007868       $cppxdata$??$_Lookup_equiv@_WV?$regex_traits@_W@std@@@std@@YA_NGPEBU?$_Sequence@_W@0@AEBV?$regex_traits@_W@0@@Z 000000014001d868     MFCEditView.obj
 0002:00007871       $stateUnwindMap$??$_Lookup_equiv@_WV?$regex_traits@_W@std@@@std@@YA_NGPEBU?$_Sequence@_W@0@AEBV?$regex_traits@_W@0@@Z 000000014001d871     MFCEditView.obj
 0002:0000787e       $ip2state$??$_Lookup_equiv@_WV?$regex_traits@_W@std@@@std@@YA_NGPEBU?$_Sequence@_W@0@AEBV?$regex_traits@_W@0@@Z 000000014001d87e     MFCEditView.obj
 0002:00007888       $unwind$??$_Resize_reallocate@U_Value_init_tag@std@@@?$vector@U_Loop_vals_t@std@@V?$allocator@U_Loop_vals_t@std@@@2@@std@@AEAAX_KAEBU_Value_init_tag@1@@Z 000000014001d888     MFCEditView.obj
 0002:00007894       $chain$2$??$_Resize_reallocate@U_Value_init_tag@std@@@?$vector@U_Loop_vals_t@std@@V?$allocator@U_Loop_vals_t@std@@@2@@std@@AEAAX_KAEBU_Value_init_tag@1@@Z 000000014001d894     MFCEditView.obj
 0002:000078b0       $chain$4$??$_Resize_reallocate@U_Value_init_tag@std@@@?$vector@U_Loop_vals_t@std@@V?$allocator@U_Loop_vals_t@std@@@2@@std@@AEAAX_KAEBU_Value_init_tag@1@@Z 000000014001d8b0     MFCEditView.obj
 0002:000078b0       $chain$6$??$_Resize_reallocate@U_Value_init_tag@std@@@?$vector@U_Loop_vals_t@std@@V?$allocator@U_Loop_vals_t@std@@@2@@std@@AEAAX_KAEBU_Value_init_tag@1@@Z 000000014001d8b0     MFCEditView.obj
 0002:000078cc       $chain$5$??$_Resize_reallocate@U_Value_init_tag@std@@@?$vector@U_Loop_vals_t@std@@V?$allocator@U_Loop_vals_t@std@@@2@@std@@AEAAX_KAEBU_Value_init_tag@1@@Z 000000014001d8cc     MFCEditView.obj
 0002:000078dc       $unwind$??$fill_n@V?$_Vb_iterator@U?$_Wrap_alloc@V?$allocator@I@std@@@std@@@std@@_K_N@std@@YA?AV?$_Vb_iterator@U?$_Wrap_alloc@V?$allocator@I@std@@@std@@@0@V10@_KAEB_N@Z 000000014001d8dc     MFCEditView.obj
 0002:000078e4       $chain$2$??$fill_n@V?$_Vb_iterator@U?$_Wrap_alloc@V?$allocator@I@std@@@std@@@std@@_K_N@std@@YA?AV?$_Vb_iterator@U?$_Wrap_alloc@V?$allocator@I@std@@@std@@@0@V10@_KAEB_N@Z 000000014001d8e4     MFCEditView.obj
 0002:00007900       $chain$4$??$fill_n@V?$_Vb_iterator@U?$_Wrap_alloc@V?$allocator@I@std@@@std@@@std@@_K_N@std@@YA?AV?$_Vb_iterator@U?$_Wrap_alloc@V?$allocator@I@std@@@std@@@0@V10@_KAEB_N@Z 000000014001d900     MFCEditView.obj
 0002:00007918       $chain$5$??$fill_n@V?$_Vb_iterator@U?$_Wrap_alloc@V?$allocator@I@std@@@std@@@std@@_K_N@std@@YA?AV?$_Vb_iterator@U?$_Wrap_alloc@V?$allocator@I@std@@@std@@@0@V10@_KAEB_N@Z 000000014001d918     MFCEditView.obj
 0002:00007928       $chain$6$??$fill_n@V?$_Vb_iterator@U?$_Wrap_alloc@V?$allocator@I@std@@@std@@@std@@_K_N@std@@YA?AV?$_Vb_iterator@U?$_Wrap_alloc@V?$allocator@I@std@@@std@@@0@V10@_KAEB_N@Z 000000014001d928     MFCEditView.obj
 0002:00007938       $unwind$??0?$_Bt_state_t@V?$_String_const_iterator@V?$_String_val@U?$_Simple_types@_W@std@@@std@@@std@@@std@@QEAA@AEBV01@@Z 000000014001d938     MFCEditView.obj
 0002:00007944       $chain$1$??0?$_Bt_state_t@V?$_String_const_iterator@V?$_String_val@U?$_Simple_types@_W@std@@@std@@@std@@@std@@QEAA@AEBV01@@Z 000000014001d944     MFCEditView.obj
 0002:0000795c       $chain$2$??0?$_Bt_state_t@V?$_String_const_iterator@V?$_String_val@U?$_Simple_types@_W@std@@@std@@@std@@@std@@QEAA@AEBV01@@Z 000000014001d95c     MFCEditView.obj
 0002:0000796c       $chain$1$??1?$_Tidy_guard@V?$_Builder@PEB_W_WV?$regex_traits@_W@std@@@std@@@std@@QEAA@XZ 000000014001d96c     MFCEditView.obj
 0002:00007984       $chain$2$??1?$_Tidy_guard@V?$_Builder@PEB_W_WV?$regex_traits@_W@std@@@std@@@std@@QEAA@XZ 000000014001d984     MFCEditView.obj
 0002:00007994       $unwind$?_Do_if@?$_Matcher@V?$_String_const_iterator@V?$_String_val@U?$_Simple_types@_W@std@@@std@@@std@@_WV?$regex_traits@_W@2@V12@@std@@AEAA_NPEAV_Node_if@2@@Z 000000014001d994     MFCEditView.obj
 0002:000079bc       $cppxdata$?_Do_if@?$_Matcher@V?$_String_const_iterator@V?$_String_val@U?$_Simple_types@_W@std@@@std@@@std@@_WV?$regex_traits@_W@2@V12@@std@@AEAA_NPEAV_Node_if@2@@Z 000000014001d9bc     MFCEditView.obj
 0002:000079c5       $stateUnwindMap$?_Do_if@?$_Matcher@V?$_String_const_iterator@V?$_String_val@U?$_Simple_types@_W@std@@@std@@@std@@_WV?$regex_traits@_W@2@V12@@std@@AEAA_NPEAV_Node_if@2@@Z 000000014001d9c5     MFCEditView.obj
 0002:000079d2       $ip2state$?_Do_if@?$_Matcher@V?$_String_const_iterator@V?$_String_val@U?$_Simple_types@_W@std@@@std@@@std@@_WV?$regex_traits@_W@2@V12@@std@@AEAA_NPEAV_Node_if@2@@Z 000000014001d9d2     MFCEditView.obj
 0002:000079e4       $unwind$?_Do_rep@?$_Matcher@V?$_String_const_iterator@V?$_String_val@U?$_Simple_types@_W@std@@@std@@@std@@_WV?$regex_traits@_W@2@V12@@std@@AEAA_NPEAV_Node_rep@2@_NH@Z 000000014001d9e4     MFCEditView.obj
 0002:00007a0c       $cppxdata$?_Do_rep@?$_Matcher@V?$_String_const_iterator@V?$_String_val@U?$_Simple_types@_W@std@@@std@@@std@@_WV?$regex_traits@_W@2@V12@@std@@AEAA_NPEAV_Node_rep@2@_NH@Z 000000014001da0c     MFCEditView.obj
 0002:00007a15       $stateUnwindMap$?_Do_rep@?$_Matcher@V?$_String_const_iterator@V?$_String_val@U?$_Simple_types@_W@std@@@std@@@std@@_WV?$regex_traits@_W@2@V12@@std@@AEAA_NPEAV_Node_rep@2@_NH@Z 000000014001da15     MFCEditView.obj
 0002:00007a1c       $ip2state$?_Do_rep@?$_Matcher@V?$_String_const_iterator@V?$_String_val@U?$_Simple_types@_W@std@@@std@@@std@@_WV?$regex_traits@_W@2@V12@@std@@AEAA_NPEAV_Node_rep@2@_NH@Z 000000014001da1c     MFCEditView.obj
 0002:00007a24       $unwind$?_Do_class@?$_Matcher@V?$_String_const_iterator@V?$_String_val@U?$_Simple_types@_W@std@@@std@@@std@@_WV?$regex_traits@_W@2@V12@@std@@AEAA_NPEAV_Node_base@2@@Z 000000014001da24     MFCEditView.obj
 0002:00007a30       $chain$5$?_Do_class@?$_Matcher@V?$_String_const_iterator@V?$_String_val@U?$_Simple_types@_W@std@@@std@@@std@@_WV?$regex_traits@_W@2@V12@@std@@AEAA_NPEAV_Node_base@2@@Z 000000014001da30     MFCEditView.obj
 0002:00007a58       $chain$6$?_Do_class@?$_Matcher@V?$_String_const_iterator@V?$_String_val@U?$_Simple_types@_W@std@@@std@@@std@@_WV?$regex_traits@_W@2@V12@@std@@AEAA_NPEAV_Node_base@2@@Z 000000014001da58     MFCEditView.obj
 0002:00007a68       $unwind$?_Disjunction@?$_Parser@PEB_W_WV?$regex_traits@_W@std@@@std@@AEAAXXZ 000000014001da68     MFCEditView.obj
 0002:00007a74       $chain$3$?_Disjunction@?$_Parser@PEB_W_WV?$regex_traits@_W@std@@@std@@AEAAXXZ 000000014001da74     MFCEditView.obj
 0002:00007a94       $chain$4$?_Disjunction@?$_Parser@PEB_W_WV?$regex_traits@_W@std@@@std@@AEAAXXZ 000000014001da94     MFCEditView.obj
 0002:00007aa8       $chain$5$?_Disjunction@?$_Parser@PEB_W_WV?$regex_traits@_W@std@@@std@@AEAAXXZ 000000014001daa8     MFCEditView.obj
 0002:00007ab8       $chain$6$?_Disjunction@?$_Parser@PEB_W_WV?$regex_traits@_W@std@@@std@@AEAAXXZ 000000014001dab8     MFCEditView.obj
 0002:00007ac8       $chain$1$?_End_group@?$_Builder@PEB_W_WV?$regex_traits@_W@std@@@std@@QEAAXPEAV_Node_base@2@@Z 000000014001dac8     MFCEditView.obj
 0002:00007ae0       $chain$2$?_End_group@?$_Builder@PEB_W_WV?$regex_traits@_W@std@@@std@@QEAAXPEAV_Node_base@2@@Z 000000014001dae0     MFCEditView.obj
 0002:00007af0       $unwind$??$_Compare@V?$_String_const_iterator@V?$_String_val@U?$_Simple_types@_W@std@@@std@@@std@@V12@V?$regex_traits@_W@2@@std@@YA?AV?$_String_const_iterator@V?$_String_val@U?$_Simple_types@_W@std@@@std@@@0@V10@000AEBV?$regex_traits@_W@0@W4syntax_option_type@regex_constants@0@@Z 000000014001daf0     MFCEditView.obj
 0002:00007b0c       $unwind$??$transform_primary@V?$_String_iterator@V?$_String_val@U?$_Simple_types@_W@std@@@std@@@std@@@?$_Regex_traits@_W@std@@QEBA?AV?$basic_string@_WU?$char_traits@_W@std@@V?$allocator@_W@2@@1@V?$_String_iterator@V?$_String_val@U?$_Simple_types@_W@std@@@std@@@1@0@Z 000000014001db0c     MFCEditView.obj
 0002:00007b30       $cppxdata$??$transform_primary@V?$_String_iterator@V?$_String_val@U?$_Simple_types@_W@std@@@std@@@std@@@?$_Regex_traits@_W@std@@QEBA?AV?$basic_string@_WU?$char_traits@_W@std@@V?$allocator@_W@2@@1@V?$_String_iterator@V?$_String_val@U?$_Simple_types@_W@std@@@std@@@1@0@Z 000000014001db30     MFCEditView.obj
 0002:00007b39       $stateUnwindMap$??$transform_primary@PEA_W@?$_Regex_traits@_W@std@@QEBA?AV?$basic_string@_WU?$char_traits@_W@std@@V?$allocator@_W@2@@1@PEA_W0@Z 000000014001db39     MFCEditView.obj
 0002:00007b39       $stateUnwindMap$??$transform_primary@PEB_W@?$_Regex_traits@_W@std@@QEBA?AV?$basic_string@_WU?$char_traits@_W@std@@V?$allocator@_W@2@@1@PEB_W0@Z 000000014001db39     MFCEditView.obj
 0002:00007b39       $stateUnwindMap$??$transform_primary@V?$_String_iterator@V?$_String_val@U?$_Simple_types@_W@std@@@std@@@std@@@?$_Regex_traits@_W@std@@QEBA?AV?$basic_string@_WU?$char_traits@_W@std@@V?$allocator@_W@2@@1@V?$_String_iterator@V?$_String_val@U?$_Simple_types@_W@std@@@std@@@1@0@Z 000000014001db39     MFCEditView.obj
 0002:00007b45       $ip2state$??$transform_primary@V?$_String_iterator@V?$_String_val@U?$_Simple_types@_W@std@@@std@@@std@@@?$_Regex_traits@_W@std@@QEBA?AV?$basic_string@_WU?$char_traits@_W@std@@V?$allocator@_W@2@@1@V?$_String_iterator@V?$_String_val@U?$_Simple_types@_W@std@@@std@@@1@0@Z 000000014001db45     MFCEditView.obj
 0002:00007b50       $unwind$??$_Resize_reallocate@U_Value_init_tag@std@@@?$vector@U_Grp_t@?$_Tgt_state_t@V?$_String_const_iterator@V?$_String_val@U?$_Simple_types@_W@std@@@std@@@std@@@std@@V?$allocator@U_Grp_t@?$_Tgt_state_t@V?$_String_const_iterator@V?$_String_val@U?$_Simple_types@_W@std@@@std@@@std@@@std@@@3@@std@@AEAAX_KAEBU_Value_init_tag@1@@Z 000000014001db50     MFCEditView.obj
 0002:00007b5c       $chain$3$??$_Resize_reallocate@U_Value_init_tag@std@@@?$vector@U_Grp_t@?$_Tgt_state_t@V?$_String_const_iterator@V?$_String_val@U?$_Simple_types@_W@std@@@std@@@std@@@std@@V?$allocator@U_Grp_t@?$_Tgt_state_t@V?$_String_const_iterator@V?$_String_val@U?$_Simple_types@_W@std@@@std@@@std@@@std@@@3@@std@@AEAAX_KAEBU_Value_init_tag@1@@Z 000000014001db5c     MFCEditView.obj
 0002:00007b7c       $chain$5$??$_Resize_reallocate@U_Value_init_tag@std@@@?$vector@U_Grp_t@?$_Tgt_state_t@V?$_String_const_iterator@V?$_String_val@U?$_Simple_types@_W@std@@@std@@@std@@@std@@V?$allocator@U_Grp_t@?$_Tgt_state_t@V?$_String_const_iterator@V?$_String_val@U?$_Simple_types@_W@std@@@std@@@std@@@std@@@3@@std@@AEAAX_KAEBU_Value_init_tag@1@@Z 000000014001db7c     MFCEditView.obj
 0002:00007b7c       $chain$7$??$_Resize_reallocate@U_Value_init_tag@std@@@?$vector@U_Grp_t@?$_Tgt_state_t@V?$_String_const_iterator@V?$_String_val@U?$_Simple_types@_W@std@@@std@@@std@@@std@@V?$allocator@U_Grp_t@?$_Tgt_state_t@V?$_String_const_iterator@V?$_String_val@U?$_Simple_types@_W@std@@@std@@@std@@@std@@@3@@std@@AEAAX_KAEBU_Value_init_tag@1@@Z 000000014001db7c     MFCEditView.obj
 0002:00007b9c       $chain$6$??$_Resize_reallocate@U_Value_init_tag@std@@@?$vector@U_Grp_t@?$_Tgt_state_t@V?$_String_const_iterator@V?$_String_val@U?$_Simple_types@_W@std@@@std@@@std@@@std@@V?$allocator@U_Grp_t@?$_Tgt_state_t@V?$_String_const_iterator@V?$_String_val@U?$_Simple_types@_W@std@@@std@@@std@@@std@@@3@@std@@AEAAX_KAEBU_Value_init_tag@1@@Z 000000014001db9c     MFCEditView.obj
 0002:00007bac       $unwind$??$_Resize_reallocate@U_Value_init_tag@std@@@?$vector@V?$sub_match@V?$_String_const_iterator@V?$_String_val@U?$_Simple_types@_W@std@@@std@@@std@@@std@@V?$allocator@V?$sub_match@V?$_String_const_iterator@V?$_String_val@U?$_Simple_types@_W@std@@@std@@@std@@@std@@@2@@std@@AEAAX_KAEBU_Value_init_tag@1@@Z 000000014001dbac     MFCEditView.obj
 0002:00007bb8       $chain$4$??$_Resize_reallocate@U_Value_init_tag@std@@@?$vector@V?$sub_match@V?$_String_const_iterator@V?$_String_val@U?$_Simple_types@_W@std@@@std@@@std@@@std@@V?$allocator@V?$sub_match@V?$_String_const_iterator@V?$_String_val@U?$_Simple_types@_W@std@@@std@@@std@@@std@@@2@@std@@AEAAX_KAEBU_Value_init_tag@1@@Z 000000014001dbb8     MFCEditView.obj
 0002:00007bdc       $chain$6$??$_Resize_reallocate@U_Value_init_tag@std@@@?$vector@V?$sub_match@V?$_String_const_iterator@V?$_String_val@U?$_Simple_types@_W@std@@@std@@@std@@@std@@V?$allocator@V?$sub_match@V?$_String_const_iterator@V?$_String_val@U?$_Simple_types@_W@std@@@std@@@std@@@std@@@2@@std@@AEAAX_KAEBU_Value_init_tag@1@@Z 000000014001dbdc     MFCEditView.obj
 0002:00007bdc       $chain$8$??$_Resize_reallocate@U_Value_init_tag@std@@@?$vector@V?$sub_match@V?$_String_const_iterator@V?$_String_val@U?$_Simple_types@_W@std@@@std@@@std@@@std@@V?$allocator@V?$sub_match@V?$_String_const_iterator@V?$_String_val@U?$_Simple_types@_W@std@@@std@@@std@@@std@@@2@@std@@AEAAX_KAEBU_Value_init_tag@1@@Z 000000014001dbdc     MFCEditView.obj
 0002:00007c00       $chain$7$??$_Resize_reallocate@U_Value_init_tag@std@@@?$vector@V?$sub_match@V?$_String_const_iterator@V?$_String_val@U?$_Simple_types@_W@std@@@std@@@std@@@std@@V?$allocator@V?$sub_match@V?$_String_const_iterator@V?$_String_val@U?$_Simple_types@_W@std@@@std@@@std@@@std@@@2@@std@@AEAAX_KAEBU_Value_init_tag@1@@Z 000000014001dc00     MFCEditView.obj
 0002:00007c10       $unwind$??$_Resize_reallocate@I@?$vector@IV?$allocator@I@std@@@std@@AEAAX_KAEBI@Z 000000014001dc10     MFCEditView.obj
 0002:00007c1c       $chain$2$??$_Resize_reallocate@I@?$vector@IV?$allocator@I@std@@@std@@AEAAX_KAEBI@Z 000000014001dc1c     MFCEditView.obj
 0002:00007c38       $chain$4$??$_Resize_reallocate@I@?$vector@IV?$allocator@I@std@@@std@@AEAAX_KAEBI@Z 000000014001dc38     MFCEditView.obj
 0002:00007c38       $chain$6$??$_Resize_reallocate@I@?$vector@IV?$allocator@I@std@@@std@@AEAAX_KAEBI@Z 000000014001dc38     MFCEditView.obj
 0002:00007c54       $chain$5$??$_Resize_reallocate@I@?$vector@IV?$allocator@I@std@@@std@@AEAAX_KAEBI@Z 000000014001dc54     MFCEditView.obj
 0002:00007c64       $unwind$??$_Assign_counted_range@PEAI@?$vector@IV?$allocator@I@std@@@std@@AEAAXPEAI_K@Z 000000014001dc64     MFCEditView.obj
 0002:00007c64       $unwind$??$_Assign_counted_range@PEAU_Grp_t@?$_Tgt_state_t@V?$_String_const_iterator@V?$_String_val@U?$_Simple_types@_W@std@@@std@@@std@@@std@@@?$vector@U_Grp_t@?$_Tgt_state_t@V?$_String_const_iterator@V?$_String_val@U?$_Simple_types@_W@std@@@std@@@std@@@std@@V?$allocator@U_Grp_t@?$_Tgt_state_t@V?$_String_const_iterator@V?$_String_val@U?$_Simple_types@_W@std@@@std@@@std@@@std@@@3@@std@@AEAAXPEAU_Grp_t@?$_Tgt_state_t@V?$_String_const_iterator@V?$_String_val@U?$_Simple_types@_W@std@@@std@@@std@@@1@_K@Z 000000014001dc64     MFCEditView.obj
 0002:00007c74       $chain$0$??$_Assign_counted_range@PEAU_Grp_t@?$_Tgt_state_t@V?$_String_const_iterator@V?$_String_val@U?$_Simple_types@_W@std@@@std@@@std@@@std@@@?$vector@U_Grp_t@?$_Tgt_state_t@V?$_String_const_iterator@V?$_String_val@U?$_Simple_types@_W@std@@@std@@@std@@@std@@V?$allocator@U_Grp_t@?$_Tgt_state_t@V?$_String_const_iterator@V?$_String_val@U?$_Simple_types@_W@std@@@std@@@std@@@std@@@3@@std@@AEAAXPEAU_Grp_t@?$_Tgt_state_t@V?$_String_const_iterator@V?$_String_val@U?$_Simple_types@_W@std@@@std@@@std@@@1@_K@Z 000000014001dc74     MFCEditView.obj
 0002:00007c88       $chain$1$??$_Assign_counted_range@PEAU_Grp_t@?$_Tgt_state_t@V?$_String_const_iterator@V?$_String_val@U?$_Simple_types@_W@std@@@std@@@std@@@std@@@?$vector@U_Grp_t@?$_Tgt_state_t@V?$_String_const_iterator@V?$_String_val@U?$_Simple_types@_W@std@@@std@@@std@@@std@@V?$allocator@U_Grp_t@?$_Tgt_state_t@V?$_String_const_iterator@V?$_String_val@U?$_Simple_types@_W@std@@@std@@@std@@@std@@@3@@std@@AEAAXPEAU_Grp_t@?$_Tgt_state_t@V?$_String_const_iterator@V?$_String_val@U?$_Simple_types@_W@std@@@std@@@std@@@1@_K@Z 000000014001dc88     MFCEditView.obj
 0002:00007c98       $chain$0$??$_Assign_counted_range@PEAI@?$vector@IV?$allocator@I@std@@@std@@AEAAXPEAI_K@Z 000000014001dc98     MFCEditView.obj
 0002:00007cac       $chain$1$??$_Assign_counted_range@PEAI@?$vector@IV?$allocator@I@std@@@std@@AEAAXPEAI_K@Z 000000014001dcac     MFCEditView.obj
 0002:00007cbc       $unwind$??0?$_Tgt_state_t@V?$_String_const_iterator@V?$_String_val@U?$_Simple_types@_W@std@@@std@@@std@@@std@@QEAA@AEBV01@@Z 000000014001dcbc     MFCEditView.obj
 0002:00007cd4       $cppxdata$??0?$_Tgt_state_t@V?$_String_const_iterator@V?$_String_val@U?$_Simple_types@_W@std@@@std@@@std@@@std@@QEAA@AEBV01@@Z 000000014001dcd4     MFCEditView.obj
 0002:00007cdd       $stateUnwindMap$??0?$_Tgt_state_t@V?$_String_const_iterator@V?$_String_val@U?$_Simple_types@_W@std@@@std@@@std@@@std@@QEAA@AEBV01@@Z 000000014001dcdd     MFCEditView.obj
 0002:00007ce4       $ip2state$??0?$_Tgt_state_t@V?$_String_const_iterator@V?$_String_val@U?$_Simple_types@_W@std@@@std@@@std@@@std@@QEAA@AEBV01@@Z 000000014001dce4     MFCEditView.obj
 0002:00007cf0       $unwind$?_Do_rep0@?$_Matcher@V?$_String_const_iterator@V?$_String_val@U?$_Simple_types@_W@std@@@std@@@std@@_WV?$regex_traits@_W@2@V12@@std@@AEAA_NPEAV_Node_rep@2@_N@Z 000000014001dcf0     MFCEditView.obj
 0002:00007d18       $cppxdata$?_Do_rep0@?$_Matcher@V?$_String_const_iterator@V?$_String_val@U?$_Simple_types@_W@std@@@std@@@std@@_WV?$regex_traits@_W@2@V12@@std@@AEAA_NPEAV_Node_rep@2@_N@Z 000000014001dd18     MFCEditView.obj
 0002:00007d21       $stateUnwindMap$?_Do_rep0@?$_Matcher@V?$_String_const_iterator@V?$_String_val@U?$_Simple_types@_W@std@@@std@@@std@@_WV?$regex_traits@_W@2@V12@@std@@AEAA_NPEAV_Node_rep@2@_N@Z 000000014001dd21     MFCEditView.obj
 0002:00007d2e       $ip2state$?_Do_rep0@?$_Matcher@V?$_String_const_iterator@V?$_String_val@U?$_Simple_types@_W@std@@@std@@@std@@_WV?$regex_traits@_W@2@V12@@std@@AEAA_NPEAV_Node_rep@2@_N@Z 000000014001dd2e     MFCEditView.obj
 0002:00007d40       $unwind$??$_Copy_vbool@V?$_Vb_iterator@U?$_Wrap_alloc@V?$allocator@I@std@@@std@@@std@@V12@@std@@YA?AV?$_Vb_iterator@U?$_Wrap_alloc@V?$allocator@I@std@@@std@@@0@V10@00@Z 000000014001dd40     MFCEditView.obj
 0002:00007d5c       $unwind$?_CharacterClass@?$_Parser@PEB_W_WV?$regex_traits@_W@std@@@std@@AEAAXXZ 000000014001dd5c     MFCEditView.obj
 0002:00007d68       $chain$1$?_CharacterClass@?$_Parser@PEB_W_WV?$regex_traits@_W@std@@@std@@AEAAXXZ 000000014001dd68     MFCEditView.obj
 0002:00007d80       $chain$2$?_CharacterClass@?$_Parser@PEB_W_WV?$regex_traits@_W@std@@@std@@AEAAXXZ 000000014001dd80     MFCEditView.obj
 0002:00007d90       $chain$0$?_AtomEscape@?$_Parser@PEB_W_WV?$regex_traits@_W@std@@@std@@AEAAXXZ 000000014001dd90     MFCEditView.obj
 0002:00007da4       $chain$1$?_AtomEscape@?$_Parser@PEB_W_WV?$regex_traits@_W@std@@@std@@AEAAXXZ 000000014001dda4     MFCEditView.obj
 0002:00007da4       $chain$3$?_AtomEscape@?$_Parser@PEB_W_WV?$regex_traits@_W@std@@@std@@AEAAXXZ 000000014001dda4     MFCEditView.obj
 0002:00007da4       $chain$5$?_AtomEscape@?$_Parser@PEB_W_WV?$regex_traits@_W@std@@@std@@AEAAXXZ 000000014001dda4     MFCEditView.obj
 0002:00007db4       $chain$2$?_AtomEscape@?$_Parser@PEB_W_WV?$regex_traits@_W@std@@@std@@AEAAXXZ 000000014001ddb4     MFCEditView.obj
 0002:00007db4       $chain$4$?_AtomEscape@?$_Parser@PEB_W_WV?$regex_traits@_W@std@@@std@@AEAAXXZ 000000014001ddb4     MFCEditView.obj
 0002:00007db4       $chain$6$?_AtomEscape@?$_Parser@PEB_W_WV?$regex_traits@_W@std@@@std@@AEAAXXZ 000000014001ddb4     MFCEditView.obj
 0002:00007dc8       $unwind$?_Wrapped_disjunction@?$_Parser@PEB_W_WV?$regex_traits@_W@std@@@std@@AEAA_NXZ 000000014001ddc8     MFCEditView.obj
 0002:00007dd0       $chain$2$?_Wrapped_disjunction@?$_Parser@PEB_W_WV?$regex_traits@_W@std@@@std@@AEAA_NXZ 000000014001ddd0     MFCEditView.obj
 0002:00007dec       $chain$4$?_Wrapped_disjunction@?$_Parser@PEB_W_WV?$regex_traits@_W@std@@@std@@AEAA_NXZ 000000014001ddec     MFCEditView.obj
 0002:00007e08       $chain$5$?_Wrapped_disjunction@?$_Parser@PEB_W_WV?$regex_traits@_W@std@@@std@@AEAA_NXZ 000000014001de08     MFCEditView.obj
 0002:00007e18       $unwind$?_Quantifier@?$_Parser@PEB_W_WV?$regex_traits@_W@std@@@std@@AEAAXXZ 000000014001de18     MFCEditView.obj
 0002:00007e2c       $chain$0$?_Quantifier@?$_Parser@PEB_W_WV?$regex_traits@_W@std@@@std@@AEAAXXZ 000000014001de2c     MFCEditView.obj
 0002:00007e40       $chain$1$?_Quantifier@?$_Parser@PEB_W_WV?$regex_traits@_W@std@@@std@@AEAAXXZ 000000014001de40     MFCEditView.obj
 0002:00007e40       $chain$3$?_Quantifier@?$_Parser@PEB_W_WV?$regex_traits@_W@std@@@std@@AEAAXXZ 000000014001de40     MFCEditView.obj
 0002:00007e50       $chain$2$?_Quantifier@?$_Parser@PEB_W_WV?$regex_traits@_W@std@@@std@@AEAAXXZ 000000014001de50     MFCEditView.obj
 0002:00007e64       $unwind$?_Add_char@?$_Builder@PEB_W_WV?$regex_traits@_W@std@@@std@@QEAAX_W@Z 000000014001de64     MFCEditView.obj
 0002:00007e78       $unwind$?_CharacterClassEscape@?$_Parser@PEB_W_WV?$regex_traits@_W@std@@@std@@AEAA_N_N@Z 000000014001de78     MFCEditView.obj
 0002:00007e88       $chain$0$?_CharacterClassEscape@?$_Parser@PEB_W_WV?$regex_traits@_W@std@@@std@@AEAA_N_N@Z 000000014001de88     MFCEditView.obj
 0002:00007e9c       $chain$1$?_CharacterClassEscape@?$_Parser@PEB_W_WV?$regex_traits@_W@std@@@std@@AEAA_N_N@Z 000000014001de9c     MFCEditView.obj
 0002:00007eac       $chain$3$?_ClassRanges@?$_Parser@PEB_W_WV?$regex_traits@_W@std@@@std@@AEAAXXZ 000000014001deac     MFCEditView.obj
 0002:00007ecc       $chain$4$?_ClassRanges@?$_Parser@PEB_W_WV?$regex_traits@_W@std@@@std@@AEAAXXZ 000000014001decc     MFCEditView.obj
 0002:00007edc       $chain$5$?_ClassRanges@?$_Parser@PEB_W_WV?$regex_traits@_W@std@@@std@@AEAAXXZ 000000014001dedc     MFCEditView.obj
 0002:00007efc       $chain$3$?_CharacterEscape@?$_Parser@PEB_W_WV?$regex_traits@_W@std@@@std@@AEAA_NXZ 000000014001defc     MFCEditView.obj
 0002:00007f1c       $chain$4$?_CharacterEscape@?$_Parser@PEB_W_WV?$regex_traits@_W@std@@@std@@AEAA_NXZ 000000014001df1c     MFCEditView.obj
 0002:00007f2c       $chain$5$?_CharacterEscape@?$_Parser@PEB_W_WV?$regex_traits@_W@std@@@std@@AEAA_NXZ 000000014001df2c     MFCEditView.obj
 0002:00007f4c       $unwind$?_Do_assert_group@?$_Parser@PEB_W_WV?$regex_traits@_W@std@@@std@@AEAAX_N@Z 000000014001df4c     MFCEditView.obj
 0002:00007f6c       $cppxdata$?_Do_assert_group@?$_Parser@PEB_W_WV?$regex_traits@_W@std@@@std@@AEAAX_N@Z 000000014001df6c     MFCEditView.obj
 0002:00007f75       $stateUnwindMap$?_Do_assert_group@?$_Parser@PEB_W_WV?$regex_traits@_W@std@@@std@@AEAAX_N@Z 000000014001df75     MFCEditView.obj
 0002:00007f7c       $ip2state$?_Do_assert_group@?$_Parser@PEB_W_WV?$regex_traits@_W@std@@@std@@AEAAX_N@Z 000000014001df7c     MFCEditView.obj
 0002:00007f84       $unwind$?_Add_rep@?$_Builder@PEB_W_WV?$regex_traits@_W@std@@@std@@QEAAXHH_N@Z 000000014001df84     MFCEditView.obj
 0002:00007f9c       $chain$2$?_Add_rep@?$_Builder@PEB_W_WV?$regex_traits@_W@std@@@std@@QEAAXHH_N@Z 000000014001df9c     MFCEditView.obj
 0002:00007fb0       $chain$3$?_Add_rep@?$_Builder@PEB_W_WV?$regex_traits@_W@std@@@std@@QEAAXHH_N@Z 000000014001dfb0     MFCEditView.obj
 0002:00007fc0       $chain$0$?_HexDigits@?$_Parser@PEB_W_WV?$regex_traits@_W@std@@@std@@AEAAXH@Z 000000014001dfc0     MFCEditView.obj
 0002:00007fd4       $chain$1$?_HexDigits@?$_Parser@PEB_W_WV?$regex_traits@_W@std@@@std@@AEAAXH@Z 000000014001dfd4     MFCEditView.obj
 0002:00007fe4       $chain$2$?_HexDigits@?$_Parser@PEB_W_WV?$regex_traits@_W@std@@@std@@AEAAXH@Z 000000014001dfe4     MFCEditView.obj
 0002:00007ff8       $unwind$?_Add_named_class@?$_Builder@PEB_W_WV?$regex_traits@_W@std@@@std@@QEAAXF_N@Z 000000014001dff8     MFCEditView.obj
 0002:00007ff8       $unwind$?_Add_range@?$_Builder@PEB_W_WV?$regex_traits@_W@std@@@std@@QEAAX_W0@Z 000000014001dff8     MFCEditView.obj
 0002:00008010       $unwind$?_Add_char_to_array@?$_Builder@PEB_W_WV?$regex_traits@_W@std@@@std@@AEAAX_W@Z 000000014001e010     MFCEditView.obj
 0002:00008024       $unwind$??$lookup_classname@PEB_W@?$_Regex_traits@_W@std@@QEBAFPEB_W0_N@Z 000000014001e024     MFCEditView.obj
 0002:00008034       $chain$2$??$lookup_classname@PEB_W@?$_Regex_traits@_W@std@@QEBAFPEB_W0_N@Z 000000014001e034     MFCEditView.obj
 0002:00008050       $chain$6$??$lookup_classname@PEB_W@?$_Regex_traits@_W@std@@QEBAFPEB_W0_N@Z 000000014001e050     MFCEditView.obj
 0002:00008070       $chain$7$??$lookup_classname@PEB_W@?$_Regex_traits@_W@std@@QEBAFPEB_W0_N@Z 000000014001e070     MFCEditView.obj
 0002:00008080       $chain$8$??$lookup_classname@PEB_W@?$_Regex_traits@_W@std@@QEBAFPEB_W0_N@Z 000000014001e080     MFCEditView.obj
 0002:00008090       $chain$9$??$lookup_classname@PEB_W@?$_Regex_traits@_W@std@@QEBAFPEB_W0_N@Z 000000014001e090     MFCEditView.obj
 0002:000080bc       $unwind$?_Do_ex_class@?$_Parser@PEB_W_WV?$regex_traits@_W@std@@@std@@AEAAXW4_Meta_type@2@@Z 000000014001e0bc     MFCEditView.obj
 0002:000080d4       $unwind$?_Add_equiv@?$_Builder@PEB_W_WV?$regex_traits@_W@std@@@std@@QEAAXPEB_W0_J@Z 000000014001e0d4     MFCEditView.obj
 0002:000080f8       $cppxdata$?_Add_equiv@?$_Builder@PEB_W_WV?$regex_traits@_W@std@@@std@@QEAAXPEB_W0_J@Z 000000014001e0f8     MFCEditView.obj
 0002:00008101       $stateUnwindMap$?_Add_equiv@?$_Builder@PEB_W_WV?$regex_traits@_W@std@@@std@@QEAAXPEB_W0_J@Z 000000014001e101     MFCEditView.obj
 0002:00008108       $ip2state$?_Add_equiv@?$_Builder@PEB_W_WV?$regex_traits@_W@std@@@std@@QEAAXPEB_W0_J@Z 000000014001e108     MFCEditView.obj
 0002:00008110       $unwind$?_Char_to_elts@?$_Builder@PEB_W_WV?$regex_traits@_W@std@@@std@@AEAAXPEB_W0_JPEAPEAU?$_Sequence@_W@2@@Z 000000014001e110     MFCEditView.obj
 0002:00008124       $chain$0$?_Char_to_elts@?$_Builder@PEB_W_WV?$regex_traits@_W@std@@@std@@AEAAXPEB_W0_JPEAPEAU?$_Sequence@_W@2@@Z 000000014001e124     MFCEditView.obj
 0002:00008138       $chain$1$?_Char_to_elts@?$_Builder@PEB_W_WV?$regex_traits@_W@std@@@std@@AEAAXPEB_W0_JPEAPEAU?$_Sequence@_W@2@@Z 000000014001e138     MFCEditView.obj
 0002:00008148       $chain$2$?_Char_to_elts@?$_Builder@PEB_W_WV?$regex_traits@_W@std@@@std@@AEAAXPEB_W0_JPEAPEAU?$_Sequence@_W@2@@Z 000000014001e148     MFCEditView.obj
 0002:0000815c       $unwind$??$transform_primary@PEA_W@?$_Regex_traits@_W@std@@QEBA?AV?$basic_string@_WU?$char_traits@_W@std@@V?$allocator@_W@2@@1@PEA_W0@Z 000000014001e15c     MFCEditView.obj
 0002:0000815c       $unwind$??$transform_primary@PEB_W@?$_Regex_traits@_W@std@@QEBA?AV?$basic_string@_WU?$char_traits@_W@std@@V?$allocator@_W@2@@1@PEB_W0@Z 000000014001e15c     MFCEditView.obj
 0002:00008180       $cppxdata$??$transform_primary@PEA_W@?$_Regex_traits@_W@std@@QEBA?AV?$basic_string@_WU?$char_traits@_W@std@@V?$allocator@_W@2@@1@PEA_W0@Z 000000014001e180     MFCEditView.obj
 0002:00008180       $cppxdata$??$transform_primary@PEB_W@?$_Regex_traits@_W@std@@QEBA?AV?$basic_string@_WU?$char_traits@_W@std@@V?$allocator@_W@2@@1@PEB_W0@Z 000000014001e180     MFCEditView.obj
 0002:00008189       $ip2state$??$transform_primary@PEA_W@?$_Regex_traits@_W@std@@QEBA?AV?$basic_string@_WU?$char_traits@_W@std@@V?$allocator@_W@2@@1@PEA_W0@Z 000000014001e189     MFCEditView.obj
 0002:00008189       $ip2state$??$transform_primary@PEB_W@?$_Regex_traits@_W@std@@QEBA?AV?$basic_string@_WU?$char_traits@_W@std@@V?$allocator@_W@2@@1@PEB_W0@Z 000000014001e189     MFCEditView.obj
 0002:00008194       $unwind$?accLocation@CFormView@@UEAAJPEAJ000UtagVARIANT@@@Z 000000014001e194     MFCEditView.obj
 0002:0000819c       $unwind$?_Throw_bad_array_new_length@std@@YAXXZ 000000014001e19c     MFCEditView.obj
 0002:0000819c       $unwind$?_Throw_bad_cast@std@@YAXXZ 000000014001e19c     MFCEditView.obj
 0002:0000819c       $unwind$?get_accChild@CFormView@@UEAAJUtagVARIANT@@PEAPEAUIDispatch@@@Z 000000014001e19c     MFCEditView.obj
 0002:0000819c       $unwind$?get_accName@CFormView@@UEAAJUtagVARIANT@@PEAPEA_W@Z 000000014001e19c     MFCEditView.obj
 0002:0000819c       $unwind$?_com_raise_error@@YAXJPEAUIErrorInfo@@@Z 000000014001e19c     comsuppw:comraise.obj
 0002:000081a4       $unwind$?name@locale@std@@QEBA?AV?$basic_string@DU?$char_traits@D@std@@V?$allocator@D@2@@2@XZ 000000014001e1a4     MFCEditView.obj
 0002:000081b8       $unwind$??HATL@@YA?AV?$CStringT@_WV?$StrTraitMFC_DLL@_WV?$ChTraitsCRT@_W@ATL@@@@@0@PEB_WAEBV10@@Z 000000014001e1b8     MFCEditView.obj
 0002:000081cc       $cppxdata$??HATL@@YA?AV?$CStringT@_WV?$StrTraitMFC_DLL@_WV?$ChTraitsCRT@_W@ATL@@@@@0@PEB_WAEBV10@@Z 000000014001e1cc     MFCEditView.obj
 0002:000081d5       $stateUnwindMap$??HATL@@YA?AV?$CStringT@_WV?$StrTraitMFC_DLL@_WV?$ChTraitsCRT@_W@ATL@@@@@0@AEBV10@PEB_W@Z 000000014001e1d5     MFCEditView.obj
 0002:000081d5       $stateUnwindMap$??HATL@@YA?AV?$CStringT@_WV?$StrTraitMFC_DLL@_WV?$ChTraitsCRT@_W@ATL@@@@@0@PEB_WAEBV10@@Z 000000014001e1d5     MFCEditView.obj
 0002:000081db       $ip2state$??HATL@@YA?AV?$CStringT@_WV?$StrTraitMFC_DLL@_WV?$ChTraitsCRT@_W@ATL@@@@@0@PEB_WAEBV10@@Z 000000014001e1db     MFCEditView.obj
 0002:000081e0       $unwind$??1CWaitCursor@@QEAA@XZ 000000014001e1e0     MFCEditView.obj
 0002:000081f4       $cppxdata$??1CWaitCursor@@QEAA@XZ 000000014001e1f4     MFCEditView.obj
 0002:00008201       $tryMap$??1CWaitCursor@@QEAA@XZ 000000014001e201     MFCEditView.obj
 0002:00008209       $handlerMap$??1CWaitCursor@@QEAA@XZ 000000014001e209     MFCEditView.obj
 0002:00008215       $ip2state$??1CWaitCursor@@QEAA@XZ 000000014001e215     MFCEditView.obj
 0002:0000821c       $unwind$??4?$basic_string@_WU?$char_traits@_W@std@@V?$allocator@_W@2@@std@@QEAAAEAV01@$$QEAV01@@Z 000000014001e21c     MFCEditView.obj
 0002:00008228       $unwind$??HATL@@YA?AV?$CStringT@_WV?$StrTraitMFC_DLL@_WV?$ChTraitsCRT@_W@ATL@@@@@0@AEBV10@PEB_W@Z 000000014001e228     MFCEditView.obj
 0002:0000823c       $cppxdata$??HATL@@YA?AV?$CStringT@_WV?$StrTraitMFC_DLL@_WV?$ChTraitsCRT@_W@ATL@@@@@0@AEBV10@PEB_W@Z 000000014001e23c     MFCEditView.obj
 0002:00008245       $ip2state$??HATL@@YA?AV?$CStringT@_WV?$StrTraitMFC_DLL@_WV?$ChTraitsCRT@_W@ATL@@@@@0@AEBV10@PEB_W@Z 000000014001e245     MFCEditView.obj
 0002:00008248       $unwind$??$_Construct@$00PEB_W@?$basic_string@_WU?$char_traits@_W@std@@V?$allocator@_W@2@@std@@AEAAXQEB_W_K@Z 000000014001e248     MFCEditView.obj
 0002:00008258       $chain$0$??$_Construct@$00PEB_W@?$basic_string@_WU?$char_traits@_W@std@@V?$allocator@_W@2@@std@@AEAAXQEB_W_K@Z 000000014001e258     MFCEditView.obj
 0002:0000826c       $chain$3$??$_Construct@$00PEB_W@?$basic_string@_WU?$char_traits@_W@std@@V?$allocator@_W@2@@std@@AEAAXQEB_W_K@Z 000000014001e26c     MFCEditView.obj
 0002:00008284       $chain$4$??$_Construct@$00PEB_W@?$basic_string@_WU?$char_traits@_W@std@@V?$allocator@_W@2@@std@@AEAAXQEB_W_K@Z 000000014001e284     MFCEditView.obj
 0002:00008294       $chain$5$??$_Construct@$00PEB_W@?$basic_string@_WU?$char_traits@_W@std@@V?$allocator@_W@2@@std@@AEAAXQEB_W_K@Z 000000014001e294     MFCEditView.obj
 0002:000082ac       $unwind$?__scrt_common_main_seh@@YAHXZ 000000014001e2ac     msvcrt:exe_wwinmain.obj
 0002:000082e0       $xdatasym                  000000014001e2e0     msvcrt:amdsecgs.obj
 0002:000082e4       $unwind$__scrt_is_nonwritable_in_current_image 000000014001e2e4     msvcrt:utility.obj
 0002:00008304       $unwind$__scrt_is_nonwritable_in_current_image$filt$0 000000014001e304     msvcrt:utility.obj
 0002:0000830c       $unwind$__GSHandlerCheck_EH4 000000014001e30c     msvcrt:gshandlereh4.obj
 0002:0000830c       $unwind$__GSHandlerCheck_SEH 000000014001e30c     msvcrt:gshandlerseh.obj
 0002:00008324       $unwind$__security_init_cookie 000000014001e324     msvcrt:gs_support.obj
 0002:00008330       $unwind$__scrt_get_show_window_mode 000000014001e330     msvcrt:utility_desktop.obj
 0002:00008338       $unwind$__scrt_fastfail    000000014001e338     msvcrt:utility_desktop.obj
 0002:00008348       $unwind$__report_gsfailure 000000014001e348     msvcrt:gs_report.obj
 0002:00008350       $unwind$capture_previous_context 000000014001e350     msvcrt:gs_report.obj
 0002:0000835c       $unwind$__isa_available_init 000000014001e35c     msvcrt:cpu_disp.obj
 0002:00008370       $unwind$__GSHandlerCheckCommon 000000014001e370     msvcrt:gshandler.obj
 0002:00008378       $xdatasym                  000000014001e378     msvcrt:guard_dispatch.obj
 0002:00008380       $xdatasym                  000000014001e380     msvcrt:guard_xfg_dispatch.obj
 0002:00008384       $unwind$?ConvertStringToBSTR@_com_util@@YAPEA_WPEBD@Z 000000014001e384     comsuppw:comutil.obj
 0002:000083b8       $unwind$??1_com_error@@UEAA@XZ 000000014001e3b8     comsuppw:comraise.obj
 0002:000083c8       $cppxdata$??1_com_error@@UEAA@XZ 000000014001e3c8     comsuppw:comraise.obj
 0002:000083cd       $ip2state$??1_com_error@@UEAA@XZ 000000014001e3cd     comsuppw:comraise.obj
 0002:000083d0       $unwind$??_G_com_error@@UEAAPEAXI@Z 000000014001e3d0     comsuppw:comraise.obj
 0002:000083e4       $cppxdata$??_G_com_error@@UEAAPEAXI@Z 000000014001e3e4     comsuppw:comraise.obj
 0002:000083ed       $ip2state$??_G_com_error@@UEAAPEAXI@Z 000000014001e3ed     comsuppw:comraise.obj
 0002:000083f0       $xdatasym                  000000014001e3f0     msvcrt:chkstk.obj
 0002:000098a8       .idata$6                   000000014001f8a8     mfc140u:mfc140u.dll
 0002:00009aec       .idata$6                   000000014001faec     kernel32:KERNEL32.dll
 0002:00009b58       .idata$6                   000000014001fb58     user32:USER32.dll
 0002:00009b88       .idata$6                   000000014001fb88     gdi32:GDI32.dll
 0002:00009baa       .idata$6                   000000014001fbaa     comctl32:COMCTL32.dll
 0002:00009bdc       .idata$6                   000000014001fbdc     ole32:ole32.dll
 0002:00009be6       .idata$6                   000000014001fbe6     oleaut32:OLEAUT32.dll
 0002:0000ab42       .idata$6                   0000000140020b42     msvcprt:MSVCP140.dll
 0002:0000ab94       .idata$6                   0000000140020b94     MNSC:MNSC.dll
 0002:0000ac8e       .idata$6                   0000000140020c8e     vcruntime:VCRUNTIME140_1.dll
 0002:0000aca2       .idata$6                   0000000140020ca2     vcruntime:VCRUNTIME140.dll
 0002:0000aeae       .idata$6                   0000000140020eae     ucrt:api-ms-win-crt-runtime-l1-1-0.dll
 0002:0000aed0       .idata$6                   0000000140020ed0     ucrt:api-ms-win-crt-convert-l1-1-0.dll
 0002:0000aef2       .idata$6                   0000000140020ef2     ucrt:api-ms-win-crt-stdio-l1-1-0.dll
 0002:0000af12       .idata$6                   0000000140020f12     ucrt:api-ms-win-crt-heap-l1-1-0.dll
 0002:0000af32       .idata$6                   0000000140020f32     ucrt:api-ms-win-crt-math-l1-1-0.dll
 0002:0000af52       .idata$6                   0000000140020f52     ucrt:api-ms-win-crt-locale-l1-1-0.dll
 0003:000000d8       ?indicators@@3PAIA         00000001400210d8     MainFrm.obj
 0003:00000f58       ?is_initialized_as_dll@@3_NA 0000000140021f58     msvcrt:utility.obj
 0003:00000f59       ?module_local_atexit_table_initialized@@3_NA 0000000140021f59     msvcrt:utility.obj
 0003:00000f60       ?module_local_atexit_table@@3U_onexit_table_t@@A 0000000140021f60     msvcrt:utility.obj
 0003:00000f78       ?module_local_at_quick_exit_table@@3U_onexit_table_t@@A 0000000140021f78     msvcrt:utility.obj
 0003:00000f90       ?g_tss_cv@@3U_RTL_CONDITION_VARIABLE@@A 0000000140021f90     msvcrt:thread_safe_statics.obj
 0003:00000f98       ?g_tss_srw@@3U_RTL_SRWLOCK@@A 0000000140021f98     msvcrt:thread_safe_statics.obj
 0003:00000fd0       GS_ExceptionRecord         0000000140021fd0     msvcrt:gs_report.obj
 0003:00001070       GS_ContextRecord           0000000140022070     msvcrt:gs_report.obj
 0003:000015b8       ?_Fac_head@std@@3PEAU_Fac_node@1@EA 00000001400225b8     msvcprt:locale0_implib.obj
 0003:000015c0       ?_Fac_tidy_reg@std@@3U_Fac_tidy_reg_t@1@B 00000001400225c0     msvcprt:locale0_implib.obj
 0005:00000920       $R000000                   0000000140025920     MFCEdit.res
 0005:00000f88       $R000668                   0000000140025f88     MFCEdit.res
 0005:00001270       $R000950                   0000000140026270     MFCEdit.res
 0005:00001458       $R000B38                   0000000140026458     MFCEdit.res
 0005:00001580       $R000C60                   0000000140026580     MFCEdit.res
 0005:00002428       $R001B08                   0000000140027428     MFCEdit.res
 0005:00002cd0       $R0023B0                   0000000140027cd0     MFCEdit.res
 0005:00003398       $R002A78                   0000000140028398     MFCEdit.res
 0005:00003900       $R002FE0                   0000000140028900     MFCEdit.res
 0005:0000ccd0       $R00C3B0                   0000000140031cd0     MFCEdit.res
 0005:0000f278       $R00E958                   0000000140034278     MFCEdit.res
 0005:00010320       $R00FA00                   0000000140035320     MFCEdit.res
 0005:00010ca8       $R010388                   0000000140035ca8     MFCEdit.res
 0005:00011110       $R0107F0                   0000000140036110     MFCEdit.res
 0005:000111d0       $R0108B0                   00000001400361d0     MFCEdit.res
 0005:000114b8       $R010B98                   00000001400364b8     MFCEdit.res
 0005:000115e0       $R010CC0                   00000001400365e0     MFCEdit.res
 0005:00011e88       $R011568                   0000000140036e88     MFCEdit.res
 0005:000123f0       $R011AD0                   00000001400373f0     MFCEdit.res
 0005:00012430       $R011B10                   0000000140037430     MFCEdit.res
 0005:00012858       $R011F38                   0000000140037858     MFCEdit.res
 0005:00012878       $R011F58                   0000000140037878     MFCEdit.res
 0005:00012b00       $R0121E0                   0000000140037b00     MFCEdit.res
 0005:00012b70       $R012250                   0000000140037b70     MFCEdit.res
 0005:00012c98       $R012378                   0000000140037c98     MFCEdit.res
 0005:00012ec8       $R0125A8                   0000000140037ec8     MFCEdit.res
 0005:000131b0       $R012890                   00000001400381b0     MFCEdit.res
 0005:000131b8       $R012898                   00000001400381b8     MFCEdit.res
 0005:00013238       $R012918                   0000000140038238     MFCEdit.res
 0005:000132c0       $R0129A0                   00000001400382c0     MFCEdit.res
 0005:000132f8       $R0129D8                   00000001400382f8     MFCEdit.res
 0005:00013340       $R012A20                   0000000140038340     MFCEdit.res
 0005:00013500       $R012BE0                   0000000140038500     MFCEdit.res
 0005:00013598       $R012C78                   0000000140038598     MFCEdit.res
 0005:00013738       $R012E18                   0000000140038738     MFCEdit.res
 0005:000137a8       $R012E88                   00000001400387a8     MFCEdit.res
 0005:000137e8       $R012EC8                   00000001400387e8     MFCEdit.res
 0005:00013990       $R013070                   0000000140038990     MFCEdit.res
 0005:00013a28       $R013108                   0000000140038a28     MFCEdit.res
 0005:00013b30       $R013210                   0000000140038b30     MFCEdit.res
 0005:00013b90       $R013270                   0000000140038b90     MFCEdit.res
 0005:00013be8       $R0132C8                   0000000140038be8     MFCEdit.res
